Archive member included because of file (symbol)

c:/program files (x86)/microchip/xc32/v2.30/bin/bin/../../lib/gcc/pic32mx/4.8.3/../../../../pic32mx/lib\libmchp_peripheral_32MX440F256H.a(soft_reset_lib.o)
                              output\mal.o (SoftReset)
c:/program files (x86)/microchip/xc32/v2.30/bin/bin/../../lib/gcc/pic32mx/4.8.3/../../../../pic32mx/lib\libmchp_peripheral_32MX440F256H.a(pcache.o)
                              output\mal.o (CheKseg0CacheOn)
c:/program files (x86)/microchip/xc32/v2.30/bin/bin/../../lib/gcc/pic32mx/4.8.3/../../../../pic32mx/lib\libmchp_peripheral_32MX440F256H.a(int_disable_interrupts_lib.o)
                              c:/program files (x86)/microchip/xc32/v2.30/bin/bin/../../lib/gcc/pic32mx/4.8.3/../../../../pic32mx/lib\libmchp_peripheral_32MX440F256H.a(soft_reset_lib.o) (INTDisableInterrupts)
c:/program files (x86)/microchip/xc32/v2.30/bin/bin/../../lib/gcc/pic32mx/4.8.3/../../../../pic32mx/lib\libmchp_peripheral_32MX440F256H.a(power_idle_lib.o)
                              output\sleep.o (PowerSaveIdle)
c:/program files (x86)/microchip/xc32/v2.30/bin/bin/../../lib/gcc/pic32mx/4.8.3/../../../../pic32mx/lib\libmchp_peripheral_32MX440F256H.a(power_sleep_lib.o)
                              output\sleep.o (PowerSaveSleep)
c:/program files (x86)/microchip/xc32/v2.30/bin/bin/../../lib/gcc/pic32mx/4.8.3/../../../../pic32mx/lib\libmchp_peripheral_32MX440F256H.a(nvm_erase_page_lib.o)
                              output\dee_page.o (NVMErasePage)
c:/program files (x86)/microchip/xc32/v2.30/bin/bin/../../lib/gcc/pic32mx/4.8.3/../../../../pic32mx/lib\libmchp_peripheral_32MX440F256H.a(nvm_operation_lib.o)
                              c:/program files (x86)/microchip/xc32/v2.30/bin/bin/../../lib/gcc/pic32mx/4.8.3/../../../../pic32mx/lib\libmchp_peripheral_32MX440F256H.a(nvm_erase_page_lib.o) (_NVMOperation)
c:/program files (x86)/microchip/xc32/v2.30/bin/bin/../../lib/gcc/pic32mx/4.8.3/../../../../pic32mx/lib\libmchp_peripheral_32MX440F256H.a(nvm_write_word_lib.o)
                              output\dee_page.o (NVMWriteWord)
c:/program files (x86)/microchip/xc32/v2.30/bin/bin/../../lib/gcc/pic32mx/4.8.3/../../../../pic32mx/lib\libmchp_peripheral_32MX440F256H.a(int_restore_interrupts_lib.o)
                              c:/program files (x86)/microchip/xc32/v2.30/bin/bin/../../lib/gcc/pic32mx/4.8.3/../../../../pic32mx/lib\libmchp_peripheral_32MX440F256H.a(power_idle_lib.o) (INTRestoreInterrupts)
c:/program files (x86)/microchip/xc32/v2.30/bin/bin/../../lib/gcc/pic32mx/4.8.3\libgcc.a(_divdi3.o)
                              output\bme280.o (__divdi3)
c:/program files (x86)/microchip/xc32/v2.30/bin/bin/../../lib/gcc/pic32mx/4.8.3\libgcc.a(floatunsisf.o)
                              output\app.o (__floatunsisf)
c:/program files (x86)/microchip/xc32/v2.30/bin/bin/../../lib/gcc/pic32mx/4.8.3/../../../../pic32mx/lib\libpic32.a(memcmp.o)
                              output\stack_task.o (memcmp)
c:/program files (x86)/microchip/xc32/v2.30/bin/bin/../../lib/gcc/pic32mx/4.8.3/../../../../pic32mx/lib\libpic32.a(memcpy.o)
                              output\noinitram.o (memcpy)
c:/program files (x86)/microchip/xc32/v2.30/bin/bin/../../lib/gcc/pic32mx/4.8.3/../../../../pic32mx/lib\libpic32.a(memset.o)
                              output\wifi.o (memset)
c:/program files (x86)/microchip/xc32/v2.30/bin/bin/../../lib/gcc/pic32mx/4.8.3/../../../../pic32mx/lib\libpic32.a(strcmp.o)
                              output\http2.o (strcmp)
c:/program files (x86)/microchip/xc32/v2.30/bin/bin/../../lib/gcc/pic32mx/4.8.3/../../../../pic32mx/lib\libpic32.a(strcpy.o)
                              output\http2.o (strcpy)
c:/program files (x86)/microchip/xc32/v2.30/bin/bin/../../lib/gcc/pic32mx/4.8.3/../../../../pic32mx/lib\libpic32.a(strlen.o)
                              output\UDP.o (strlen)
c:/program files (x86)/microchip/xc32/v2.30/bin/bin/../../lib/gcc/pic32mx/4.8.3/../../../../pic32mx/lib\libpic32.a(default-bootstrap-exception-handler.o)
                              C:\Users\kyrk\AppData\Local\Temp\cc2qO3z7.o (_bootstrap_exception_handler)
c:/program files (x86)/microchip/xc32/v2.30/bin/bin/../../lib/gcc/pic32mx/4.8.3/../../../../pic32mx/lib\libpic32.a(default-on-reset.o)
                              C:\Users\kyrk\AppData\Local\Temp\cc2qO3z7.o (_on_reset)
c:/program files (x86)/microchip/xc32/v2.30/bin/bin/../../lib/gcc/pic32mx/4.8.3/../../../../pic32mx/lib\libpic32.a(default-on-bootstrap.o)
                              C:\Users\kyrk\AppData\Local\Temp\cc2qO3z7.o (_on_bootstrap)
c:/program files (x86)/microchip/xc32/v2.30/bin/bin/../../lib/gcc/pic32mx/4.8.3/../../../../pic32mx/lib\libpic32.a(default-nmi-handler.o)
                              C:\Users\kyrk\AppData\Local\Temp\cc2qO3z7.o (_nmi_handler)
c:/program files (x86)/microchip/xc32/v2.30/bin/bin/../../lib/gcc/pic32mx/4.8.3/../../../../pic32mx/lib\libpic32.a(pic32_data_init.o)
                              C:\Users\kyrk\AppData\Local\Temp\cc2qO3z7.o (__pic32_data_init)
c:/program files (x86)/microchip/xc32/v2.30/bin/bin/../../lib/gcc/pic32mx/4.8.3/../../../../pic32mx/lib\libpic32.a(general-exception.o)
                              C:\Users\kyrk\AppData\Local\Temp\cc2qO3z7.o (_general_exception_context)
c:/program files (x86)/microchip/xc32/v2.30/bin/bin/../../lib/gcc/pic32mx/4.8.3/../../../../pic32mx/lib\libpic32.a(vector1.o)
                              C:\Users\kyrk\AppData\Local\Temp\ccKOqrbg.o (__vector_dispatch_1)
c:/program files (x86)/microchip/xc32/v2.30/bin/bin/../../lib/gcc/pic32mx/4.8.3/../../../../pic32mx/lib\libpic32.a(vector2.o)
                              C:\Users\kyrk\AppData\Local\Temp\ccKOqrbg.o (__vector_dispatch_2)
c:/program files (x86)/microchip/xc32/v2.30/bin/bin/../../lib/gcc/pic32mx/4.8.3/../../../../pic32mx/lib\libpic32.a(vector3.o)
                              C:\Users\kyrk\AppData\Local\Temp\ccKOqrbg.o (__vector_dispatch_3)
c:/program files (x86)/microchip/xc32/v2.30/bin/bin/../../lib/gcc/pic32mx/4.8.3/../../../../pic32mx/lib\libpic32.a(vector5.o)
                              C:\Users\kyrk\AppData\Local\Temp\ccKOqrbg.o (__vector_dispatch_5)
c:/program files (x86)/microchip/xc32/v2.30/bin/bin/../../lib/gcc/pic32mx/4.8.3/../../../../pic32mx/lib\libpic32.a(vector6.o)
                              C:\Users\kyrk\AppData\Local\Temp\ccKOqrbg.o (__vector_dispatch_6)
c:/program files (x86)/microchip/xc32/v2.30/bin/bin/../../lib/gcc/pic32mx/4.8.3/../../../../pic32mx/lib\libpic32.a(vector7.o)
                              C:\Users\kyrk\AppData\Local\Temp\ccKOqrbg.o (__vector_dispatch_7)
c:/program files (x86)/microchip/xc32/v2.30/bin/bin/../../lib/gcc/pic32mx/4.8.3/../../../../pic32mx/lib\libpic32.a(vector9.o)
                              C:\Users\kyrk\AppData\Local\Temp\ccKOqrbg.o (__vector_dispatch_9)
c:/program files (x86)/microchip/xc32/v2.30/bin/bin/../../lib/gcc/pic32mx/4.8.3/../../../../pic32mx/lib\libpic32.a(vector10.o)
                              C:\Users\kyrk\AppData\Local\Temp\ccKOqrbg.o (__vector_dispatch_10)
c:/program files (x86)/microchip/xc32/v2.30/bin/bin/../../lib/gcc/pic32mx/4.8.3/../../../../pic32mx/lib\libpic32.a(vector11.o)
                              C:\Users\kyrk\AppData\Local\Temp\ccKOqrbg.o (__vector_dispatch_11)
c:/program files (x86)/microchip/xc32/v2.30/bin/bin/../../lib/gcc/pic32mx/4.8.3/../../../../pic32mx/lib\libpic32.a(vector13.o)
                              C:\Users\kyrk\AppData\Local\Temp\ccKOqrbg.o (__vector_dispatch_13)
c:/program files (x86)/microchip/xc32/v2.30/bin/bin/../../lib/gcc/pic32mx/4.8.3/../../../../pic32mx/lib\libpic32.a(vector14.o)
                              C:\Users\kyrk\AppData\Local\Temp\ccKOqrbg.o (__vector_dispatch_14)
c:/program files (x86)/microchip/xc32/v2.30/bin/bin/../../lib/gcc/pic32mx/4.8.3/../../../../pic32mx/lib\libpic32.a(vector17.o)
                              C:\Users\kyrk\AppData\Local\Temp\ccKOqrbg.o (__vector_dispatch_17)
c:/program files (x86)/microchip/xc32/v2.30/bin/bin/../../lib/gcc/pic32mx/4.8.3/../../../../pic32mx/lib\libpic32.a(vector18.o)
                              C:\Users\kyrk\AppData\Local\Temp\ccKOqrbg.o (__vector_dispatch_18)
c:/program files (x86)/microchip/xc32/v2.30/bin/bin/../../lib/gcc/pic32mx/4.8.3/../../../../pic32mx/lib\libpic32.a(vector19.o)
                              C:\Users\kyrk\AppData\Local\Temp\ccKOqrbg.o (__vector_dispatch_19)
c:/program files (x86)/microchip/xc32/v2.30/bin/bin/../../lib/gcc/pic32mx/4.8.3/../../../../pic32mx/lib\libpic32.a(vector21.o)
                              C:\Users\kyrk\AppData\Local\Temp\ccKOqrbg.o (__vector_dispatch_21)
c:/program files (x86)/microchip/xc32/v2.30/bin/bin/../../lib/gcc/pic32mx/4.8.3/../../../../pic32mx/lib\libpic32.a(vector22.o)
                              C:\Users\kyrk\AppData\Local\Temp\ccKOqrbg.o (__vector_dispatch_22)
c:/program files (x86)/microchip/xc32/v2.30/bin/bin/../../lib/gcc/pic32mx/4.8.3/../../../../pic32mx/lib\libpic32.a(vector23.o)
                              C:\Users\kyrk\AppData\Local\Temp\ccKOqrbg.o (__vector_dispatch_23)
c:/program files (x86)/microchip/xc32/v2.30/bin/bin/../../lib/gcc/pic32mx/4.8.3/../../../../pic32mx/lib\libpic32.a(vector27.o)
                              C:\Users\kyrk\AppData\Local\Temp\ccKOqrbg.o (__vector_dispatch_27)
c:/program files (x86)/microchip/xc32/v2.30/bin/bin/../../lib/gcc/pic32mx/4.8.3/../../../../pic32mx/lib\libpic32.a(vector28.o)
                              C:\Users\kyrk\AppData\Local\Temp\ccKOqrbg.o (__vector_dispatch_28)
c:/program files (x86)/microchip/xc32/v2.30/bin/bin/../../lib/gcc/pic32mx/4.8.3/../../../../pic32mx/lib\libpic32.a(vector29.o)
                              C:\Users\kyrk\AppData\Local\Temp\ccKOqrbg.o (__vector_dispatch_29)
c:/program files (x86)/microchip/xc32/v2.30/bin/bin/../../lib/gcc/pic32mx/4.8.3/../../../../pic32mx/lib\libpic32.a(vector30.o)
                              C:\Users\kyrk\AppData\Local\Temp\ccKOqrbg.o (__vector_dispatch_30)
c:/program files (x86)/microchip/xc32/v2.30/bin/bin/../../lib/gcc/pic32mx/4.8.3/../../../../pic32mx/lib\libpic32.a(vector34.o)
                              C:\Users\kyrk\AppData\Local\Temp\ccKOqrbg.o (__vector_dispatch_34)
c:/program files (x86)/microchip/xc32/v2.30/bin/bin/../../lib/gcc/pic32mx/4.8.3/../../../../pic32mx/lib\libpic32.a(vector35.o)
                              C:\Users\kyrk\AppData\Local\Temp\ccKOqrbg.o (__vector_dispatch_35)
c:/program files (x86)/microchip/xc32/v2.30/bin/bin/../../lib/gcc/pic32mx/4.8.3/../../../../pic32mx/lib\libpic32.a(vector40.o)
                              C:\Users\kyrk\AppData\Local\Temp\ccKOqrbg.o (__vector_dispatch_40)
c:/program files (x86)/microchip/xc32/v2.30/bin/bin/../../lib/gcc/pic32mx/4.8.3/../../../../pic32mx/lib\libpic32.a(vector41.o)
                              C:\Users\kyrk\AppData\Local\Temp\ccKOqrbg.o (__vector_dispatch_41)
c:/program files (x86)/microchip/xc32/v2.30/bin/bin/../../lib/gcc/pic32mx/4.8.3/../../../../pic32mx/lib\libpic32.a(vector42.o)
                              C:\Users\kyrk\AppData\Local\Temp\ccKOqrbg.o (__vector_dispatch_42)
c:/program files (x86)/microchip/xc32/v2.30/bin/bin/../../lib/gcc/pic32mx/4.8.3/../../../../pic32mx/lib\libpic32.a(vector43.o)
                              C:\Users\kyrk\AppData\Local\Temp\ccKOqrbg.o (__vector_dispatch_43)
c:/program files (x86)/microchip/xc32/v2.30/bin/bin/../../lib/gcc/pic32mx/4.8.3/../../../../pic32mx/lib\libpic32.a(vector44.o)
                              C:\Users\kyrk\AppData\Local\Temp\ccKOqrbg.o (__vector_dispatch_44)
c:/program files (x86)/microchip/xc32/v2.30/bin/bin/../../lib/gcc/pic32mx/4.8.3/../../../../pic32mx/lib\libpic32.a(defaultinterrupt.o)
                              c:/program files (x86)/microchip/xc32/v2.30/bin/bin/../../lib/gcc/pic32mx/4.8.3/../../../../pic32mx/lib\libpic32.a(vector1.o) (_DefaultInterrupt)
c:/program files (x86)/microchip/xc32/v2.30/bin/bin/../../lib/gcc/pic32mx/4.8.3/../../../../pic32mx/lib\liblega-c.a(strncpy.o)
                              output\Helpers.o (strncpy)
c:/program files (x86)/microchip/xc32/v2.30/bin/bin/../../lib/gcc/pic32mx/4.8.3/../../../../pic32mx/lib\liblega-c.a(atol.o)
                              output\http2.o (atol)
c:/program files (x86)/microchip/xc32/v2.30/bin/bin/../../lib/gcc/pic32mx/4.8.3/../../../../pic32mx/lib\liblega-c.a(strtol.o)
                              c:/program files (x86)/microchip/xc32/v2.30/bin/bin/../../lib/gcc/pic32mx/4.8.3/../../../../pic32mx/lib\liblega-c.a(atol.o) (strtol)
c:/program files (x86)/microchip/xc32/v2.30/bin/bin/../../lib/gcc/pic32mx/4.8.3/../../../../pic32mx/lib\liblega-c.a(sprintf_cdfFnopsuxX.eo)
                              (_sprintf_cdfFnopsuxX)
c:/program files (x86)/microchip/xc32/v2.30/bin/bin/../../lib/gcc/pic32mx/4.8.3/../../../../pic32mx/lib\liblega-c.a(sprintf_cdfFnopuxX.eo)
                              output\http_print.o (_sprintf_cdfFnopuxX)
c:/program files (x86)/microchip/xc32/v2.30/bin/bin/../../lib/gcc/pic32mx/4.8.3/../../../../pic32mx/lib\liblega-c.a(sprintf_fF.eo)
                              output\http_print.o (_sprintf_fF)
c:/program files (x86)/microchip/xc32/v2.30/bin/bin/../../lib/gcc/pic32mx/4.8.3/../../../../pic32mx/lib\liblega-c.a(sprintf_fFs.eo)
                              output\app_thingspeak.o (_sprintf_fFs)
c:/program files (x86)/microchip/xc32/v2.30/bin/bin/../../lib/gcc/pic32mx/4.8.3/../../../../pic32mx/lib\liblega-c.a(ctype.o)
                              c:/program files (x86)/microchip/xc32/v2.30/bin/bin/../../lib/gcc/pic32mx/4.8.3/../../../../pic32mx/lib\liblega-c.a(strtol.o) (_ctype)
c:/program files (x86)/microchip/xc32/v2.30/bin/bin/../../lib/gcc/pic32mx/4.8.3/../../../../pic32mx/lib\liblega-c.a(errno.o)
                              c:/program files (x86)/microchip/xc32/v2.30/bin/bin/../../lib/gcc/pic32mx/4.8.3/../../../../pic32mx/lib\liblega-c.a(strtol.o) (errno)
c:/program files (x86)/microchip/xc32/v2.30/bin/bin/../../lib/gcc/pic32mx/4.8.3/../../../../pic32mx/lib\liblega-c.a(_doprnt_cdfFnopsuxX.eo)
                              c:/program files (x86)/microchip/xc32/v2.30/bin/bin/../../lib/gcc/pic32mx/4.8.3/../../../../pic32mx/lib\liblega-c.a(sprintf_cdfFnopsuxX.eo) (_do_print_cdfFnopsuxX)
c:/program files (x86)/microchip/xc32/v2.30/bin/bin/../../lib/gcc/pic32mx/4.8.3/../../../../pic32mx/lib\liblega-c.a(_doprnt_cdfFnopuxX.eo)
                              c:/program files (x86)/microchip/xc32/v2.30/bin/bin/../../lib/gcc/pic32mx/4.8.3/../../../../pic32mx/lib\liblega-c.a(sprintf_cdfFnopuxX.eo) (_do_print_cdfFnopuxX)
c:/program files (x86)/microchip/xc32/v2.30/bin/bin/../../lib/gcc/pic32mx/4.8.3/../../../../pic32mx/lib\liblega-c.a(_doprnt_fF.eo)
                              c:/program files (x86)/microchip/xc32/v2.30/bin/bin/../../lib/gcc/pic32mx/4.8.3/../../../../pic32mx/lib\liblega-c.a(sprintf_fF.eo) (_do_print_fF)
c:/program files (x86)/microchip/xc32/v2.30/bin/bin/../../lib/gcc/pic32mx/4.8.3/../../../../pic32mx/lib\liblega-c.a(_doprnt_fFs.eo)
                              c:/program files (x86)/microchip/xc32/v2.30/bin/bin/../../lib/gcc/pic32mx/4.8.3/../../../../pic32mx/lib\liblega-c.a(sprintf_fFs.eo) (_do_print_fFs)
c:/program files (x86)/microchip/xc32/v2.30/bin/bin/../../lib/gcc/pic32mx/4.8.3/../../../../pic32mx/lib\liblega-c.a(_iobdata.o)
                              c:/program files (x86)/microchip/xc32/v2.30/bin/bin/../../lib/gcc/pic32mx/4.8.3/../../../../pic32mx/lib\liblega-c.a(_doprnt_cdfFnopsuxX.eo) (_libc_data)
c:/program files (x86)/microchip/xc32/v2.30/bin/bin/../../lib/gcc/pic32mx/4.8.3/../../../../pic32mx/lib\liblega-c.a(_iobfuncs.o)
                              c:/program files (x86)/microchip/xc32/v2.30/bin/bin/../../lib/gcc/pic32mx/4.8.3/../../../../pic32mx/lib\liblega-c.a(_iobdata.o) (_filbuf_simple)
c:/program files (x86)/microchip/xc32/v2.30/bin/bin/../../lib/gcc/pic32mx/4.8.3/../../../../pic32mx/lib\liblega-c.a(_iobstring.o)
                              c:/program files (x86)/microchip/xc32/v2.30/bin/bin/../../lib/gcc/pic32mx/4.8.3/../../../../pic32mx/lib\liblega-c.a(sprintf_cdfFnopsuxX.eo) (_io_strfuncs)
c:/program files (x86)/microchip/xc32/v2.30/bin/bin/../../lib/gcc/pic32mx/4.8.3/../../../../pic32mx/lib\liblega-c.a(fputc.o)
                              c:/program files (x86)/microchip/xc32/v2.30/bin/bin/../../lib/gcc/pic32mx/4.8.3/../../../../pic32mx/lib\liblega-c.a(_doprnt_cdfFnopsuxX.eo) (fputc)
c:/program files (x86)/microchip/xc32/v2.30/bin/bin/../../lib/gcc/pic32mx/4.8.3/../../../../pic32mx/lib\libm.a(dptofp.o)
                              c:/program files (x86)/microchip/xc32/v2.30/bin/bin/../../lib/gcc/pic32mx/4.8.3/../../../../pic32mx/lib\liblega-c.a(_doprnt_cdfFnopsuxX.eo) (dptofp)
c:/program files (x86)/microchip/xc32/v2.30/bin/bin/../../lib/gcc/pic32mx/4.8.3/../../../../pic32mx/lib\libm.a(fp32div.o)
                              output\bme280.o (fpdiv)
c:/program files (x86)/microchip/xc32/v2.30/bin/bin/../../lib/gcc/pic32mx/4.8.3/../../../../pic32mx/lib\libm.a(fp32mul.o)
                              output\app.o (fpmul)
c:/program files (x86)/microchip/xc32/v2.30/bin/bin/../../lib/gcc/pic32mx/4.8.3/../../../../pic32mx/lib\libm.a(fp32subadd.o)
                              output\bme280.o (fpsub)
c:/program files (x86)/microchip/xc32/v2.30/bin/bin/../../lib/gcc/pic32mx/4.8.3/../../../../pic32mx/lib\libm.a(fpcmp.o)
                              output\app.o (fpcmp)
c:/program files (x86)/microchip/xc32/v2.30/bin/bin/../../lib/gcc/pic32mx/4.8.3/../../../../pic32mx/lib\libm.a(fpmodf.o)
                              c:/program files (x86)/microchip/xc32/v2.30/bin/bin/../../lib/gcc/pic32mx/4.8.3/../../../../pic32mx/lib\liblega-c.a(_doprnt_cdfFnopsuxX.eo) (modff)
c:/program files (x86)/microchip/xc32/v2.30/bin/bin/../../lib/gcc/pic32mx/4.8.3/../../../../pic32mx/lib\libm.a(fptoli.o)
                              c:/program files (x86)/microchip/xc32/v2.30/bin/bin/../../lib/gcc/pic32mx/4.8.3/../../../../pic32mx/lib\liblega-c.a(_doprnt_cdfFnopsuxX.eo) (fptosi)
c:/program files (x86)/microchip/xc32/v2.30/bin/bin/../../lib/gcc/pic32mx/4.8.3/../../../../pic32mx/lib\libm.a(fptoul.o)
                              output\ccs811.o (fptoui)
c:/program files (x86)/microchip/xc32/v2.30/bin/bin/../../lib/gcc/pic32mx/4.8.3/../../../../pic32mx/lib\libm.a(sitofp.o)
                              output\bme280.o (sitofp)
c:/program files (x86)/microchip/xc32/v2.30/bin/bin/../../lib/gcc/pic32mx/4.8.3/../../../../pic32mx/lib\libm.a(w_powf.o)
                              output\bme280.o (powf)
c:/program files (x86)/microchip/xc32/v2.30/bin/bin/../../lib/gcc/pic32mx/4.8.3/../../../../pic32mx/lib\libm.a(fppow32.o)
                              c:/program files (x86)/microchip/xc32/v2.30/bin/bin/../../lib/gcc/pic32mx/4.8.3/../../../../pic32mx/lib\libm.a(w_powf.o) (__mchp_powf)
c:/program files (x86)/microchip/xc32/v2.30/bin/bin/../../lib/gcc/pic32mx/4.8.3/../../../../pic32mx/lib\libm.a(fptodp.o)
                              c:/program files (x86)/microchip/xc32/v2.30/bin/bin/../../lib/gcc/pic32mx/4.8.3/../../../../pic32mx/lib\libm.a(w_powf.o) (fptodp)
c:/program files (x86)/microchip/xc32/v2.30/bin/bin/../../lib/gcc/pic32mx/4.8.3/../../../../pic32mx/lib\libm.a(s_lib_ver.o)
                              c:/program files (x86)/microchip/xc32/v2.30/bin/bin/../../lib/gcc/pic32mx/4.8.3/../../../../pic32mx/lib\libm.a(w_powf.o) (math_errhandling)
c:/program files (x86)/microchip/xc32/v2.30/bin/bin/../../lib/gcc/pic32mx/4.8.3/../../../../pic32mx/lib\libm.a(fpexlog.o)
                              c:/program files (x86)/microchip/xc32/v2.30/bin/bin/../../lib/gcc/pic32mx/4.8.3/../../../../pic32mx/lib\libm.a(fppow32.o) (fpexlog)
c:/program files (x86)/microchip/xc32/v2.30/bin/bin/../../lib/gcc/pic32mx/4.8.3/../../../../pic32mx/lib\libm.a(fpexp32.o)
                              c:/program files (x86)/microchip/xc32/v2.30/bin/bin/../../lib/gcc/pic32mx/4.8.3/../../../../pic32mx/lib\libm.a(fppow32.o) (fpexexp)
c:/program files (x86)/microchip/xc32/v2.30/bin/bin/../../lib/gcc/pic32mx/4.8.3\libgcc.a(_udivdi3.o)
                              c:/program files (x86)/microchip/xc32/v2.30/bin/bin/../../lib/gcc/pic32mx/4.8.3/../../../../pic32mx/lib\liblega-c.a(_doprnt_cdfFnopsuxX.eo) (__udivdi3)
c:/program files (x86)/microchip/xc32/v2.30/bin/bin/../../lib/gcc/pic32mx/4.8.3\libgcc.a(_umoddi3.o)
                              c:/program files (x86)/microchip/xc32/v2.30/bin/bin/../../lib/gcc/pic32mx/4.8.3/../../../../pic32mx/lib\liblega-c.a(_doprnt_cdfFnopsuxX.eo) (__umoddi3)
c:/program files (x86)/microchip/xc32/v2.30/bin/bin/../../lib/gcc/pic32mx/4.8.3/../../../../pic32mx/lib\libpic32.a(_mon_getc.o)
                              c:/program files (x86)/microchip/xc32/v2.30/bin/bin/../../lib/gcc/pic32mx/4.8.3/../../../../pic32mx/lib\liblega-c.a(_iobfuncs.o) (_mon_getc)
c:/program files (x86)/microchip/xc32/v2.30/bin/bin/../../lib/gcc/pic32mx/4.8.3/../../../../pic32mx/lib\libpic32.a(_mon_write.o)
                              c:/program files (x86)/microchip/xc32/v2.30/bin/bin/../../lib/gcc/pic32mx/4.8.3/../../../../pic32mx/lib\liblega-c.a(_iobfuncs.o) (_mon_write)
c:/program files (x86)/microchip/xc32/v2.30/bin/bin/../../lib/gcc/pic32mx/4.8.3/../../../../pic32mx/lib\libpic32.a(xc32_uart.o)
                              c:/program files (x86)/microchip/xc32/v2.30/bin/bin/../../lib/gcc/pic32mx/4.8.3/../../../../pic32mx/lib\libpic32.a(_mon_getc.o) (__XC_UART)
c:/program files (x86)/microchip/xc32/v2.30/bin/bin/../../lib/gcc/pic32mx/4.8.3/../../../../pic32mx/lib\libpic32.a(isinf.o)
                              c:/program files (x86)/microchip/xc32/v2.30/bin/bin/../../lib/gcc/pic32mx/4.8.3/../../../../pic32mx/lib\libm.a(w_powf.o) (isinfl)
c:/program files (x86)/microchip/xc32/v2.30/bin/bin/../../lib/gcc/pic32mx/4.8.3/../../../../pic32mx/lib\libpic32.a(_mon_putc.o)
                              c:/program files (x86)/microchip/xc32/v2.30/bin/bin/../../lib/gcc/pic32mx/4.8.3/../../../../pic32mx/lib\libpic32.a(_mon_write.o) (_mon_putc)
c:/program files (x86)/microchip/xc32/v2.30/bin/bin/../../lib/gcc/pic32mx/4.8.3/../../../../pic32mx/lib\libm.a(dpcmp.o)
                              c:/program files (x86)/microchip/xc32/v2.30/bin/bin/../../lib/gcc/pic32mx/4.8.3/../../../../pic32mx/lib\libpic32.a(isinf.o) (dpcmp)
c:/program files (x86)/microchip/xc32/v2.30/bin/bin/../../lib/gcc/pic32mx/4.8.3/../../../../pic32mx/lib\libe.a(_unorddf2.o)
                              c:/program files (x86)/microchip/xc32/v2.30/bin/bin/../../lib/gcc/pic32mx/4.8.3/../../../../pic32mx/lib\libpic32.a(isinf.o) (__unorddf2)

Allocating common symbols
Common symbol       size              file

app_thingspeak_reserve3Str
                    0x20              output\app_thingspeak.o
_return_addr        0x4               output\exceptions.o
adResults           0x6               output\ad.o
LED1_IO             0x1               output\custom_http_app.o
UDPTxCount          0x2               output\UDP.o
tempB               0x4               output\exceptions.o
curHTTP             0x8c              output\http2.o
tempA               0x4               output\exceptions.o
ccs811_meas_mode    0x1               output\ccs811.o
app_thingspeak_tx   0x100             output\app_thingspeak.o
sht31d_measurement_poll
                    0x4               output\sht31d.o
BUTTON3_IO          0x1               output\custom_http_app.o
eep_manager_write_all_trigger
                    0x24              output\eep_manager.o
_excep_code         0x4               output\exceptions.o
tempResult          0x4               output\exceptions.o
app_thingspeak_reserve2Str
                    0x20              output\app_thingspeak.o
RawWindowState      0x2               output\drv_wifi_raw.o
read_dee_page_size  0x4               output\dee_page.o
activeUDPSocket     0x1               output\UDP.o
app_thingspeak_server_ip
                    0x4               output\app_thingspeak.o
curHTTPID           0x1               output\http2.o
remoteNode          0xa               output\stack_task.o
app_thingspeak_get_string
                    0x100             output\app_thingspeak.o
RawMoveState        0x2               output\drv_wifi_com.o
app_thingspeak_rx   0x100             output\app_thingspeak.o
LED2_IO             0x1               output\custom_http_app.o
BUTTON1_IO          0x1               output\custom_http_app.o
read_dee_page       0x4               output\dee_page.o
dataEEFlags         0x4               output\dee.o
app_thingspeak_CO2Str
                    0x20              output\app_thingspeak.o
LED6_IO             0x1               output\custom_http_app.o
LED7_IO             0x1               output\custom_http_app.o
LED3_IO             0x1               output\custom_http_app.o
BUTTON2_IO          0x1               output\custom_http_app.o
BUTTON0_IO          0x1               output\custom_http_app.o
_excep_addr         0x4               output\exceptions.o
lastBlock           0x40              output\hashes.o
app_thingspeak_reserve1Str
                    0x20              output\app_thingspeak.o
ccs811_TempData     0x20              output\ccs811.o
AppConfig           0x9b              output\wifi.o
g_WpsPassphrase     0x63              output\wifi.o
RawWindowReady      0x2               output\drv_wifi_raw.o
g_rxIndexSetBeyondBuffer
                    0x1               output\drv_wifi_mac.o
sht31d_data         0x6               output\sht31d.o
app_thingspeak_humidityStr
                    0x20              output\app_thingspeak.o
app_thingspeak_temperatureStr
                    0x20              output\app_thingspeak.o
iic_master_multi_data
                    0x90              output\iic_master_multi.o
UDPRxCount          0x2               output\UDP.o
LED5_IO             0x1               output\custom_http_app.o
ccs811_status       0x1               output\ccs811.o
LED0_IO             0x1               output\custom_http_app.o
dee_debug_page_status
                    0xc               output\dee_page.o
UDPSocketInfo       0xe0              output\UDP.o
ConnectionProfileID
                    0x1               output\wifi.o
app_thingspeak_pressureStr
                    0x20              output\app_thingspeak.o
httpStubs           0x10              output\http2.o
ccs811_error_id     0x1               output\ccs811.o
read_dee_page_startaddress
                    0x4               output\dee_page.o
app_thingspeak_timeout
                    0x4               output\app_thingspeak.o
LED4_IO             0x1               output\custom_http_app.o
app_thingspeak_LiPoVoltageStr
                    0x20              output\app_thingspeak.o
myRingBuffer_app_thingspeak_tx
                    0x18              output\app_thingspeak.o
loopCntHistory      0xf0              output\main.o
sht31d_measurement_tmr
                    0x4               output\sht31d.o
g_rxDtim            0x1               output\drv_wifi_power_save.o
eep_manager_debug_address
                    0x24              output\eep_manager.o
t_fine              0x4               output\bme280.o
myRingBuffer_app_thingspeak_rx
                    0x18              output\app_thingspeak.o

Microchip PIC32 Memory-Usage Report

kseg0 Program-Memory Usage
section                    address  length [bytes]      (dec)  Description
-------                 ----------  -------------------------  -----------
.text                   0x9d011490         0x1c90        7312  App's exec code 
.text                   0x9d013120         0x19c4        6596  App's exec code 
.text                   0x9d014ae4         0x15e8        5608  App's exec code 
.text._do_print_cdfFnop 0x9d0160cc          0xab4        2740   
.text                   0x9d016b80         0x13cc        5068  App's exec code 
.text                   0x9d017f4c         0x113c        4412  App's exec code 
.text                   0x9d019088          0x7b8        1976  App's exec code 
.dinit                  0x9d019840          0x790        1936   
.text                   0x9d019fd0          0xe64        3684  App's exec code 
.text                   0x9d01ae34          0xd4c        3404  App's exec code 
.text                   0x9d01bb80          0xc58        3160  App's exec code 
.text._fconvert         0x9d01c7d8          0x5e0        1504   
.text                   0x9d01cdb8          0x584        1412  App's exec code 
.rodata                 0x9d01d33c          0x530        1328  Read-only const 
.text                   0x9d01d86c          0x9f8        2552  App's exec code 
.text                   0x9d01e264          0x924        2340  App's exec code 
.text                   0x9d01eb88          0x8bc        2236  App's exec code 
.text                   0x9d01f444          0x884        2180  App's exec code 
.text.libm              0x9d01fcc8          0x408        1032   
.text                   0x9d0200d0          0x7a4        1956  App's exec code 
.text                   0x9d020874          0x708        1800  App's exec code 
.text                   0x9d020f7c          0x6a0        1696  App's exec code 
.text                   0x9d02161c          0x318         792  App's exec code 
.rodata                 0x9d021934          0x314         788  Read-only const 
.text                   0x9d021c48          0x618        1560  App's exec code 
.text.libm              0x9d022260          0x2b4         692   
.text                   0x9d022514          0x290         656  App's exec code 
.text.strtol            0x9d0227a4          0x27c         636   
.text                   0x9d022a20          0x278         632  App's exec code 
.text.fpsubadd          0x9d022c98          0x278         632   
.text                   0x9d022f10          0x4d0        1232  App's exec code 
.text                   0x9d0233e0          0x478        1144  App's exec code 
.text                   0x9d023858          0x234         564  App's exec code 
.text.fp32div           0x9d023a8c          0x230         560   
.text                   0x9d023cbc          0x40c        1036  App's exec code 
.text                   0x9d0240c8          0x3ec        1004  App's exec code 
.text                   0x9d0244b4          0x1dc         476  App's exec code 
.text.fp32mul           0x9d024690          0x1bc         444   
.text                   0x9d02484c          0x344         836  App's exec code 
.text                   0x9d024b90          0x2e8         744  App's exec code 
.text                   0x9d024e78          0x2d0         720  App's exec code 
.text.powf              0x9d025148          0x148         328   
.rodata                 0x9d025290          0x140         320  Read-only const 
.text                   0x9d0253d0          0x13c         316  App's exec code 
.text._outcnvrt         0x9d02550c          0x13c         316   
.text                   0x9d025648          0x138         312  App's exec code 
.text.dpcmp             0x9d025780          0x12c         300   
.text                   0x9d0258ac          0x23c         572  App's exec code 
.text._NVMOperation     0x9d025ae8          0x114         276   
.text.PowerSaveIdle     0x9d025bfc          0x110         272   
.text.PowerSaveSleep    0x9d025d0c          0x110         272   
.text                   0x9d025e1c          0x108         264  App's exec code 
.rodata                 0x9d025f24          0x204         516  Read-only const 
.text.strncpy           0x9d026128          0x100         256   
.text.dptofp            0x9d026228          0x100         256   
.text._flsbuf_simple    0x9d026328           0xfc         252   
.text                   0x9d026424          0x1dc         476  App's exec code 
.text                   0x9d026600           0xe4         228  App's exec code 
.text._mon_getc         0x9d0266e4           0xe4         228   
.text.general_exception 0x9d0267c8           0xdc         220   
.text                   0x9d0268a4           0xd8         216  App's exec code 
.text.libm              0x9d02697c           0xd4         212   
.text._mon_putc         0x9d026a50           0xd4         212   
.rodata                 0x9d026b24          0x184         388  Read-only const 
.text                   0x9d026ca8           0xb0         176  App's exec code 
.text.fputc             0x9d026d58           0xac         172   
.text.fptodp            0x9d026e04           0xac         172   
.text                   0x9d026eb0           0xa8         168  App's exec code 
.rodata                 0x9d026f58           0xa4         164  Read-only const 
.text.repl              0x9d026ffc           0x9c         156   
.text.fpcmp             0x9d027098           0x9c         156   
.text                   0x9d027134          0x130         304  App's exec code 
.text.isinf             0x9d027264           0x8c         140   
.text.isinff            0x9d0272f0           0x8c         140   
.text                   0x9d02737c          0x108         264  App's exec code 
.text._fflush_simple    0x9d027484           0x80         128   
.text._fwrite_simple    0x9d027504           0x80         128   
.text.fptoli            0x9d027584           0x80         128   
.text.SoftReset         0x9d027604           0x7c         124   
.text.fptoul            0x9d027680           0x7c         124   
.rodata                 0x9d0276fc            0x4           4  Read-only const 
.text                   0x9d027700           0x70         112  App's exec code 
.text._sprintf_cdfFnops 0x9d027770           0x6c         108   
.text                   0x9d0277dc           0x68         104  App's exec code 
.text.__sputn           0x9d027844           0x68         104   
.rodata                 0x9d0278ac           0x68         104  Read-only const 
.text.__unorddf2        0x9d027914           0x64         100   
.text.sitofp            0x9d027978           0x60          96   
.text.main_entry        0x9d0279d8           0x54          84   
.text                   0x9d027a2c           0x4c          76  App's exec code 
.text._mon_write        0x9d027a78           0x4c          76   
.text._bootstrap_except 0x9d027ac4           0x48          72   
.vector_default         0x9d027b0c           0x48          72   
.text                   0x9d027b54           0x44          68  App's exec code 
.text.NVMWriteWord      0x9d027b98           0x34          52   
.text._filbuf_simple    0x9d027bcc           0x34          52   
.text.isnan             0x9d027c00           0x34          52   
.text.isnanf            0x9d027c34           0x34          52   
.text._fsync_simple     0x9d027c68           0x30          48   
.text.NVMErasePage      0x9d027c98           0x2c          44   
.text.isnanl            0x9d027cc4           0x28          40   
.text.isinfl            0x9d027cec           0x28          40   
.text.putchar           0x9d027d14           0x24          36   
.rodata                 0x9d027d38           0x40          64  Read-only const 
.text.atol              0x9d027d78           0x20          32   
.rodata                 0x9d027d98           0x38          56  Read-only const 
.text.INTRestoreInterru 0x9d027dd0           0x1c          28   
.text._vfprintf_cdfFnop 0x9d027dec           0x1c          28   
.text.putc              0x9d027e08           0x1c          28   
.text.CheKseg0CacheOff  0x9d027e24           0x18          24   
.text.CheKseg0CacheOn   0x9d027e3c           0x18          24   
.text                   0x9d027e54           0x18          24  App's exec code 
.rodata                 0x9d027e6c           0x14          20  Read-only const 
.text._io_exit          0x9d027e80           0x14          20   
.rodata                 0x9d027e94           0x14          20  Read-only const 
.text._io_exit          0x9d027ea8           0x14          20   
.rodata                 0x9d027ebc           0x14          20  Read-only const 
.rodata                 0x9d027ed0           0x20          32  Read-only const 
.rodata                 0x9d027ef0           0x1c          28  Read-only const 
.rodata                 0x9d027f0c           0x10          16  Read-only const 
.rodata                 0x9d027f1c            0x8           8  Read-only const 
.text                   0x9d027f24            0x8           8  App's exec code 
.text.INTDisableInterru 0x9d027f2c            0x8           8   
.text._on_reset         0x9d027f34            0x8           8   
.text._on_bootstrap     0x9d027f3c            0x8           8   
.text._filbuf_string    0x9d027f44            0x8           8   
.text._flsbuf_string    0x9d027f4c            0x8           8   
.text._fflush_string    0x9d027f54            0x8           8   
.text._fwrite_string    0x9d027f5c            0x8           8   
.text._fsync_string     0x9d027f64            0x8           8   
.rodata                 0x9d027f6c            0x4           4  Read-only const 
.rodata                 0x9d027f70            0x8           8  Read-only const 
.rodata                 0x9d027f78            0x8           8  Read-only const 
_0742ed2060869fef       0x9d030000         0x9000       36864   
.text                   0x9d039000         0x531c       21276  App's exec code 
.text                   0x9d03e31c         0x18cc        6348  App's exec code 
.text                   0x9d03fbe8          0x408        1032  App's exec code 
.rodata                 0x9d03fff0           0x10          16  Read-only const 
      Total kseg0_program_mem used  :     0x26af0      158448  82.8% of 0x2eb70

kseg0 Boot-Memory Usage
section                    address  length [bytes]      (dec)  Description
-------                 ----------  -------------------------  -----------
         Total kseg0_boot_mem used  :           0           0  

Exception-Memory Usage 
section                    address  length [bytes]      (dec)  Description
-------                 ----------  -------------------------  -----------
_075dc5a060869fee       0x9d010100            0xc          12   
_075dc66060869fee       0x9d010120            0xc          12   
_075dc72060869fee       0x9d010140           0x20          32   
.app_excpt              0x9d010180           0x10          16  General-Exception 
.vector_0               0x9d010200            0x8           8  Interrupt Vector 0 
.vector_1               0x9d010220            0x8           8  Interrupt Vector 1 
.vector_2               0x9d010240            0x8           8  Interrupt Vector 2 
.vector_3               0x9d010260            0x8           8  Interrupt Vector 3 
.vector_4               0x9d010280            0x8           8  Interrupt Vector 4 
.vector_5               0x9d0102a0            0x8           8  Interrupt Vector 5 
.vector_6               0x9d0102c0            0x8           8  Interrupt Vector 6 
.vector_7               0x9d0102e0            0x8           8  Interrupt Vector 7 
.vector_8               0x9d010300            0x8           8  Interrupt Vector 8 
.vector_9               0x9d010320            0x8           8  Interrupt Vector 9 
.vector_10              0x9d010340            0x8           8  Interrupt Vector 10 
.vector_11              0x9d010360            0x8           8  Interrupt Vector 11 
.vector_12              0x9d010380            0x8           8  Interrupt Vector 12 
.vector_13              0x9d0103a0            0x8           8  Interrupt Vector 13 
.vector_14              0x9d0103c0            0x8           8  Interrupt Vector 14 
.vector_15              0x9d0103e0            0x8           8  Interrupt Vector 15 
.vector_16              0x9d010400            0x8           8  Interrupt Vector 16 
.vector_17              0x9d010420            0x8           8  Interrupt Vector 17 
.vector_18              0x9d010440            0x8           8  Interrupt Vector 18 
.vector_19              0x9d010460            0x8           8  Interrupt Vector 19 
.vector_20              0x9d010480            0x8           8  Interrupt Vector 20 
.vector_21              0x9d0104a0            0x8           8  Interrupt Vector 21 
.vector_22              0x9d0104c0            0x8           8  Interrupt Vector 22 
.vector_23              0x9d0104e0            0x8           8  Interrupt Vector 23 
.vector_24              0x9d010500            0x8           8  Interrupt Vector 24 
.vector_25              0x9d010520            0x8           8  Interrupt Vector 25 
.vector_26              0x9d010540            0x8           8  Interrupt Vector 26 
.vector_27              0x9d010560            0x8           8  Interrupt Vector 27 
.vector_28              0x9d010580            0x8           8  Interrupt Vector 28 
.vector_29              0x9d0105a0            0x8           8  Interrupt Vector 29 
.vector_30              0x9d0105c0            0x8           8  Interrupt Vector 30 
.vector_31              0x9d0105e0            0x8           8  Interrupt Vector 31 
.vector_32              0x9d010600            0x8           8  Interrupt Vector 32 
.vector_33              0x9d010620            0x8           8  Interrupt Vector 33 
.vector_34              0x9d010640            0x8           8  Interrupt Vector 34 
.vector_35              0x9d010660            0x8           8  Interrupt Vector 35 
.vector_36              0x9d010680            0x8           8  Interrupt Vector 36 
.vector_37              0x9d0106a0            0x8           8  Interrupt Vector 37 
.vector_38              0x9d0106c0            0x8           8  Interrupt Vector 38 
.vector_39              0x9d0106e0            0x8           8  Interrupt Vector 39 
.vector_40              0x9d010700            0x8           8  Interrupt Vector 40 
.vector_41              0x9d010720            0x8           8  Interrupt Vector 41 
.vector_42              0x9d010740            0x8           8  Interrupt Vector 42 
.vector_43              0x9d010760            0x8           8  Interrupt Vector 43 
.vector_44              0x9d010780            0x8           8  Interrupt Vector 44 
.vector_45              0x9d0107a0            0x8           8  Interrupt Vector 45 
          Total exception_mem used  :       0x1b8         440  10.7% of 0x1000

kseg1 Boot-Memory Usage
section                    address  length [bytes]      (dec)  Description
-------                 ----------  -------------------------  -----------
.reset                  0x9d011000          0x19c         412  Reset handler 
.bev_excpt              0x9d011380           0x10          16  BEV-Exception 
         Total kseg1_boot_mem used  :       0x1ac         428  36.6% of 0x490
        --------------------------------------------------------------------------
         Total Program Memory used  :     0x26e54      159316  81.0% of 0x30000
        --------------------------------------------------------------------------


kseg1 Data-Memory Usage
section                    address  length [bytes]      (dec)  Description
-------                 ----------  -------------------------  -----------
.sdata                  0xa0001008           0x68         104  Small init data 
.sbss                   0xa0001070          0x330         816  Small uninit data 
.bss                    0xa00013a0          0x8ec        2284  Uninitialized data 
.bss                    0xa0001c8c          0x104         260  Uninitialized data 
.data                   0xa0001d90          0x188         392  Initialized data 
.data                   0xa0001f18           0x8c         140  Initialized data 
.bss                    0xa0001fa4           0x88         136  Uninitialized data 
.data                   0xa000202c           0x84         132  Initialized data 
.bss                    0xa00020b0           0xd4         212  Uninitialized data 
.bss                    0xa0002184           0x34          52  Uninitialized data 
.data                   0xa00021b8           0x2c          44  Initialized data 
.bss                    0xa00021e4           0x20          32  Uninitialized data 
.data                   0xa0002204           0x1c          28  Initialized data 
.bss                    0xa0002220           0x18          24  Uninitialized data 
.data                   0xa0002238           0x14          20  Initialized data 
.bss                    0xa000224c           0x18          24  Uninitialized data 
.data.math_errhandling_ 0xa0002264            0x4           4   
         Total kseg1_data_mem used  :      0x1260        4704  16.4% of 0x7000
        --------------------------------------------------------------------------
            Total Data Memory used  :      0x1260        4704  16.4% of 0x7000
        --------------------------------------------------------------------------


Dynamic Data-Memory Reservation
section                    address  length [bytes]      (dec)  Description
-------                 ----------  -------------------------  -----------
heap                    0xa0002270           0x10          16  Reserved for heap 
stack                   0xa0002298         0x5d60       23904  Reserved for stack 

        --------------------------------------------------------------------------

Discarded input sections

 .reginfo       0x00000000       0x18 output\main.o
 .reginfo       0x00000000       0x18 output\bootloader_interface.o
 .reginfo       0x00000000       0x18 output\app.o
 .reginfo       0x00000000       0x18 output\ad.o
 .reginfo       0x00000000       0x18 output\isr.o
 .reginfo       0x00000000       0x18 output\exceptions.o
 .reginfo       0x00000000       0x18 output\mal.o
 .reginfo       0x00000000       0x18 output\noinitram.o
 .reginfo       0x00000000       0x18 output\stackmeasure.o
 .reginfo       0x00000000       0x18 output\stackmeasure_helper.o
 .reginfo       0x00000000       0x18 output\tmr.o
 .reginfo       0x00000000       0x18 output\sleep.o
 .reginfo       0x00000000       0x18 output\eeprom.o
 .reginfo       0x00000000       0x18 output\dee_page_helper.o
 .reginfo       0x00000000       0x18 output\dee_page.o
 .reginfo       0x00000000       0x18 output\dee.o
 .reginfo       0x00000000       0x18 output\eep_manager_crc.o
 .reginfo       0x00000000       0x18 output\eep_manager.o
 .reginfo       0x00000000       0x18 output\c_eep_manager.o
 .reginfo       0x00000000       0x18 output\bme280.o
 .reginfo       0x00000000       0x18 output\bme280_conversion.o
 .reginfo       0x00000000       0x18 output\ccs811.o
 .reginfo       0x00000000       0x18 output\iic_master.o
 .reginfo       0x00000000       0x18 output\iic_master_multi.o
 .reginfo       0x00000000       0x18 output\wifi.o
 .reginfo       0x00000000       0x18 output\UDP.o
 .reginfo       0x00000000       0x18 output\Tick.o
 .reginfo       0x00000000       0x18 output\tcp.o
 .reginfo       0x00000000       0x18 output\stack_task.o
 .reginfo       0x00000000       0x18 output\ssl.o
 .reginfo       0x00000000       0x18 output\sntp.o
 .reginfo       0x00000000       0x18 output\smtp_demo.o
 .reginfo       0x00000000       0x18 output\smtp.o
 .reginfo       0x00000000       0x18 output\rsa.o
 .reginfo       0x00000000       0x18 output\reboot.o
 .reginfo       0x00000000       0x18 output\random.o
 .reginfo       0x00000000       0x18 output\nbns.o
 .reginfo       0x00000000       0x18 output\mpfs2.o
 .reginfo       0x00000000       0x18 output\IP.o
 .reginfo       0x00000000       0x18 output\icmp.o
 .reginfo       0x00000000       0x18 output\http2.o
 .reginfo       0x00000000       0x18 output\Helpers.o
 .reginfo       0x00000000       0x18 output\hashes.o
 .reginfo       0x00000000       0x18 output\drv_wifi_spi.o
 .reginfo       0x00000000       0x18 output\drv_wifi_raw.o
 .reginfo       0x00000000       0x18 output\drv_wifi_power_save.o
 .reginfo       0x00000000       0x18 output\drv_wifi_pbkdf2.o
 .reginfo       0x00000000       0x18 output\drv_wifi_param_msg.o
 .reginfo       0x00000000       0x18 output\drv_wifi_mgmt_msg.o
 .reginfo       0x00000000       0x18 output\drv_wifi_mac.o
 .reginfo       0x00000000       0x18 output\drv_wifi_init.o
 .reginfo       0x00000000       0x18 output\drv_wifi_event_handler.o
 .reginfo       0x00000000       0x18 output\drv_wifi_eint.o
 .reginfo       0x00000000       0x18 output\drv_wifi_debug_strings.o
 .reginfo       0x00000000       0x18 output\drv_wifi_connection_profile.o
 .reginfo       0x00000000       0x18 output\drv_wifi_connection_manager.o
 .reginfo       0x00000000       0x18 output\drv_wifi_connection_algorithm.o
 .reginfo       0x00000000       0x18 output\drv_wifi_config.o
 .reginfo       0x00000000       0x18 output\drv_wifi_com.o
 .reginfo       0x00000000       0x18 output\dns_client.o
 .reginfo       0x00000000       0x18 output\dhcp_client.o
 .reginfo       0x00000000       0x18 output\Delay.o
 .reginfo       0x00000000       0x18 output\custom_ssl_cert.o
 .reginfo       0x00000000       0x18 output\custom_http_app.o
 .reginfo       0x00000000       0x18 output\big_int.o
 .reginfo       0x00000000       0x18 output\ARP.o
 .reginfo       0x00000000       0x18 output\arc4.o
 .reginfo       0x00000000       0x18 output\announce.o
 .reginfo       0x00000000       0x18 output\mpfs_img2.o
 .reginfo       0x00000000       0x18 output\http_print.o
 .reginfo       0x00000000       0x18 output\http_get.o
 .reginfo       0x00000000       0x18 output\app_thingspeak.o
 .reginfo       0x00000000       0x18 output\ringBuffer.o
 .reginfo       0x00000000       0x18 output\sht31d.o
 .reginfo       0x00000000       0x18 c:/program files (x86)/microchip/xc32/v2.30/bin/bin/../../lib/gcc/pic32mx/4.8.3/../../../../pic32mx/lib/./proc/32MX440F256H\processor.o
 .reginfo       0x00000000       0x18 c:/program files (x86)/microchip/xc32/v2.30/bin/bin/../../lib/gcc/pic32mx/4.8.3/../../../../pic32mx/lib\libmchp_peripheral_32MX440F256H.a(soft_reset_lib.o)
 .reginfo       0x00000000       0x18 c:/program files (x86)/microchip/xc32/v2.30/bin/bin/../../lib/gcc/pic32mx/4.8.3/../../../../pic32mx/lib\libmchp_peripheral_32MX440F256H.a(pcache.o)
 .reginfo       0x00000000       0x18 c:/program files (x86)/microchip/xc32/v2.30/bin/bin/../../lib/gcc/pic32mx/4.8.3/../../../../pic32mx/lib\libmchp_peripheral_32MX440F256H.a(int_disable_interrupts_lib.o)
 .reginfo       0x00000000       0x18 c:/program files (x86)/microchip/xc32/v2.30/bin/bin/../../lib/gcc/pic32mx/4.8.3/../../../../pic32mx/lib\libmchp_peripheral_32MX440F256H.a(power_idle_lib.o)
 .reginfo       0x00000000       0x18 c:/program files (x86)/microchip/xc32/v2.30/bin/bin/../../lib/gcc/pic32mx/4.8.3/../../../../pic32mx/lib\libmchp_peripheral_32MX440F256H.a(power_sleep_lib.o)
 .reginfo       0x00000000       0x18 c:/program files (x86)/microchip/xc32/v2.30/bin/bin/../../lib/gcc/pic32mx/4.8.3/../../../../pic32mx/lib\libmchp_peripheral_32MX440F256H.a(nvm_erase_page_lib.o)
 .reginfo       0x00000000       0x18 c:/program files (x86)/microchip/xc32/v2.30/bin/bin/../../lib/gcc/pic32mx/4.8.3/../../../../pic32mx/lib\libmchp_peripheral_32MX440F256H.a(nvm_operation_lib.o)
 .reginfo       0x00000000       0x18 c:/program files (x86)/microchip/xc32/v2.30/bin/bin/../../lib/gcc/pic32mx/4.8.3/../../../../pic32mx/lib\libmchp_peripheral_32MX440F256H.a(nvm_write_word_lib.o)
 .reginfo       0x00000000       0x18 c:/program files (x86)/microchip/xc32/v2.30/bin/bin/../../lib/gcc/pic32mx/4.8.3/../../../../pic32mx/lib\libmchp_peripheral_32MX440F256H.a(int_restore_interrupts_lib.o)
 .reginfo       0x00000000       0x18 C:\Users\kyrk\AppData\Local\Temp\cc2qO3z7.o
 .reginfo       0x00000000       0x18 C:\Users\kyrk\AppData\Local\Temp\ccjKzsZ9.o
 .reginfo       0x00000000       0x18 C:\Users\kyrk\AppData\Local\Temp\ccKOqrbg.o
 .discard       0x00000000       0xb8 C:\Users\kyrk\AppData\Local\Temp\ccKOqrbg.o
 .reginfo       0x00000000       0x18 c:/program files (x86)/microchip/xc32/v2.30/bin/bin/../../lib/gcc/pic32mx/4.8.3/../../../../pic32mx/lib/./proc/32MX440F256H\default_isr_vectors.o
 .discard       0x00000000       0xb8 c:/program files (x86)/microchip/xc32/v2.30/bin/bin/../../lib/gcc/pic32mx/4.8.3/../../../../pic32mx/lib/./proc/32MX440F256H\default_isr_vectors.o
 .reginfo       0x00000000       0x18 c:/program files (x86)/microchip/xc32/v2.30/bin/bin/../../lib/gcc/pic32mx/4.8.3/../../../../pic32mx/lib\pic32_software_reset.o
 .reginfo       0x00000000       0x18 c:/program files (x86)/microchip/xc32/v2.30/bin/bin/../../lib/gcc/pic32mx/4.8.3\libgcc.a(_divdi3.o)
 .reginfo       0x00000000       0x18 c:/program files (x86)/microchip/xc32/v2.30/bin/bin/../../lib/gcc/pic32mx/4.8.3\libgcc.a(floatunsisf.o)
 .reginfo       0x00000000       0x18 c:/program files (x86)/microchip/xc32/v2.30/bin/bin/../../lib/gcc/pic32mx/4.8.3/../../../../pic32mx/lib\libpic32.a(memcmp.o)
 .reginfo       0x00000000       0x18 c:/program files (x86)/microchip/xc32/v2.30/bin/bin/../../lib/gcc/pic32mx/4.8.3/../../../../pic32mx/lib\libpic32.a(memcpy.o)
 .reginfo       0x00000000       0x18 c:/program files (x86)/microchip/xc32/v2.30/bin/bin/../../lib/gcc/pic32mx/4.8.3/../../../../pic32mx/lib\libpic32.a(memset.o)
 .reginfo       0x00000000       0x18 c:/program files (x86)/microchip/xc32/v2.30/bin/bin/../../lib/gcc/pic32mx/4.8.3/../../../../pic32mx/lib\libpic32.a(strcmp.o)
 .reginfo       0x00000000       0x18 c:/program files (x86)/microchip/xc32/v2.30/bin/bin/../../lib/gcc/pic32mx/4.8.3/../../../../pic32mx/lib\libpic32.a(strcpy.o)
 .reginfo       0x00000000       0x18 c:/program files (x86)/microchip/xc32/v2.30/bin/bin/../../lib/gcc/pic32mx/4.8.3/../../../../pic32mx/lib\libpic32.a(strlen.o)
 .reginfo       0x00000000       0x18 c:/program files (x86)/microchip/xc32/v2.30/bin/bin/../../lib/gcc/pic32mx/4.8.3/../../../../pic32mx/lib\libpic32.a(default-bootstrap-exception-handler.o)
 .reginfo       0x00000000       0x18 c:/program files (x86)/microchip/xc32/v2.30/bin/bin/../../lib/gcc/pic32mx/4.8.3/../../../../pic32mx/lib\libpic32.a(default-on-reset.o)
 .reginfo       0x00000000       0x18 c:/program files (x86)/microchip/xc32/v2.30/bin/bin/../../lib/gcc/pic32mx/4.8.3/../../../../pic32mx/lib\libpic32.a(default-on-bootstrap.o)
 .reginfo       0x00000000       0x18 c:/program files (x86)/microchip/xc32/v2.30/bin/bin/../../lib/gcc/pic32mx/4.8.3/../../../../pic32mx/lib\libpic32.a(default-nmi-handler.o)
 .reginfo       0x00000000       0x18 c:/program files (x86)/microchip/xc32/v2.30/bin/bin/../../lib/gcc/pic32mx/4.8.3/../../../../pic32mx/lib\libpic32.a(pic32_data_init.o)
 .reginfo       0x00000000       0x18 c:/program files (x86)/microchip/xc32/v2.30/bin/bin/../../lib/gcc/pic32mx/4.8.3/../../../../pic32mx/lib\libpic32.a(general-exception.o)
 .reginfo       0x00000000       0x18 c:/program files (x86)/microchip/xc32/v2.30/bin/bin/../../lib/gcc/pic32mx/4.8.3/../../../../pic32mx/lib\libpic32.a(vector1.o)
 .reginfo       0x00000000       0x18 c:/program files (x86)/microchip/xc32/v2.30/bin/bin/../../lib/gcc/pic32mx/4.8.3/../../../../pic32mx/lib\libpic32.a(vector2.o)
 .reginfo       0x00000000       0x18 c:/program files (x86)/microchip/xc32/v2.30/bin/bin/../../lib/gcc/pic32mx/4.8.3/../../../../pic32mx/lib\libpic32.a(vector3.o)
 .reginfo       0x00000000       0x18 c:/program files (x86)/microchip/xc32/v2.30/bin/bin/../../lib/gcc/pic32mx/4.8.3/../../../../pic32mx/lib\libpic32.a(vector5.o)
 .reginfo       0x00000000       0x18 c:/program files (x86)/microchip/xc32/v2.30/bin/bin/../../lib/gcc/pic32mx/4.8.3/../../../../pic32mx/lib\libpic32.a(vector6.o)
 .reginfo       0x00000000       0x18 c:/program files (x86)/microchip/xc32/v2.30/bin/bin/../../lib/gcc/pic32mx/4.8.3/../../../../pic32mx/lib\libpic32.a(vector7.o)
 .reginfo       0x00000000       0x18 c:/program files (x86)/microchip/xc32/v2.30/bin/bin/../../lib/gcc/pic32mx/4.8.3/../../../../pic32mx/lib\libpic32.a(vector9.o)
 .reginfo       0x00000000       0x18 c:/program files (x86)/microchip/xc32/v2.30/bin/bin/../../lib/gcc/pic32mx/4.8.3/../../../../pic32mx/lib\libpic32.a(vector10.o)
 .reginfo       0x00000000       0x18 c:/program files (x86)/microchip/xc32/v2.30/bin/bin/../../lib/gcc/pic32mx/4.8.3/../../../../pic32mx/lib\libpic32.a(vector11.o)
 .reginfo       0x00000000       0x18 c:/program files (x86)/microchip/xc32/v2.30/bin/bin/../../lib/gcc/pic32mx/4.8.3/../../../../pic32mx/lib\libpic32.a(vector13.o)
 .reginfo       0x00000000       0x18 c:/program files (x86)/microchip/xc32/v2.30/bin/bin/../../lib/gcc/pic32mx/4.8.3/../../../../pic32mx/lib\libpic32.a(vector14.o)
 .reginfo       0x00000000       0x18 c:/program files (x86)/microchip/xc32/v2.30/bin/bin/../../lib/gcc/pic32mx/4.8.3/../../../../pic32mx/lib\libpic32.a(vector17.o)
 .reginfo       0x00000000       0x18 c:/program files (x86)/microchip/xc32/v2.30/bin/bin/../../lib/gcc/pic32mx/4.8.3/../../../../pic32mx/lib\libpic32.a(vector18.o)
 .reginfo       0x00000000       0x18 c:/program files (x86)/microchip/xc32/v2.30/bin/bin/../../lib/gcc/pic32mx/4.8.3/../../../../pic32mx/lib\libpic32.a(vector19.o)
 .reginfo       0x00000000       0x18 c:/program files (x86)/microchip/xc32/v2.30/bin/bin/../../lib/gcc/pic32mx/4.8.3/../../../../pic32mx/lib\libpic32.a(vector21.o)
 .reginfo       0x00000000       0x18 c:/program files (x86)/microchip/xc32/v2.30/bin/bin/../../lib/gcc/pic32mx/4.8.3/../../../../pic32mx/lib\libpic32.a(vector22.o)
 .reginfo       0x00000000       0x18 c:/program files (x86)/microchip/xc32/v2.30/bin/bin/../../lib/gcc/pic32mx/4.8.3/../../../../pic32mx/lib\libpic32.a(vector23.o)
 .reginfo       0x00000000       0x18 c:/program files (x86)/microchip/xc32/v2.30/bin/bin/../../lib/gcc/pic32mx/4.8.3/../../../../pic32mx/lib\libpic32.a(vector27.o)
 .reginfo       0x00000000       0x18 c:/program files (x86)/microchip/xc32/v2.30/bin/bin/../../lib/gcc/pic32mx/4.8.3/../../../../pic32mx/lib\libpic32.a(vector28.o)
 .reginfo       0x00000000       0x18 c:/program files (x86)/microchip/xc32/v2.30/bin/bin/../../lib/gcc/pic32mx/4.8.3/../../../../pic32mx/lib\libpic32.a(vector29.o)
 .reginfo       0x00000000       0x18 c:/program files (x86)/microchip/xc32/v2.30/bin/bin/../../lib/gcc/pic32mx/4.8.3/../../../../pic32mx/lib\libpic32.a(vector30.o)
 .reginfo       0x00000000       0x18 c:/program files (x86)/microchip/xc32/v2.30/bin/bin/../../lib/gcc/pic32mx/4.8.3/../../../../pic32mx/lib\libpic32.a(vector34.o)
 .reginfo       0x00000000       0x18 c:/program files (x86)/microchip/xc32/v2.30/bin/bin/../../lib/gcc/pic32mx/4.8.3/../../../../pic32mx/lib\libpic32.a(vector35.o)
 .reginfo       0x00000000       0x18 c:/program files (x86)/microchip/xc32/v2.30/bin/bin/../../lib/gcc/pic32mx/4.8.3/../../../../pic32mx/lib\libpic32.a(vector40.o)
 .reginfo       0x00000000       0x18 c:/program files (x86)/microchip/xc32/v2.30/bin/bin/../../lib/gcc/pic32mx/4.8.3/../../../../pic32mx/lib\libpic32.a(vector41.o)
 .reginfo       0x00000000       0x18 c:/program files (x86)/microchip/xc32/v2.30/bin/bin/../../lib/gcc/pic32mx/4.8.3/../../../../pic32mx/lib\libpic32.a(vector42.o)
 .reginfo       0x00000000       0x18 c:/program files (x86)/microchip/xc32/v2.30/bin/bin/../../lib/gcc/pic32mx/4.8.3/../../../../pic32mx/lib\libpic32.a(vector43.o)
 .reginfo       0x00000000       0x18 c:/program files (x86)/microchip/xc32/v2.30/bin/bin/../../lib/gcc/pic32mx/4.8.3/../../../../pic32mx/lib\libpic32.a(vector44.o)
 .reginfo       0x00000000       0x18 c:/program files (x86)/microchip/xc32/v2.30/bin/bin/../../lib/gcc/pic32mx/4.8.3/../../../../pic32mx/lib\libpic32.a(defaultinterrupt.o)
 .reginfo       0x00000000       0x18 c:/program files (x86)/microchip/xc32/v2.30/bin/bin/../../lib/gcc/pic32mx/4.8.3/../../../../pic32mx/lib\liblega-c.a(strncpy.o)
 .reginfo       0x00000000       0x18 c:/program files (x86)/microchip/xc32/v2.30/bin/bin/../../lib/gcc/pic32mx/4.8.3/../../../../pic32mx/lib\liblega-c.a(atol.o)
 .reginfo       0x00000000       0x18 c:/program files (x86)/microchip/xc32/v2.30/bin/bin/../../lib/gcc/pic32mx/4.8.3/../../../../pic32mx/lib\liblega-c.a(strtol.o)
 .reginfo       0x00000000       0x18 c:/program files (x86)/microchip/xc32/v2.30/bin/bin/../../lib/gcc/pic32mx/4.8.3/../../../../pic32mx/lib\liblega-c.a(sprintf_cdfFnopsuxX.eo)
 .reginfo       0x00000000       0x18 c:/program files (x86)/microchip/xc32/v2.30/bin/bin/../../lib/gcc/pic32mx/4.8.3/../../../../pic32mx/lib\liblega-c.a(ctype.o)
 .reginfo       0x00000000       0x18 c:/program files (x86)/microchip/xc32/v2.30/bin/bin/../../lib/gcc/pic32mx/4.8.3/../../../../pic32mx/lib\liblega-c.a(errno.o)
 .reginfo       0x00000000       0x18 c:/program files (x86)/microchip/xc32/v2.30/bin/bin/../../lib/gcc/pic32mx/4.8.3/../../../../pic32mx/lib\liblega-c.a(_doprnt_cdfFnopsuxX.eo)
 .reginfo       0x00000000       0x18 c:/program files (x86)/microchip/xc32/v2.30/bin/bin/../../lib/gcc/pic32mx/4.8.3/../../../../pic32mx/lib\liblega-c.a(_iobdata.o)
 .reginfo       0x00000000       0x18 c:/program files (x86)/microchip/xc32/v2.30/bin/bin/../../lib/gcc/pic32mx/4.8.3/../../../../pic32mx/lib\liblega-c.a(_iobfuncs.o)
 .reginfo       0x00000000       0x18 c:/program files (x86)/microchip/xc32/v2.30/bin/bin/../../lib/gcc/pic32mx/4.8.3/../../../../pic32mx/lib\liblega-c.a(_iobstring.o)
 .reginfo       0x00000000       0x18 c:/program files (x86)/microchip/xc32/v2.30/bin/bin/../../lib/gcc/pic32mx/4.8.3/../../../../pic32mx/lib\liblega-c.a(fputc.o)
 .reginfo       0x00000000       0x18 c:/program files (x86)/microchip/xc32/v2.30/bin/bin/../../lib/gcc/pic32mx/4.8.3/../../../../pic32mx/lib\libm.a(dptofp.o)
 .reginfo       0x00000000       0x18 c:/program files (x86)/microchip/xc32/v2.30/bin/bin/../../lib/gcc/pic32mx/4.8.3/../../../../pic32mx/lib\libm.a(fp32div.o)
 .reginfo       0x00000000       0x18 c:/program files (x86)/microchip/xc32/v2.30/bin/bin/../../lib/gcc/pic32mx/4.8.3/../../../../pic32mx/lib\libm.a(fp32mul.o)
 .reginfo       0x00000000       0x18 c:/program files (x86)/microchip/xc32/v2.30/bin/bin/../../lib/gcc/pic32mx/4.8.3/../../../../pic32mx/lib\libm.a(fp32subadd.o)
 .reginfo       0x00000000       0x18 c:/program files (x86)/microchip/xc32/v2.30/bin/bin/../../lib/gcc/pic32mx/4.8.3/../../../../pic32mx/lib\libm.a(fpcmp.o)
 .reginfo       0x00000000       0x18 c:/program files (x86)/microchip/xc32/v2.30/bin/bin/../../lib/gcc/pic32mx/4.8.3/../../../../pic32mx/lib\libm.a(fpmodf.o)
 .reginfo       0x00000000       0x18 c:/program files (x86)/microchip/xc32/v2.30/bin/bin/../../lib/gcc/pic32mx/4.8.3/../../../../pic32mx/lib\libm.a(fptoli.o)
 .reginfo       0x00000000       0x18 c:/program files (x86)/microchip/xc32/v2.30/bin/bin/../../lib/gcc/pic32mx/4.8.3/../../../../pic32mx/lib\libm.a(fptoul.o)
 .reginfo       0x00000000       0x18 c:/program files (x86)/microchip/xc32/v2.30/bin/bin/../../lib/gcc/pic32mx/4.8.3/../../../../pic32mx/lib\libm.a(sitofp.o)
 .reginfo       0x00000000       0x18 c:/program files (x86)/microchip/xc32/v2.30/bin/bin/../../lib/gcc/pic32mx/4.8.3/../../../../pic32mx/lib\libm.a(w_powf.o)
 .reginfo       0x00000000       0x18 c:/program files (x86)/microchip/xc32/v2.30/bin/bin/../../lib/gcc/pic32mx/4.8.3/../../../../pic32mx/lib\libm.a(fppow32.o)
 .reginfo       0x00000000       0x18 c:/program files (x86)/microchip/xc32/v2.30/bin/bin/../../lib/gcc/pic32mx/4.8.3/../../../../pic32mx/lib\libm.a(fptodp.o)
 .reginfo       0x00000000       0x18 c:/program files (x86)/microchip/xc32/v2.30/bin/bin/../../lib/gcc/pic32mx/4.8.3/../../../../pic32mx/lib\libm.a(s_lib_ver.o)
 .reginfo       0x00000000       0x18 c:/program files (x86)/microchip/xc32/v2.30/bin/bin/../../lib/gcc/pic32mx/4.8.3/../../../../pic32mx/lib\libm.a(fpexlog.o)
 .reginfo       0x00000000       0x18 c:/program files (x86)/microchip/xc32/v2.30/bin/bin/../../lib/gcc/pic32mx/4.8.3/../../../../pic32mx/lib\libm.a(fpexp32.o)
 .reginfo       0x00000000       0x18 c:/program files (x86)/microchip/xc32/v2.30/bin/bin/../../lib/gcc/pic32mx/4.8.3\libgcc.a(_udivdi3.o)
 .reginfo       0x00000000       0x18 c:/program files (x86)/microchip/xc32/v2.30/bin/bin/../../lib/gcc/pic32mx/4.8.3\libgcc.a(_umoddi3.o)
 .reginfo       0x00000000       0x18 c:/program files (x86)/microchip/xc32/v2.30/bin/bin/../../lib/gcc/pic32mx/4.8.3/../../../../pic32mx/lib\libpic32.a(_mon_getc.o)
 .reginfo       0x00000000       0x18 c:/program files (x86)/microchip/xc32/v2.30/bin/bin/../../lib/gcc/pic32mx/4.8.3/../../../../pic32mx/lib\libpic32.a(_mon_write.o)
 .reginfo       0x00000000       0x18 c:/program files (x86)/microchip/xc32/v2.30/bin/bin/../../lib/gcc/pic32mx/4.8.3/../../../../pic32mx/lib\libpic32.a(xc32_uart.o)
 .reginfo       0x00000000       0x18 c:/program files (x86)/microchip/xc32/v2.30/bin/bin/../../lib/gcc/pic32mx/4.8.3/../../../../pic32mx/lib\libpic32.a(isinf.o)
 .reginfo       0x00000000       0x18 c:/program files (x86)/microchip/xc32/v2.30/bin/bin/../../lib/gcc/pic32mx/4.8.3/../../../../pic32mx/lib\libpic32.a(_mon_putc.o)
 .reginfo       0x00000000       0x18 c:/program files (x86)/microchip/xc32/v2.30/bin/bin/../../lib/gcc/pic32mx/4.8.3/../../../../pic32mx/lib\libm.a(dpcmp.o)
 .reginfo       0x00000000       0x18 c:/program files (x86)/microchip/xc32/v2.30/bin/bin/../../lib/gcc/pic32mx/4.8.3/../../../../pic32mx/lib\libe.a(_unorddf2.o)

Memory Configuration

Name             Origin             Length             Attributes
kseg0_program_mem 0x9d011490         0x0002eb70         xr
kseg0_boot_mem   0x9d010000         0x00000000
exception_mem    0x9d010000         0x00001000
kseg1_boot_mem   0x9d011000         0x00000490
debug_exec_mem   0xbfc02000         0x00000ff0
config3          0xbfc02ff0         0x00000004
config2          0xbfc02ff4         0x00000004
config1          0xbfc02ff8         0x00000004
config0          0xbfc02ffc         0x00000004
kseg1_shared_mem 0xa0000000         0x00001000         w !x
kseg1_data_mem   0xa0001000         0x00007000         w !x
sfrs             0xbf800000         0x00100000
configsfrs       0xbfc02ff0         0x00000010
*default*        0x00000000         0xffffffff

Linker script and memory map

LOAD c:/program files (x86)/microchip/xc32/v2.30/bin/bin/../../lib/gcc/pic32mx/4.8.3/../../../../pic32mx/lib\debug-exception-return.o
LOAD output\main.o
LOAD output\bootloader_interface.o
LOAD output\app.o
LOAD output\ad.o
LOAD output\isr.o
LOAD output\exceptions.o
LOAD output\mal.o
LOAD output\noinitram.o
LOAD output\stackmeasure.o
LOAD output\stackmeasure_helper.o
LOAD output\tmr.o
LOAD output\sleep.o
LOAD output\eeprom.o
LOAD output\dee_page_helper.o
LOAD output\dee_page.o
LOAD output\dee.o
LOAD output\eep_manager_crc.o
LOAD output\eep_manager.o
LOAD output\c_eep_manager.o
LOAD output\bme280.o
LOAD output\bme280_conversion.o
LOAD output\ccs811.o
LOAD output\iic_master.o
LOAD output\iic_master_multi.o
LOAD output\wifi.o
LOAD output\UDP.o
LOAD output\Tick.o
LOAD output\tcp.o
LOAD output\stack_task.o
LOAD output\ssl.o
LOAD output\sntp.o
LOAD output\smtp_demo.o
LOAD output\smtp.o
LOAD output\rsa.o
LOAD output\reboot.o
LOAD output\random.o
LOAD output\nbns.o
LOAD output\mpfs2.o
LOAD output\IP.o
LOAD output\icmp.o
LOAD output\http2.o
LOAD output\Helpers.o
LOAD output\hashes.o
LOAD output\drv_wifi_spi.o
LOAD output\drv_wifi_raw.o
LOAD output\drv_wifi_power_save.o
LOAD output\drv_wifi_pbkdf2.o
LOAD output\drv_wifi_param_msg.o
LOAD output\drv_wifi_mgmt_msg.o
LOAD output\drv_wifi_mac.o
LOAD output\drv_wifi_init.o
LOAD output\drv_wifi_event_handler.o
LOAD output\drv_wifi_eint.o
LOAD output\drv_wifi_debug_strings.o
LOAD output\drv_wifi_connection_profile.o
LOAD output\drv_wifi_connection_manager.o
LOAD output\drv_wifi_connection_algorithm.o
LOAD output\drv_wifi_config.o
LOAD output\drv_wifi_com.o
LOAD output\dns_client.o
LOAD output\dhcp_client.o
LOAD output\Delay.o
LOAD output\custom_ssl_cert.o
LOAD output\custom_http_app.o
LOAD output\big_int.o
LOAD output\ARP.o
LOAD output\arc4.o
LOAD output\announce.o
LOAD output\mpfs_img2.o
LOAD output\http_print.o
LOAD output\http_get.o
LOAD output\app_thingspeak.o
LOAD output\ringBuffer.o
LOAD output\sht31d.o
                0x00000400                PROVIDE (_min_stack_size, 0x400)
LOAD c:/program files (x86)/microchip/xc32/v2.30/bin/bin/../../lib/gcc/pic32mx/4.8.3/../../../../pic32mx/lib/./proc/32MX440F256H\processor.o
START GROUP
LOAD c:/program files (x86)/microchip/xc32/v2.30/bin/bin/../../lib/gcc/pic32mx/4.8.3/../../../../pic32mx/lib\libmchp_peripheral.a
END GROUP
START GROUP
LOAD c:/program files (x86)/microchip/xc32/v2.30/bin/bin/../../lib/gcc/pic32mx/4.8.3/../../../../pic32mx/lib\libmchp_peripheral_32MX440F256H.a
END GROUP
                0x00000001                PROVIDE (_vector_spacing, 0x1)
                0x9d010000                _ebase_address = 0x9d010000
                0x9d011000                _RESET_ADDR = 0x9d011000
                0x9d011380                _BEV_EXCPT_ADDR = 0x9d011380
                0x9d011480                _DBG_EXCPT_ADDR = 0x9d011480
                0xbfc02000                _DBG_CODE_ADDR = 0xbfc02000
                0x00000ff0                _DBG_CODE_SIZE = 0xff0
                0x9d010180                _GEN_EXCPT_ADDR = (_ebase_address + 0x180)

.config_BFC02FF0
 *(.config_BFC02FF0)

.config_BFC02FF4
 *(.config_BFC02FF4)

.config_BFC02FF8
 *(.config_BFC02FF8)

.config_BFC02FFC
 *(.config_BFC02FFC)
                0xbfc02000                PROVIDE (_DBG_CODE_ADDR, 0xbfc02000)
                0x00000ff0                PROVIDE (_DBG_CODE_SIZE, 0xff0)

.reset          0x9d011000      0x19c
 *(.reset)
 .reset         0x9d011000        0x8 C:\Users\kyrk\AppData\Local\Temp\cc2qO3z7.o
                0x9d011000                _reset
 *(.reset.startup)
 .reset.startup
                0x9d011008      0x194 C:\Users\kyrk\AppData\Local\Temp\cc2qO3z7.o
                0x9d011008                _startup

.bev_excpt      0x9d011380       0x10
 *(.bev_handler)
 .bev_handler   0x9d011380       0x10 C:\Users\kyrk\AppData\Local\Temp\cc2qO3z7.o

.dbg_excpt      0x9d011480        0x0
                0x9d011480                . = (. + DEFINED (_DEBUGGER)?0x8:0x0)

.dbg_code       0xbfc02000        0x0
                0xbfc02000                . = (. + DEFINED (_DEBUGGER)?_DBG_CODE_SIZE:0x0)

.app_excpt      0x9d010180       0x10
 *(.gen_handler)
 .gen_handler   0x9d010180       0x10 C:\Users\kyrk\AppData\Local\Temp\cc2qO3z7.o

.vector_0       0x9d010200        0x8
 *(.vector_0)
 .vector_0      0x9d010200        0x8 output\isr.o
                0x9d010200                __vector_dispatch_0
                0x00000001                ASSERT (((_vector_spacing == 0x0) || (SIZEOF (.vector_0) <= (_vector_spacing << 0x5))), function at exception vector 0 too large)

.vector_1       0x9d010220        0x8
 *(.vector_1)
 .vector_1      0x9d010220        0x8 c:/program files (x86)/microchip/xc32/v2.30/bin/bin/../../lib/gcc/pic32mx/4.8.3/../../../../pic32mx/lib\libpic32.a(vector1.o)
                0x9d010220                __vector_dispatch_1
                0x00000001                ASSERT (((_vector_spacing == 0x0) || (SIZEOF (.vector_1) <= (_vector_spacing << 0x5))), function at exception vector 1 too large)

.vector_2       0x9d010240        0x8
 *(.vector_2)
 .vector_2      0x9d010240        0x8 c:/program files (x86)/microchip/xc32/v2.30/bin/bin/../../lib/gcc/pic32mx/4.8.3/../../../../pic32mx/lib\libpic32.a(vector2.o)
                0x9d010240                __vector_dispatch_2
                0x00000001                ASSERT (((_vector_spacing == 0x0) || (SIZEOF (.vector_2) <= (_vector_spacing << 0x5))), function at exception vector 2 too large)

.vector_3       0x9d010260        0x8
 *(.vector_3)
 .vector_3      0x9d010260        0x8 c:/program files (x86)/microchip/xc32/v2.30/bin/bin/../../lib/gcc/pic32mx/4.8.3/../../../../pic32mx/lib\libpic32.a(vector3.o)
                0x9d010260                __vector_dispatch_3
                0x00000001                ASSERT (((_vector_spacing == 0x0) || (SIZEOF (.vector_3) <= (_vector_spacing << 0x5))), function at exception vector 3 too large)

.vector_4       0x9d010280        0x8
 *(.vector_4)
 .vector_4      0x9d010280        0x8 output\isr.o
                0x9d010280                __vector_dispatch_4
                0x00000001                ASSERT (((_vector_spacing == 0x0) || (SIZEOF (.vector_4) <= (_vector_spacing << 0x5))), function at exception vector 4 too large)

.vector_5       0x9d0102a0        0x8
 *(.vector_5)
 .vector_5      0x9d0102a0        0x8 c:/program files (x86)/microchip/xc32/v2.30/bin/bin/../../lib/gcc/pic32mx/4.8.3/../../../../pic32mx/lib\libpic32.a(vector5.o)
                0x9d0102a0                __vector_dispatch_5
                0x00000001                ASSERT (((_vector_spacing == 0x0) || (SIZEOF (.vector_5) <= (_vector_spacing << 0x5))), function at exception vector 5 too large)

.vector_6       0x9d0102c0        0x8
 *(.vector_6)
 .vector_6      0x9d0102c0        0x8 c:/program files (x86)/microchip/xc32/v2.30/bin/bin/../../lib/gcc/pic32mx/4.8.3/../../../../pic32mx/lib\libpic32.a(vector6.o)
                0x9d0102c0                __vector_dispatch_6
                0x00000001                ASSERT (((_vector_spacing == 0x0) || (SIZEOF (.vector_6) <= (_vector_spacing << 0x5))), function at exception vector 6 too large)

.vector_7       0x9d0102e0        0x8
 *(.vector_7)
 .vector_7      0x9d0102e0        0x8 c:/program files (x86)/microchip/xc32/v2.30/bin/bin/../../lib/gcc/pic32mx/4.8.3/../../../../pic32mx/lib\libpic32.a(vector7.o)
                0x9d0102e0                __vector_dispatch_7
                0x00000001                ASSERT (((_vector_spacing == 0x0) || (SIZEOF (.vector_7) <= (_vector_spacing << 0x5))), function at exception vector 7 too large)

.vector_8       0x9d010300        0x8
 *(.vector_8)
 .vector_8      0x9d010300        0x8 output\isr.o
                0x9d010300                __vector_dispatch_8
                0x00000001                ASSERT (((_vector_spacing == 0x0) || (SIZEOF (.vector_8) <= (_vector_spacing << 0x5))), function at exception vector 8 too large)

.vector_9       0x9d010320        0x8
 *(.vector_9)
 .vector_9      0x9d010320        0x8 c:/program files (x86)/microchip/xc32/v2.30/bin/bin/../../lib/gcc/pic32mx/4.8.3/../../../../pic32mx/lib\libpic32.a(vector9.o)
                0x9d010320                __vector_dispatch_9
                0x00000001                ASSERT (((_vector_spacing == 0x0) || (SIZEOF (.vector_9) <= (_vector_spacing << 0x5))), function at exception vector 9 too large)

.vector_10      0x9d010340        0x8
 *(.vector_10)
 .vector_10     0x9d010340        0x8 c:/program files (x86)/microchip/xc32/v2.30/bin/bin/../../lib/gcc/pic32mx/4.8.3/../../../../pic32mx/lib\libpic32.a(vector10.o)
                0x9d010340                __vector_dispatch_10
                0x00000001                ASSERT (((_vector_spacing == 0x0) || (SIZEOF (.vector_10) <= (_vector_spacing << 0x5))), function at exception vector 10 too large)

.vector_11      0x9d010360        0x8
 *(.vector_11)
 .vector_11     0x9d010360        0x8 c:/program files (x86)/microchip/xc32/v2.30/bin/bin/../../lib/gcc/pic32mx/4.8.3/../../../../pic32mx/lib\libpic32.a(vector11.o)
                0x9d010360                __vector_dispatch_11
                0x00000001                ASSERT (((_vector_spacing == 0x0) || (SIZEOF (.vector_11) <= (_vector_spacing << 0x5))), function at exception vector 11 too large)

.vector_12      0x9d010380        0x8
 *(.vector_12)
 .vector_12     0x9d010380        0x8 output\isr.o
                0x9d010380                __vector_dispatch_12
                0x00000001                ASSERT (((_vector_spacing == 0x0) || (SIZEOF (.vector_12) <= (_vector_spacing << 0x5))), function at exception vector 12 too large)

.vector_13      0x9d0103a0        0x8
 *(.vector_13)
 .vector_13     0x9d0103a0        0x8 c:/program files (x86)/microchip/xc32/v2.30/bin/bin/../../lib/gcc/pic32mx/4.8.3/../../../../pic32mx/lib\libpic32.a(vector13.o)
                0x9d0103a0                __vector_dispatch_13
                0x00000001                ASSERT (((_vector_spacing == 0x0) || (SIZEOF (.vector_13) <= (_vector_spacing << 0x5))), function at exception vector 13 too large)

.vector_14      0x9d0103c0        0x8
 *(.vector_14)
 .vector_14     0x9d0103c0        0x8 c:/program files (x86)/microchip/xc32/v2.30/bin/bin/../../lib/gcc/pic32mx/4.8.3/../../../../pic32mx/lib\libpic32.a(vector14.o)
                0x9d0103c0                __vector_dispatch_14
                0x00000001                ASSERT (((_vector_spacing == 0x0) || (SIZEOF (.vector_14) <= (_vector_spacing << 0x5))), function at exception vector 14 too large)

.vector_15      0x9d0103e0        0x8
 *(.vector_15)
 .vector_15     0x9d0103e0        0x8 output\isr.o
                0x9d0103e0                __vector_dispatch_15
                0x00000001                ASSERT (((_vector_spacing == 0x0) || (SIZEOF (.vector_15) <= (_vector_spacing << 0x5))), function at exception vector 15 too large)

.vector_16      0x9d010400        0x8
 *(.vector_16)
 .vector_16     0x9d010400        0x8 output\isr.o
                0x9d010400                __vector_dispatch_16
                0x00000001                ASSERT (((_vector_spacing == 0x0) || (SIZEOF (.vector_16) <= (_vector_spacing << 0x5))), function at exception vector 16 too large)

.vector_17      0x9d010420        0x8
 *(.vector_17)
 .vector_17     0x9d010420        0x8 c:/program files (x86)/microchip/xc32/v2.30/bin/bin/../../lib/gcc/pic32mx/4.8.3/../../../../pic32mx/lib\libpic32.a(vector17.o)
                0x9d010420                __vector_dispatch_17
                0x00000001                ASSERT (((_vector_spacing == 0x0) || (SIZEOF (.vector_17) <= (_vector_spacing << 0x5))), function at exception vector 17 too large)

.vector_18      0x9d010440        0x8
 *(.vector_18)
 .vector_18     0x9d010440        0x8 c:/program files (x86)/microchip/xc32/v2.30/bin/bin/../../lib/gcc/pic32mx/4.8.3/../../../../pic32mx/lib\libpic32.a(vector18.o)
                0x9d010440                __vector_dispatch_18
                0x00000001                ASSERT (((_vector_spacing == 0x0) || (SIZEOF (.vector_18) <= (_vector_spacing << 0x5))), function at exception vector 18 too large)

.vector_19      0x9d010460        0x8
 *(.vector_19)
 .vector_19     0x9d010460        0x8 c:/program files (x86)/microchip/xc32/v2.30/bin/bin/../../lib/gcc/pic32mx/4.8.3/../../../../pic32mx/lib\libpic32.a(vector19.o)
                0x9d010460                __vector_dispatch_19
                0x00000001                ASSERT (((_vector_spacing == 0x0) || (SIZEOF (.vector_19) <= (_vector_spacing << 0x5))), function at exception vector 19 too large)

.vector_20      0x9d010480        0x8
 *(.vector_20)
 .vector_20     0x9d010480        0x8 output\isr.o
                0x9d010480                __vector_dispatch_20
                0x00000001                ASSERT (((_vector_spacing == 0x0) || (SIZEOF (.vector_20) <= (_vector_spacing << 0x5))), function at exception vector 20 too large)

.vector_21      0x9d0104a0        0x8
 *(.vector_21)
 .vector_21     0x9d0104a0        0x8 c:/program files (x86)/microchip/xc32/v2.30/bin/bin/../../lib/gcc/pic32mx/4.8.3/../../../../pic32mx/lib\libpic32.a(vector21.o)
                0x9d0104a0                __vector_dispatch_21
                0x00000001                ASSERT (((_vector_spacing == 0x0) || (SIZEOF (.vector_21) <= (_vector_spacing << 0x5))), function at exception vector 21 too large)

.vector_22      0x9d0104c0        0x8
 *(.vector_22)
 .vector_22     0x9d0104c0        0x8 c:/program files (x86)/microchip/xc32/v2.30/bin/bin/../../lib/gcc/pic32mx/4.8.3/../../../../pic32mx/lib\libpic32.a(vector22.o)
                0x9d0104c0                __vector_dispatch_22
                0x00000001                ASSERT (((_vector_spacing == 0x0) || (SIZEOF (.vector_22) <= (_vector_spacing << 0x5))), function at exception vector 22 too large)

.vector_23      0x9d0104e0        0x8
 *(.vector_23)
 .vector_23     0x9d0104e0        0x8 c:/program files (x86)/microchip/xc32/v2.30/bin/bin/../../lib/gcc/pic32mx/4.8.3/../../../../pic32mx/lib\libpic32.a(vector23.o)
                0x9d0104e0                __vector_dispatch_23
                0x00000001                ASSERT (((_vector_spacing == 0x0) || (SIZEOF (.vector_23) <= (_vector_spacing << 0x5))), function at exception vector 23 too large)

.vector_24      0x9d010500        0x8
 *(.vector_24)
 .vector_24     0x9d010500        0x8 output\isr.o
                0x9d010500                __vector_dispatch_24
                0x00000001                ASSERT (((_vector_spacing == 0x0) || (SIZEOF (.vector_24) <= (_vector_spacing << 0x5))), function at exception vector 24 too large)

.vector_25      0x9d010520        0x8
 *(.vector_25)
 .vector_25     0x9d010520        0x8 output\isr.o
                0x9d010520                __vector_dispatch_25
                0x00000001                ASSERT (((_vector_spacing == 0x0) || (SIZEOF (.vector_25) <= (_vector_spacing << 0x5))), function at exception vector 25 too large)

.vector_26      0x9d010540        0x8
 *(.vector_26)
 .vector_26     0x9d010540        0x8 output\isr.o
                0x9d010540                __vector_dispatch_26
                0x00000001                ASSERT (((_vector_spacing == 0x0) || (SIZEOF (.vector_26) <= (_vector_spacing << 0x5))), function at exception vector 26 too large)

.vector_27      0x9d010560        0x8
 *(.vector_27)
 .vector_27     0x9d010560        0x8 c:/program files (x86)/microchip/xc32/v2.30/bin/bin/../../lib/gcc/pic32mx/4.8.3/../../../../pic32mx/lib\libpic32.a(vector27.o)
                0x9d010560                __vector_dispatch_27
                0x00000001                ASSERT (((_vector_spacing == 0x0) || (SIZEOF (.vector_27) <= (_vector_spacing << 0x5))), function at exception vector 27 too large)

.vector_28      0x9d010580        0x8
 *(.vector_28)
 .vector_28     0x9d010580        0x8 c:/program files (x86)/microchip/xc32/v2.30/bin/bin/../../lib/gcc/pic32mx/4.8.3/../../../../pic32mx/lib\libpic32.a(vector28.o)
                0x9d010580                __vector_dispatch_28
                0x00000001                ASSERT (((_vector_spacing == 0x0) || (SIZEOF (.vector_28) <= (_vector_spacing << 0x5))), function at exception vector 28 too large)

.vector_29      0x9d0105a0        0x8
 *(.vector_29)
 .vector_29     0x9d0105a0        0x8 c:/program files (x86)/microchip/xc32/v2.30/bin/bin/../../lib/gcc/pic32mx/4.8.3/../../../../pic32mx/lib\libpic32.a(vector29.o)
                0x9d0105a0                __vector_dispatch_29
                0x00000001                ASSERT (((_vector_spacing == 0x0) || (SIZEOF (.vector_29) <= (_vector_spacing << 0x5))), function at exception vector 29 too large)

.vector_30      0x9d0105c0        0x8
 *(.vector_30)
 .vector_30     0x9d0105c0        0x8 c:/program files (x86)/microchip/xc32/v2.30/bin/bin/../../lib/gcc/pic32mx/4.8.3/../../../../pic32mx/lib\libpic32.a(vector30.o)
                0x9d0105c0                __vector_dispatch_30
                0x00000001                ASSERT (((_vector_spacing == 0x0) || (SIZEOF (.vector_30) <= (_vector_spacing << 0x5))), function at exception vector 30 too large)

.vector_31      0x9d0105e0        0x8
 *(.vector_31)
 .vector_31     0x9d0105e0        0x8 output\isr.o
                0x9d0105e0                __vector_dispatch_31
                0x00000001                ASSERT (((_vector_spacing == 0x0) || (SIZEOF (.vector_31) <= (_vector_spacing << 0x5))), function at exception vector 31 too large)

.vector_32      0x9d010600        0x8
 *(.vector_32)
 .vector_32     0x9d010600        0x8 output\isr.o
                0x9d010600                __vector_dispatch_32
                0x00000001                ASSERT (((_vector_spacing == 0x0) || (SIZEOF (.vector_32) <= (_vector_spacing << 0x5))), function at exception vector 32 too large)

.vector_33      0x9d010620        0x8
 *(.vector_33)
 .vector_33     0x9d010620        0x8 output\isr.o
                0x9d010620                __vector_dispatch_33
                0x00000001                ASSERT (((_vector_spacing == 0x0) || (SIZEOF (.vector_33) <= (_vector_spacing << 0x5))), function at exception vector 33 too large)

.vector_34      0x9d010640        0x8
 *(.vector_34)
 .vector_34     0x9d010640        0x8 c:/program files (x86)/microchip/xc32/v2.30/bin/bin/../../lib/gcc/pic32mx/4.8.3/../../../../pic32mx/lib\libpic32.a(vector34.o)
                0x9d010640                __vector_dispatch_34
                0x00000001                ASSERT (((_vector_spacing == 0x0) || (SIZEOF (.vector_34) <= (_vector_spacing << 0x5))), function at exception vector 34 too large)

.vector_35      0x9d010660        0x8
 *(.vector_35)
 .vector_35     0x9d010660        0x8 c:/program files (x86)/microchip/xc32/v2.30/bin/bin/../../lib/gcc/pic32mx/4.8.3/../../../../pic32mx/lib\libpic32.a(vector35.o)
                0x9d010660                __vector_dispatch_35
                0x00000001                ASSERT (((_vector_spacing == 0x0) || (SIZEOF (.vector_35) <= (_vector_spacing << 0x5))), function at exception vector 35 too large)

.vector_36      0x9d010680        0x8
 *(.vector_36)
 .vector_36     0x9d010680        0x8 output\isr.o
                0x9d010680                __vector_dispatch_36
                0x00000001                ASSERT (((_vector_spacing == 0x0) || (SIZEOF (.vector_36) <= (_vector_spacing << 0x5))), function at exception vector 36 too large)

.vector_37      0x9d0106a0        0x8
 *(.vector_37)
 .vector_37     0x9d0106a0        0x8 output\isr.o
                0x9d0106a0                __vector_dispatch_37
                0x00000001                ASSERT (((_vector_spacing == 0x0) || (SIZEOF (.vector_37) <= (_vector_spacing << 0x5))), function at exception vector 37 too large)

.vector_38      0x9d0106c0        0x8
 *(.vector_38)
 .vector_38     0x9d0106c0        0x8 output\isr.o
                0x9d0106c0                __vector_dispatch_38
                0x00000001                ASSERT (((_vector_spacing == 0x0) || (SIZEOF (.vector_38) <= (_vector_spacing << 0x5))), function at exception vector 38 too large)

.vector_39      0x9d0106e0        0x8
 *(.vector_39)
 .vector_39     0x9d0106e0        0x8 output\isr.o
                0x9d0106e0                __vector_dispatch_39
                0x00000001                ASSERT (((_vector_spacing == 0x0) || (SIZEOF (.vector_39) <= (_vector_spacing << 0x5))), function at exception vector 39 too large)

.vector_40      0x9d010700        0x8
 *(.vector_40)
 .vector_40     0x9d010700        0x8 c:/program files (x86)/microchip/xc32/v2.30/bin/bin/../../lib/gcc/pic32mx/4.8.3/../../../../pic32mx/lib\libpic32.a(vector40.o)
                0x9d010700                __vector_dispatch_40
                0x00000001                ASSERT (((_vector_spacing == 0x0) || (SIZEOF (.vector_40) <= (_vector_spacing << 0x5))), function at exception vector 40 too large)

.vector_41      0x9d010720        0x8
 *(.vector_41)
 .vector_41     0x9d010720        0x8 c:/program files (x86)/microchip/xc32/v2.30/bin/bin/../../lib/gcc/pic32mx/4.8.3/../../../../pic32mx/lib\libpic32.a(vector41.o)
                0x9d010720                __vector_dispatch_41
                0x00000001                ASSERT (((_vector_spacing == 0x0) || (SIZEOF (.vector_41) <= (_vector_spacing << 0x5))), function at exception vector 41 too large)

.vector_42      0x9d010740        0x8
 *(.vector_42)
 .vector_42     0x9d010740        0x8 c:/program files (x86)/microchip/xc32/v2.30/bin/bin/../../lib/gcc/pic32mx/4.8.3/../../../../pic32mx/lib\libpic32.a(vector42.o)
                0x9d010740                __vector_dispatch_42
                0x00000001                ASSERT (((_vector_spacing == 0x0) || (SIZEOF (.vector_42) <= (_vector_spacing << 0x5))), function at exception vector 42 too large)

.vector_43      0x9d010760        0x8
 *(.vector_43)
 .vector_43     0x9d010760        0x8 c:/program files (x86)/microchip/xc32/v2.30/bin/bin/../../lib/gcc/pic32mx/4.8.3/../../../../pic32mx/lib\libpic32.a(vector43.o)
                0x9d010760                __vector_dispatch_43
                0x00000001                ASSERT (((_vector_spacing == 0x0) || (SIZEOF (.vector_43) <= (_vector_spacing << 0x5))), function at exception vector 43 too large)

.vector_44      0x9d010780        0x8
 *(.vector_44)
 .vector_44     0x9d010780        0x8 c:/program files (x86)/microchip/xc32/v2.30/bin/bin/../../lib/gcc/pic32mx/4.8.3/../../../../pic32mx/lib\libpic32.a(vector44.o)
                0x9d010780                __vector_dispatch_44
                0x00000001                ASSERT (((_vector_spacing == 0x0) || (SIZEOF (.vector_44) <= (_vector_spacing << 0x5))), function at exception vector 44 too large)

.vector_45      0x9d0107a0        0x8
 *(.vector_45)
 .vector_45     0x9d0107a0        0x8 output\isr.o
                0x9d0107a0                __vector_dispatch_45
                0x00000001                ASSERT (((_vector_spacing == 0x0) || (SIZEOF (.vector_45) <= (_vector_spacing << 0x5))), function at exception vector 45 too large)

.vector_46      0x9d0107c0        0x0
 *(.vector_46)
                0x00000001                ASSERT (((_vector_spacing == 0x0) || (SIZEOF (.vector_46) <= (_vector_spacing << 0x5))), function at exception vector 46 too large)

.vector_47      0x9d0107e0        0x0
 *(.vector_47)
                0x00000001                ASSERT (((_vector_spacing == 0x0) || (SIZEOF (.vector_47) <= (_vector_spacing << 0x5))), function at exception vector 47 too large)

.vector_48      0x9d010800        0x0
 *(.vector_48)
                0x00000001                ASSERT (((_vector_spacing == 0x0) || (SIZEOF (.vector_48) <= (_vector_spacing << 0x5))), function at exception vector 48 too large)

.vector_49      0x9d010820        0x0
 *(.vector_49)
                0x00000001                ASSERT (((_vector_spacing == 0x0) || (SIZEOF (.vector_49) <= (_vector_spacing << 0x5))), function at exception vector 49 too large)

.vector_50      0x9d010840        0x0
 *(.vector_50)
                0x00000001                ASSERT (((_vector_spacing == 0x0) || (SIZEOF (.vector_50) <= (_vector_spacing << 0x5))), function at exception vector 50 too large)

.vector_51      0x9d010860        0x0
 *(.vector_51)
                0x00000001                ASSERT (((_vector_spacing == 0x0) || (SIZEOF (.vector_51) <= (_vector_spacing << 0x5))), function at exception vector 51 too large)

.vector_52      0x9d010880        0x0
 *(.vector_52)
                0x00000001                ASSERT (((_vector_spacing == 0x0) || (SIZEOF (.vector_52) <= (_vector_spacing << 0x5))), function at exception vector 52 too large)

.vector_53      0x9d0108a0        0x0
 *(.vector_53)
                0x00000001                ASSERT (((_vector_spacing == 0x0) || (SIZEOF (.vector_53) <= (_vector_spacing << 0x5))), function at exception vector 53 too large)

.vector_54      0x9d0108c0        0x0
 *(.vector_54)
                0x00000001                ASSERT (((_vector_spacing == 0x0) || (SIZEOF (.vector_54) <= (_vector_spacing << 0x5))), function at exception vector 54 too large)

.vector_55      0x9d0108e0        0x0
 *(.vector_55)
                0x00000001                ASSERT (((_vector_spacing == 0x0) || (SIZEOF (.vector_55) <= (_vector_spacing << 0x5))), function at exception vector 55 too large)

.vector_56      0x9d010900        0x0
 *(.vector_56)
                0x00000001                ASSERT (((_vector_spacing == 0x0) || (SIZEOF (.vector_56) <= (_vector_spacing << 0x5))), function at exception vector 56 too large)

.vector_57      0x9d010920        0x0
 *(.vector_57)
                0x00000001                ASSERT (((_vector_spacing == 0x0) || (SIZEOF (.vector_57) <= (_vector_spacing << 0x5))), function at exception vector 57 too large)

.vector_58      0x9d010940        0x0
 *(.vector_58)
                0x00000001                ASSERT (((_vector_spacing == 0x0) || (SIZEOF (.vector_58) <= (_vector_spacing << 0x5))), function at exception vector 58 too large)

.vector_59      0x9d010960        0x0
 *(.vector_59)
                0x00000001                ASSERT (((_vector_spacing == 0x0) || (SIZEOF (.vector_59) <= (_vector_spacing << 0x5))), function at exception vector 59 too large)

.vector_60      0x9d010980        0x0
 *(.vector_60)
                0x00000001                ASSERT (((_vector_spacing == 0x0) || (SIZEOF (.vector_60) <= (_vector_spacing << 0x5))), function at exception vector 60 too large)

.vector_61      0x9d0109a0        0x0
 *(.vector_61)
                0x00000001                ASSERT (((_vector_spacing == 0x0) || (SIZEOF (.vector_61) <= (_vector_spacing << 0x5))), function at exception vector 61 too large)

.vector_62      0x9d0109c0        0x0
 *(.vector_62)
                0x00000001                ASSERT (((_vector_spacing == 0x0) || (SIZEOF (.vector_62) <= (_vector_spacing << 0x5))), function at exception vector 62 too large)

.vector_63      0x9d0109e0        0x0
 *(.vector_63)
                0x00000001                ASSERT (((_vector_spacing == 0x0) || (SIZEOF (.vector_63) <= (_vector_spacing << 0x5))), function at exception vector 63 too large)

.startup
 *(.startup)

.text           0x9d011490        0x0
 *(.stub .gnu.linkonce.t.*)
 *(.text.*personality*)
 *(.mips16.fn.*)
 *(.mips16.call.*)
 *(.gnu.warning)
                0x9d011490                . = ALIGN (0x4)

.init           0x9d011490        0x0
 *crti.o(.init)
 *crtbegin.o(.init)
 *(EXCLUDE_FILE(*crtn.o *crtend?.o *crtend.o) .init)
 *crtend.o(.init)
 *crtn.o(.init)
                0x9d011490                . = ALIGN (0x4)

.fini           0x9d011490        0x0
 *(.fini)
                0x9d011490                . = ALIGN (0x4)

.preinit_array  0x9d011490        0x0
                0x9d011490                PROVIDE (__preinit_array_start, .)
 *(.preinit_array)
                0x9d011490                PROVIDE (__preinit_array_end, .)
                0x9d011490                . = ALIGN (0x4)

.init_array     0x9d011490        0x0
                0x9d011490                PROVIDE (__init_array_start, .)
 *(SORT(.init_array.*))
 *(.init_array)
                0x9d011490                PROVIDE (__init_array_end, .)
                0x9d011490                . = ALIGN (0x4)

.fini_array     0x9d011490        0x0
                0x9d011490                PROVIDE (__fini_array_start, .)
 *(SORT(.fini_array.*))
 *(.fini_array)
                0x9d011490                PROVIDE (__fini_array_end, .)
                0x9d011490                . = ALIGN (0x4)

.ctors          0x9d011490        0x0
 *crtbegin.o(.ctors)
 *crtbegin?.o(.ctors)
 *(EXCLUDE_FILE(*crtend?.o *crtend.o) .ctors)
 *(SORT(.ctors.*))
 *(.ctors)
                0x9d011490                . = ALIGN (0x4)

.dtors          0x9d011490        0x0
 *crtbegin.o(.dtors)
 *crtbegin?.o(.dtors)
 *(EXCLUDE_FILE(*crtend?.o *crtend.o) .dtors)
 *(SORT(.dtors.*))
 *(.dtors)
                0x9d011490                . = ALIGN (0x4)

.rodata         0x9d011490        0x0
 *(.gnu.linkonce.r.*)
 *(.rodata1)
                0x9d011490                . = ALIGN (0x4)

.sdata2         0x9d010000        0x0
 *(.sdata2 .sdata2.* .gnu.linkonce.s2.*)
                0x9d010000                . = ALIGN (0x4)

.sbss2          0x9d010000        0x0
 *(.sbss2 .sbss2.* .gnu.linkonce.sb2.*)
                0x9d010000                . = ALIGN (0x4)

.eh_frame_hdr
 *(.eh_frame_hdr)
                0x9d010000                . = ALIGN (0x4)

.eh_frame
 *(.eh_frame)
                0x9d010000                . = ALIGN (0x4)

.gcc_except_table
 *(.gcc_except_table .gcc_except_table.*)
                0x9d010000                . = ALIGN (0x4)

.dbg_data       0xa0001000        0x0
                0xa0001000                . = (. + DEFINED (_DEBUGGER)?0x200:0x0)

.jcr            0xa0001000        0x0
 *(.jcr)
                0xa0001000                . = ALIGN (0x4)

.eh_frame
 *(.eh_frame)
                0xa0001000                . = ALIGN (0x4)

.gcc_except_table
 *(.gcc_except_table .gcc_except_table.*)
                0xa0001000                . = ALIGN (0x4)

.persist        0xa0001000        0x8
                0xa0001000                _persist_begin = .
 *(.persist .persist.*)
 *(.pbss .pbss.*)
 .pbss          0xa0001000        0x2 output\UDP.o
 .pbss          0xa0001002        0x2 output\tcp.o
 .pbss          0xa0001004        0x4 output\dns_client.o
                0xa0001008                . = ALIGN (0x4)
                0xa0001008                _persist_end = .

.data           0xa0001008        0x0
 *(.gnu.linkonce.d.*)
 *(.data1)
                0xa0001008                . = ALIGN (0x4)
                0xa0001008                . = .
                0xa0009000                _gp = (ALIGN (0x10) + 0x7ff0)

.got            0xa0001008        0x0
 *(.got.plt)
 *(.got)
                0xa0001008                . = ALIGN (0x4)

.sdata          0xa0001008       0x68
                0xa0001008                _sdata_begin = .
 *(.sdata .sdata.* .gnu.linkonce.s.*)
 .sdata         0xa0001008        0x8 output\app.o
 .sdata         0xa0001010        0x8 output\stackmeasure.o
                0xa0001010                stackmeasure_to
                0xa0001014                stackmeasure_from
 .sdata         0xa0001018        0x1 output\sleep.o
                0xa0001018                sleepGetMainLoopRun_result
 .sdata         0xa0001019        0x1 output\dee.o
                0xa0001019                dee_debug_enable
 *fill*         0xa000101a        0x2 
 .sdata         0xa000101c        0x4 output\eep_manager.o
 .sdata         0xa0001020        0x4 output\bme280.o
                0xa0001020                bme280_conversionTimerValue
 .sdata         0xa0001024        0x1 output\ccs811.o
                0xa0001024                ccs811_read_address
 *fill*         0xa0001025        0x3 
 .sdata         0xa0001028        0x4 output\iic_master.o
                0xa0001028                iic_master_freq
 .sdata         0xa000102c        0x2 output\UDP.o
 .sdata         0xa000102e        0x2 output\tcp.o
 .sdata         0xa0001030        0x1 output\sntp.o
 .sdata         0xa0001031        0x1 output\reboot.o
 *fill*         0xa0001032        0x2 
 .sdata         0xa0001034        0x4 output\Helpers.o
 .sdata         0xa0001038        0x1 output\drv_wifi_power_save.o
 .sdata         0xa0001039        0x1 output\drv_wifi_connection_algorithm.o
 *fill*         0xa000103a        0x2 
 .sdata         0xa000103c        0x8 output\dns_client.o
 .sdata         0xa0001044       0x24 output\app_thingspeak.o
                0xa0001044                app_thingspeak_res3
                0xa0001048                app_thingspeak_res2
                0xa000104c                app_thingspeak_LiPoVoltage
                0xa0001050                app_thingspeak_CO2
                0xa0001054                app_thingspeak_humidity
                0xa0001058                app_thingspeak_pressure
                0xa000105c                app_thingspeak_temperature
                0xa0001060                app_thingspeak_port
                0xa0001064                app_thingspeak_socket
 .sdata         0xa0001068        0x4 c:/program files (x86)/microchip/xc32/v2.30/bin/bin/../../lib/gcc/pic32mx/4.8.3/../../../../pic32mx/lib\liblega-c.a(_iobdata.o)
                0xa0001068                _libc_data
 .sdata         0xa000106c        0x4 c:/program files (x86)/microchip/xc32/v2.30/bin/bin/../../lib/gcc/pic32mx/4.8.3/../../../../pic32mx/lib\libpic32.a(xc32_uart.o)
                0xa000106c                __XC_UART
                0xa0001070                . = ALIGN (0x4)
                0xa0001070                _sdata_end = .

.lit8
 *(.lit8)

.lit4
 *(.lit4)
                0xa0001070                . = ALIGN (0x4)
                0xa0001070                _data_end = .
                0xa0001070                _bss_begin = .

.sbss           0xa0001070      0x330
                0xa0001070                _sbss_begin = .
 *(.dynsbss)
 *(.sbss .sbss.* .gnu.linkonce.sb.*)
 .sbss          0xa0001070       0x18 output\main.o
                0xa0001074                loopCntHistoryCnt
                0xa0001078                tick_count
                0xa000107c                loopCnt
                0xa0001080                loopCntTemp
                0xa0001084                do_loopCnt
 .sbss          0xa0001088       0x2c output\app.o
                0xa0001090                app_BootloaderTrigger
                0xa0001094                app_LiPo_Percentage
                0xa0001098                app_LiPo_Voltage
                0xa000109c                app_CO2
                0xa00010a0                app_Humiditiy
                0xa00010a4                app_Pressure
                0xa00010a8                app_Temperature
                0xa00010ac                do_app_1000ms
                0xa00010b0                do_app_10ms
 .sbss          0xa00010b4        0xc output\ad.o
                0xa00010b8                ad_extend_sampling_time
                0xa00010bc                ad_currentChannel
                0xa00010bd                doAd10ms
 .sbss          0xa00010c0        0x8 output\exceptions.o
                0xa00010c0                generateException
                0xa00010c4                exceptionCounter
 .sbss          0xa00010c8       0x10 output\mal.o
                0xa00010c8                isrLockCnt
                0xa00010cc                gieTemp
                0xa00010d0                mal_RCON_temp
                0xa00010d4                mal_resetReason_temp
 .sbss          0xa00010d8        0x4 output\noinitram.o
                0xa00010d8                noinitram_valid_block
 .sbss          0xa00010dc        0x8 output\stackmeasure.o
                0xa00010dc                stackmeasure_maxfillness
                0xa00010e0                stackmeasure_current_pos
 .sbss          0xa00010e4       0x14 output\tmr.o
                0xa00010f0                globalTimeUs
                0xa00010f4                globalTime
 .sbss          0xa00010f8       0x20 output\sleep.o
                0xa00010f8                do_isr_sleep_1ms
                0xa00010f9                sleep_executeSleep
                0xa00010fa                sleepPointOfNoReturnRegisteredRequest
                0xa00010fb                sleepPointOfNoReturn
                0xa00010fc                sleepEdgeDetector
                0xa0001100                sleepDriverRequest_delay
                0xa0001104                sleepAppRequest_delay
                0xa0001108                sleepRequestDriver
                0xa000110c                sleepRequestApp
                0xa0001110                sleepRequestLock
                0xa0001114                sleepTime
 .sbss          0xa0001118       0x1c output\dee.o
                0xa000111c                dee_debug_init_dee
                0xa0001120                do_dee_debug
                0xa0001124                dee_addr_cache
                0xa0001128                dee_data_cache
                0xa000112c                dee_cache_valid
                0xa0001130                dee_debug_last_return_value
 .sbss          0xa0001134       0x20 output\eep_manager.o
                0xa0001145                do_eep_manager_1ms
                0xa0001148                eep_manager_persistent_eeprom_2
                0xa000114c                eep_manager_persistent_eeprom
                0xa0001150                eep_manager_persistent_config
 .sbss          0xa0001154        0x4 output\c_eep_manager.o
                0xa0001154                test2Variable
                0xa0001156                testVariable
 .sbss          0xa0001158       0x68 output\bme280.o
                0xa000115c                iicStateMachineError
                0xa0001160                resultPressureError
                0xa0001164                bme280_samplingTimer
                0xa0001168                bme280_conversionTimer
                0xa000116c                do_bme280_1ms
                0xa0001170                bme280TempData
                0xa0001178                resultHumidity
                0xa000117c                resultAltitude
                0xa0001180                resultPressure
                0xa0001184                resultTemp
                0xa0001188                bme280States
                0xa000118c                bme280_loaderCnt
                0xa0001190                UH
                0xa0001194                UP
                0xa0001198                UT
                0xa000119c                dig_H6
                0xa000119e                dig_H5
                0xa00011a0                dig_H4
                0xa00011a2                dig_H3
                0xa00011a4                dig_H2
                0xa00011a6                dig_H1
                0xa00011a8                dig_P9
                0xa00011aa                dig_P8
                0xa00011ac                dig_P7
                0xa00011ae                dig_P6
                0xa00011b0                dig_P5
                0xa00011b2                dig_P4
                0xa00011b4                dig_P3
                0xa00011b6                dig_P2
                0xa00011b8                dig_P1
                0xa00011ba                dig_T3
                0xa00011bc                dig_T2
                0xa00011be                dig_T1
 .sbss          0xa00011c0       0x28 output\ccs811.o
                0xa00011c0                ccs811_env_comp_available
                0xa00011c2                ccs811_humi_compensation
                0xa00011c4                ccs811_temp_compensation
                0xa00011c6                ccs811_TVOC_raw
                0xa00011c8                ccs811_eCO2_raw
                0xa00011cc                ccs811_delayTimer
                0xa00011d0                ccs811_TVOC
                0xa00011d4                ccs811_CO2
                0xa00011d8                do_ccs811_1ms
                0xa00011dc                ccs811_states
                0xa00011e0                ccs811_read_data
                0xa00011e1                ccs811_read_result
                0xa00011e2                ccs811_read_trigger
                0xa00011e4                ccs811_read_states
 .sbss          0xa00011e8       0x4c output\iic_master.o
                0xa00011ec                iic_getState_async_state
                0xa00011f0                IIC_RX_BIT_cnt
                0xa00011f1                IIC_TX_BIT_cnt
                0xa00011f2                i2c_rx_async_cnt
                0xa00011f3                i2c_tx_async_cnt
                0xa00011f4                i2c_stop_async_cnt
                0xa00011f5                i2c_start_async_cnt
                0xa00011f6                iic_delay_debug
                0xa00011f7                iic_master_tmp_data
                0xa00011f8                do_iic_master_task
                0xa00011fc                do_iic_master_10us
                0xa0001200                do_iic_master_100us
                0xa0001204                do_iic_master_1ms
                0xa0001208                iic_master_write_size_current
                0xa000120c                iic_master_write_size
                0xa0001210                iic_master_read_size_current
                0xa0001214                iic_master_read_size
                0xa0001218                iic_master_read_state
                0xa000121c                iic_master_write_state
                0xa0001220                iic_master_repeat
                0xa0001221                iic_master_tx_addr
                0xa0001224                missedTxCharI2C
                0xa0001228                missedRxCharI2C
                0xa000122c                iic_buffer_master_tx
                0xa0001230                iic_buffer_master_rx
 .sbss          0xa0001234        0xc output\iic_master_multi.o
                0xa0001234                foundItem
                0xa0001238                do_iic_master_multi_100us
                0xa000123c                do_iic_master_multi_1ms
 .sbss          0xa0001240        0x8 output\wifi.o
                0xa0001244                wifi_is_connected_value
 .sbss          0xa0001248        0x8 output\UDP.o
 .sbss          0xa0001250       0x14 output\Tick.o
 .sbss          0xa0001264       0x10 output\stack_task.o
                0xa0001268                g_DhcpRetryTimer
                0xa000126c                g_DhcpRenew
 .sbss          0xa0001274       0x10 output\sntp.o
 .sbss          0xa0001284        0x8 output\nbns.o
 .sbss          0xa000128c        0x6 output\mpfs2.o
 .sbss          0xa0001292        0x4 output\IP.o
 .sbss          0xa0001296        0x1 output\drv_wifi_spi.o
 .sbss          0xa0001297        0x2 output\drv_wifi_raw.o
                0xa0001297                gIntDisabled
                0xa0001298                g_HostRAWDataPacketReceived
 .sbss          0xa0001299        0x3 output\drv_wifi_power_save.o
 .sbss          0xa000129c        0x4 output\drv_wifi_mgmt_msg.o
                0xa000129d                g_WaitingForMgmtResponse
 .sbss          0xa00012a0       0x14 output\drv_wifi_mac.o
 .sbss          0xa00012b4        0x1 output\drv_wifi_init.o
                0xa00012b4                gRFModuleVer1209orLater
 .sbss          0xa00012b5        0x1 output\drv_wifi_connection_manager.o
 *fill*         0xa00012b6        0x2 
 .sbss          0xa00012b8       0x14 output\drv_wifi_com.o
                0xa00012b8                g_dhcpInProgress
                0xa00012b9                g_WiFiConnection
                0xa00012ba                g_WiFiConnectionChanged
                0xa00012bb                g_DhcpSuccessful
 .sbss          0xa00012cc       0x14 output\dns_client.o
 .sbss          0xa00012e0        0x1 output\dhcp_client.o
                0xa00012e0                DHCPClientInitializedOnce
 .sbss          0xa00012e1        0x1 output\custom_http_app.o
 *fill*         0xa00012e2        0x2 
 .sbss          0xa00012e4        0x4 output\ARP.o
 .sbss          0xa00012e8        0x8 output\announce.o
 .sbss          0xa00012f0       0x24 output\app_thingspeak.o
                0xa00012f0                app_thingspeak_get_string_cnt_max
                0xa00012f4                app_thingspeak_get_string_cnt
                0xa00012f8                app_thingspeak_missed_rx_char
                0xa00012fc                app_thingspeak_missed_tx_char
                0xa0001300                app_thingspeak_res1
                0xa0001304                app_thingspeak_internal_comm_state
                0xa0001308                app_thingspeak_socket_was_connected
                0xa0001309                app_thingspeak_trigger
                0xa000130c                TransportState
                0xa0001310                do_app_thingspeak_1ms
 .sbss          0xa0001314       0x10 output\sht31d.o
                0xa0001314                sht31d_humidity
                0xa0001318                sht31d_temp
                0xa000131c                sht31d_state_machine
                0xa0001320                do_sht31d_1ms
 .sbss          0xa0001324        0x4 c:/program files (x86)/microchip/xc32/v2.30/bin/bin/../../lib/gcc/pic32mx/4.8.3/../../../../pic32mx/lib\liblega-c.a(errno.o)
                0xa0001324                errno
 *(.scommon)
 .scommon       0xa0001328        0x6 output\ad.o
                0xa0001328                adResults
 *fill*         0xa000132e        0x2 
 .scommon       0xa0001330       0x18 output\exceptions.o
                0xa0001330                _return_addr
                0xa0001334                tempB
                0xa0001338                tempA
                0xa000133c                _excep_code
                0xa0001340                tempResult
                0xa0001344                _excep_addr
 .scommon       0xa0001348        0xc output\dee_page.o
                0xa0001348                read_dee_page_size
                0xa000134c                read_dee_page
                0xa0001350                read_dee_page_startaddress
 .scommon       0xa0001354        0x4 output\dee.o
                0xa0001354                dataEEFlags
 .scommon       0xa0001358        0x4 output\bme280.o
                0xa0001358                t_fine
 .scommon       0xa000135c        0x9 output\ccs811.o
                0xa000135c                ccs811_meas_mode
                0xa0001360                ccs811_status
                0xa0001364                ccs811_error_id
 .scommon       0xa0001365        0x1 output\wifi.o
                0xa0001365                ConnectionProfileID
 .scommon       0xa0001366        0x6 output\UDP.o
                0xa0001366                UDPTxCount
                0xa0001368                activeUDPSocket
                0xa000136a                UDPRxCount
 .scommon       0xa000136c        0x1 output\http2.o
                0xa000136c                curHTTPID
 *fill*         0xa000136d        0x3 
 .scommon       0xa0001370        0x6 output\drv_wifi_raw.o
                0xa0001370                RawWindowState
                0xa0001374                RawWindowReady
 .scommon       0xa0001376        0x1 output\drv_wifi_power_save.o
                0xa0001376                g_rxDtim
 .scommon       0xa0001377        0x1 output\drv_wifi_mac.o
                0xa0001377                g_rxIndexSetBeyondBuffer
 .scommon       0xa0001378        0x2 output\drv_wifi_com.o
                0xa0001378                RawMoveState
 .scommon       0xa000137a        0xc output\custom_http_app.o
                0xa000137a                LED1_IO
                0xa000137b                BUTTON3_IO
                0xa000137c                LED2_IO
                0xa000137d                BUTTON1_IO
                0xa000137e                LED6_IO
                0xa000137f                LED7_IO
                0xa0001380                LED3_IO
                0xa0001381                BUTTON2_IO
                0xa0001382                BUTTON0_IO
                0xa0001383                LED5_IO
                0xa0001384                LED0_IO
                0xa0001385                LED4_IO
 *fill*         0xa0001386        0x2 
 .scommon       0xa0001388        0x8 output\app_thingspeak.o
                0xa0001388                app_thingspeak_server_ip
                0xa000138c                app_thingspeak_timeout
 .scommon       0xa0001390       0x10 output\sht31d.o
                0xa0001390                sht31d_measurement_poll
                0xa0001394                sht31d_data
                0xa000139c                sht31d_measurement_tmr
                0xa00013a0                _sbss_end = .
                0xa00013a0                . = ALIGN (0x4)

.bss            0xa00013a0      0x8ec
 *(.dynbss)
 *(COMMON)
 COMMON         0xa00013a0       0xf0 output\main.o
                0xa00013a0                loopCntHistory
 COMMON         0xa0001490        0xc output\dee_page.o
                0xa0001490                dee_debug_page_status
 COMMON         0xa000149c       0x48 output\eep_manager.o
                0xa000149c                eep_manager_write_all_trigger
                0xa00014c0                eep_manager_debug_address
 COMMON         0xa00014e4       0x20 output\ccs811.o
                0xa00014e4                ccs811_TempData
 COMMON         0xa0001504       0x90 output\iic_master_multi.o
                0xa0001504                iic_master_multi_data
 COMMON         0xa0001594       0xff output\wifi.o
                0xa0001594                AppConfig
                0xa0001630                g_WpsPassphrase
 *fill*         0xa0001693        0x1 
 COMMON         0xa0001694       0xe0 output\UDP.o
                0xa0001694                UDPSocketInfo
 COMMON         0xa0001774        0xa output\stack_task.o
                0xa0001774                remoteNode
 *fill*         0xa000177e        0x2 
 COMMON         0xa0001780       0x9c output\http2.o
                0xa0001780                curHTTP
                0xa000180c                httpStubs
 COMMON         0xa000181c       0x40 output\hashes.o
                0xa000181c                lastBlock
 COMMON         0xa000185c      0x430 output\app_thingspeak.o
                0xa000185c                app_thingspeak_reserve3Str
                0xa000187c                app_thingspeak_tx
                0xa000197c                app_thingspeak_reserve2Str
                0xa000199c                app_thingspeak_get_string
                0xa0001a9c                app_thingspeak_rx
                0xa0001b9c                app_thingspeak_CO2Str
                0xa0001bbc                app_thingspeak_reserve1Str
                0xa0001bdc                app_thingspeak_humidityStr
                0xa0001bfc                app_thingspeak_temperatureStr
                0xa0001c1c                app_thingspeak_pressureStr
                0xa0001c3c                app_thingspeak_LiPoVoltageStr
                0xa0001c5c                myRingBuffer_app_thingspeak_tx
                0xa0001c74                myRingBuffer_app_thingspeak_rx
                0xa0001c8c                . = ALIGN ((. != 0x0)?0x4:0x1)
                0xa0001c8c                . = ALIGN (0x4)
                0xa0001c8c                _end = .
                0xa0001c8c                _bss_end = .
                0x00007000                _bmxdudba_address = 0x7000
                0x00007000                _bmxdupba_address = 0x7000

/DISCARD/
 *(.pdr)
 *(.rel.dyn)
 *(.note.GNU-stack)
 *(.note.GNU-stack)
 *(.gnu_debuglink)
 *(.gnu.lto_*)
 *(.discard)
 *(._debug_exception)

.gptab.sdata
 *(.gptab.data)
 *(.gptab.sdata)

.gptab.sbss
 *(.gptab.bss)
 *(.gptab.sbss)

.mdebug.abi32   0xa0000000        0x0
 *(.mdebug.abi32)
 .mdebug.abi32  0xa0000000        0x0 output\main.o
 .mdebug.abi32  0xa0000000        0x0 output\bootloader_interface.o
 .mdebug.abi32  0xa0000000        0x0 output\app.o
 .mdebug.abi32  0xa0000000        0x0 output\ad.o
 .mdebug.abi32  0xa0000000        0x0 output\isr.o
 .mdebug.abi32  0xa0000000        0x0 output\exceptions.o
 .mdebug.abi32  0xa0000000        0x0 output\mal.o
 .mdebug.abi32  0xa0000000        0x0 output\noinitram.o
 .mdebug.abi32  0xa0000000        0x0 output\stackmeasure.o
 .mdebug.abi32  0xa0000000        0x0 output\tmr.o
 .mdebug.abi32  0xa0000000        0x0 output\sleep.o
 .mdebug.abi32  0xa0000000        0x0 output\eeprom.o
 .mdebug.abi32  0xa0000000        0x0 output\dee_page_helper.o
 .mdebug.abi32  0xa0000000        0x0 output\dee_page.o
 .mdebug.abi32  0xa0000000        0x0 output\dee.o
 .mdebug.abi32  0xa0000000        0x0 output\eep_manager_crc.o
 .mdebug.abi32  0xa0000000        0x0 output\eep_manager.o
 .mdebug.abi32  0xa0000000        0x0 output\c_eep_manager.o
 .mdebug.abi32  0xa0000000        0x0 output\bme280.o
 .mdebug.abi32  0xa0000000        0x0 output\bme280_conversion.o
 .mdebug.abi32  0xa0000000        0x0 output\ccs811.o
 .mdebug.abi32  0xa0000000        0x0 output\iic_master.o
 .mdebug.abi32  0xa0000000        0x0 output\iic_master_multi.o
 .mdebug.abi32  0xa0000000        0x0 output\wifi.o
 .mdebug.abi32  0xa0000000        0x0 output\UDP.o
 .mdebug.abi32  0xa0000000        0x0 output\Tick.o
 .mdebug.abi32  0xa0000000        0x0 output\tcp.o
 .mdebug.abi32  0xa0000000        0x0 output\stack_task.o
 .mdebug.abi32  0xa0000000        0x0 output\ssl.o
 .mdebug.abi32  0xa0000000        0x0 output\sntp.o
 .mdebug.abi32  0xa0000000        0x0 output\smtp_demo.o
 .mdebug.abi32  0xa0000000        0x0 output\smtp.o
 .mdebug.abi32  0xa0000000        0x0 output\rsa.o
 .mdebug.abi32  0xa0000000        0x0 output\reboot.o
 .mdebug.abi32  0xa0000000        0x0 output\random.o
 .mdebug.abi32  0xa0000000        0x0 output\nbns.o
 .mdebug.abi32  0xa0000000        0x0 output\mpfs2.o
 .mdebug.abi32  0xa0000000        0x0 output\IP.o
 .mdebug.abi32  0xa0000000        0x0 output\icmp.o
 .mdebug.abi32  0xa0000000        0x0 output\http2.o
 .mdebug.abi32  0xa0000000        0x0 output\Helpers.o
 .mdebug.abi32  0xa0000000        0x0 output\hashes.o
 .mdebug.abi32  0xa0000000        0x0 output\drv_wifi_spi.o
 .mdebug.abi32  0xa0000000        0x0 output\drv_wifi_raw.o
 .mdebug.abi32  0xa0000000        0x0 output\drv_wifi_power_save.o
 .mdebug.abi32  0xa0000000        0x0 output\drv_wifi_pbkdf2.o
 .mdebug.abi32  0xa0000000        0x0 output\drv_wifi_param_msg.o
 .mdebug.abi32  0xa0000000        0x0 output\drv_wifi_mgmt_msg.o
 .mdebug.abi32  0xa0000000        0x0 output\drv_wifi_mac.o
 .mdebug.abi32  0xa0000000        0x0 output\drv_wifi_init.o
 .mdebug.abi32  0xa0000000        0x0 output\drv_wifi_event_handler.o
 .mdebug.abi32  0xa0000000        0x0 output\drv_wifi_eint.o
 .mdebug.abi32  0xa0000000        0x0 output\drv_wifi_debug_strings.o
 .mdebug.abi32  0xa0000000        0x0 output\drv_wifi_connection_profile.o
 .mdebug.abi32  0xa0000000        0x0 output\drv_wifi_connection_manager.o
 .mdebug.abi32  0xa0000000        0x0 output\drv_wifi_connection_algorithm.o
 .mdebug.abi32  0xa0000000        0x0 output\drv_wifi_config.o
 .mdebug.abi32  0xa0000000        0x0 output\drv_wifi_com.o
 .mdebug.abi32  0xa0000000        0x0 output\dns_client.o
 .mdebug.abi32  0xa0000000        0x0 output\dhcp_client.o
 .mdebug.abi32  0xa0000000        0x0 output\Delay.o
 .mdebug.abi32  0xa0000000        0x0 output\custom_ssl_cert.o
 .mdebug.abi32  0xa0000000        0x0 output\custom_http_app.o
 .mdebug.abi32  0xa0000000        0x0 output\big_int.o
 .mdebug.abi32  0xa0000000        0x0 output\ARP.o
 .mdebug.abi32  0xa0000000        0x0 output\arc4.o
 .mdebug.abi32  0xa0000000        0x0 output\announce.o
 .mdebug.abi32  0xa0000000        0x0 output\mpfs_img2.o
 .mdebug.abi32  0xa0000000        0x0 output\http_print.o
 .mdebug.abi32  0xa0000000        0x0 output\http_get.o
 .mdebug.abi32  0xa0000000        0x0 output\app_thingspeak.o
 .mdebug.abi32  0xa0000000        0x0 output\ringBuffer.o
 .mdebug.abi32  0xa0000000        0x0 output\sht31d.o
 .mdebug.abi32  0xa0000000        0x0 c:/program files (x86)/microchip/xc32/v2.30/bin/bin/../../lib/gcc/pic32mx/4.8.3/../../../../pic32mx/lib\libmchp_peripheral_32MX440F256H.a(soft_reset_lib.o)
 .mdebug.abi32  0xa0000000        0x0 c:/program files (x86)/microchip/xc32/v2.30/bin/bin/../../lib/gcc/pic32mx/4.8.3/../../../../pic32mx/lib\libmchp_peripheral_32MX440F256H.a(pcache.o)
 .mdebug.abi32  0xa0000000        0x0 c:/program files (x86)/microchip/xc32/v2.30/bin/bin/../../lib/gcc/pic32mx/4.8.3/../../../../pic32mx/lib\libmchp_peripheral_32MX440F256H.a(int_disable_interrupts_lib.o)
 .mdebug.abi32  0xa0000000        0x0 c:/program files (x86)/microchip/xc32/v2.30/bin/bin/../../lib/gcc/pic32mx/4.8.3/../../../../pic32mx/lib\libmchp_peripheral_32MX440F256H.a(power_idle_lib.o)
 .mdebug.abi32  0xa0000000        0x0 c:/program files (x86)/microchip/xc32/v2.30/bin/bin/../../lib/gcc/pic32mx/4.8.3/../../../../pic32mx/lib\libmchp_peripheral_32MX440F256H.a(power_sleep_lib.o)
 .mdebug.abi32  0xa0000000        0x0 c:/program files (x86)/microchip/xc32/v2.30/bin/bin/../../lib/gcc/pic32mx/4.8.3/../../../../pic32mx/lib\libmchp_peripheral_32MX440F256H.a(nvm_erase_page_lib.o)
 .mdebug.abi32  0xa0000000        0x0 c:/program files (x86)/microchip/xc32/v2.30/bin/bin/../../lib/gcc/pic32mx/4.8.3/../../../../pic32mx/lib\libmchp_peripheral_32MX440F256H.a(nvm_operation_lib.o)
 .mdebug.abi32  0xa0000000        0x0 c:/program files (x86)/microchip/xc32/v2.30/bin/bin/../../lib/gcc/pic32mx/4.8.3/../../../../pic32mx/lib\libmchp_peripheral_32MX440F256H.a(nvm_write_word_lib.o)
 .mdebug.abi32  0xa0000000        0x0 c:/program files (x86)/microchip/xc32/v2.30/bin/bin/../../lib/gcc/pic32mx/4.8.3/../../../../pic32mx/lib\libmchp_peripheral_32MX440F256H.a(int_restore_interrupts_lib.o)
 .mdebug.abi32  0xa0000000        0x0 c:/program files (x86)/microchip/xc32/v2.30/bin/bin/../../lib/gcc/pic32mx/4.8.3\libgcc.a(_divdi3.o)
 .mdebug.abi32  0xa0000000        0x0 c:/program files (x86)/microchip/xc32/v2.30/bin/bin/../../lib/gcc/pic32mx/4.8.3\libgcc.a(floatunsisf.o)
 .mdebug.abi32  0xa0000000        0x0 c:/program files (x86)/microchip/xc32/v2.30/bin/bin/../../lib/gcc/pic32mx/4.8.3/../../../../pic32mx/lib\libpic32.a(default-bootstrap-exception-handler.o)
 .mdebug.abi32  0xa0000000        0x0 c:/program files (x86)/microchip/xc32/v2.30/bin/bin/../../lib/gcc/pic32mx/4.8.3/../../../../pic32mx/lib\libpic32.a(default-on-reset.o)
 .mdebug.abi32  0xa0000000        0x0 c:/program files (x86)/microchip/xc32/v2.30/bin/bin/../../lib/gcc/pic32mx/4.8.3/../../../../pic32mx/lib\libpic32.a(default-on-bootstrap.o)
 .mdebug.abi32  0xa0000000        0x0 c:/program files (x86)/microchip/xc32/v2.30/bin/bin/../../lib/gcc/pic32mx/4.8.3/../../../../pic32mx/lib\libpic32.a(defaultinterrupt.o)
 .mdebug.abi32  0xa0000000        0x0 c:/program files (x86)/microchip/xc32/v2.30/bin/bin/../../lib/gcc/pic32mx/4.8.3/../../../../pic32mx/lib\liblega-c.a(strncpy.o)
 .mdebug.abi32  0xa0000000        0x0 c:/program files (x86)/microchip/xc32/v2.30/bin/bin/../../lib/gcc/pic32mx/4.8.3/../../../../pic32mx/lib\liblega-c.a(atol.o)
 .mdebug.abi32  0xa0000000        0x0 c:/program files (x86)/microchip/xc32/v2.30/bin/bin/../../lib/gcc/pic32mx/4.8.3/../../../../pic32mx/lib\liblega-c.a(strtol.o)
 .mdebug.abi32  0xa0000000        0x0 c:/program files (x86)/microchip/xc32/v2.30/bin/bin/../../lib/gcc/pic32mx/4.8.3/../../../../pic32mx/lib\liblega-c.a(sprintf_cdfFnopsuxX.eo)
 .mdebug.abi32  0xa0000000        0x0 c:/program files (x86)/microchip/xc32/v2.30/bin/bin/../../lib/gcc/pic32mx/4.8.3/../../../../pic32mx/lib\liblega-c.a(ctype.o)
 .mdebug.abi32  0xa0000000        0x0 c:/program files (x86)/microchip/xc32/v2.30/bin/bin/../../lib/gcc/pic32mx/4.8.3/../../../../pic32mx/lib\liblega-c.a(errno.o)
 .mdebug.abi32  0xa0000000        0x0 c:/program files (x86)/microchip/xc32/v2.30/bin/bin/../../lib/gcc/pic32mx/4.8.3/../../../../pic32mx/lib\liblega-c.a(_doprnt_cdfFnopsuxX.eo)
 .mdebug.abi32  0xa0000000        0x0 c:/program files (x86)/microchip/xc32/v2.30/bin/bin/../../lib/gcc/pic32mx/4.8.3/../../../../pic32mx/lib\liblega-c.a(_iobdata.o)
 .mdebug.abi32  0xa0000000        0x0 c:/program files (x86)/microchip/xc32/v2.30/bin/bin/../../lib/gcc/pic32mx/4.8.3/../../../../pic32mx/lib\liblega-c.a(_iobfuncs.o)
 .mdebug.abi32  0xa0000000        0x0 c:/program files (x86)/microchip/xc32/v2.30/bin/bin/../../lib/gcc/pic32mx/4.8.3/../../../../pic32mx/lib\liblega-c.a(_iobstring.o)
 .mdebug.abi32  0xa0000000        0x0 c:/program files (x86)/microchip/xc32/v2.30/bin/bin/../../lib/gcc/pic32mx/4.8.3/../../../../pic32mx/lib\liblega-c.a(fputc.o)
 .mdebug.abi32  0xa0000000        0x0 c:/program files (x86)/microchip/xc32/v2.30/bin/bin/../../lib/gcc/pic32mx/4.8.3/../../../../pic32mx/lib\libm.a(w_powf.o)
 .mdebug.abi32  0xa0000000        0x0 c:/program files (x86)/microchip/xc32/v2.30/bin/bin/../../lib/gcc/pic32mx/4.8.3/../../../../pic32mx/lib\libm.a(s_lib_ver.o)
 .mdebug.abi32  0xa0000000        0x0 c:/program files (x86)/microchip/xc32/v2.30/bin/bin/../../lib/gcc/pic32mx/4.8.3\libgcc.a(_udivdi3.o)
 .mdebug.abi32  0xa0000000        0x0 c:/program files (x86)/microchip/xc32/v2.30/bin/bin/../../lib/gcc/pic32mx/4.8.3\libgcc.a(_umoddi3.o)
 .mdebug.abi32  0xa0000000        0x0 c:/program files (x86)/microchip/xc32/v2.30/bin/bin/../../lib/gcc/pic32mx/4.8.3/../../../../pic32mx/lib\libpic32.a(_mon_getc.o)
 .mdebug.abi32  0xa0000000        0x0 c:/program files (x86)/microchip/xc32/v2.30/bin/bin/../../lib/gcc/pic32mx/4.8.3/../../../../pic32mx/lib\libpic32.a(_mon_write.o)
 .mdebug.abi32  0xa0000000        0x0 c:/program files (x86)/microchip/xc32/v2.30/bin/bin/../../lib/gcc/pic32mx/4.8.3/../../../../pic32mx/lib\libpic32.a(xc32_uart.o)
 .mdebug.abi32  0xa0000000        0x0 c:/program files (x86)/microchip/xc32/v2.30/bin/bin/../../lib/gcc/pic32mx/4.8.3/../../../../pic32mx/lib\libpic32.a(isinf.o)
 .mdebug.abi32  0xa0000000        0x0 c:/program files (x86)/microchip/xc32/v2.30/bin/bin/../../lib/gcc/pic32mx/4.8.3/../../../../pic32mx/lib\libpic32.a(_mon_putc.o)
 .mdebug.abi32  0xa0000000        0x0 c:/program files (x86)/microchip/xc32/v2.30/bin/bin/../../lib/gcc/pic32mx/4.8.3/../../../../pic32mx/lib\libe.a(_unorddf2.o)

.mdebug.abiN32
 *(.mdebug.abiN32)

.mdebug.abi64
 *(.mdebug.abi64)

.mdebug.abiO64
 *(.mdebug.abiO64)

.mdebug.eabi32
 *(.mdebug.eabi32)

.mdebug.eabi64
 *(.mdebug.eabi64)

.gcc_compiled_long32
 *(.gcc_compiled_long32)

.gcc_compiled_long64
 *(.gcc_compiled_long64)

.stab
 *(.stab)

.stabstr
 *(.stabstr)

.stab.excl
 *(.stab.excl)

.stab.exclstr
 *(.stab.exclstr)

.stab.index
 *(.stab.index)

.stab.indexstr
 *(.stab.indexstr)

.comment        0x00000000      0x4b9
 *(.comment)
 .comment       0x00000000       0x3c output\main.o
                                 0x3d (size before relaxing)
 .comment       0x00000000       0x3d output\bootloader_interface.o
 .comment       0x00000000       0x3d output\app.o
 .comment       0x00000000       0x3d output\ad.o
 .comment       0x00000000       0x3d output\isr.o
 .comment       0x00000000       0x3d output\exceptions.o
 .comment       0x00000000       0x3d output\mal.o
 .comment       0x00000000       0x3d output\noinitram.o
 .comment       0x00000000       0x3d output\stackmeasure.o
 .comment       0x00000000       0x3d output\tmr.o
 .comment       0x00000000       0x3d output\sleep.o
 .comment       0x00000000       0x3d output\eeprom.o
 .comment       0x00000000       0x3d output\dee_page_helper.o
 .comment       0x00000000       0x3d output\dee_page.o
 .comment       0x00000000       0x3d output\dee.o
 .comment       0x00000000       0x3d output\eep_manager_crc.o
 .comment       0x00000000       0x3d output\eep_manager.o
 .comment       0x00000000       0x3d output\c_eep_manager.o
 .comment       0x00000000       0x3d output\bme280.o
 .comment       0x00000000       0x3d output\bme280_conversion.o
 .comment       0x00000000       0x3d output\ccs811.o
 .comment       0x00000000       0x3d output\iic_master.o
 .comment       0x00000000       0x3d output\iic_master_multi.o
 .comment       0x00000000       0x3d output\wifi.o
 .comment       0x00000000       0x3d output\UDP.o
 .comment       0x00000000       0x3d output\Tick.o
 .comment       0x00000000       0x3d output\tcp.o
 .comment       0x00000000       0x3d output\stack_task.o
 .comment       0x00000000       0x3d output\ssl.o
 .comment       0x00000000       0x3d output\sntp.o
 .comment       0x00000000       0x3d output\smtp_demo.o
 .comment       0x00000000       0x3d output\smtp.o
 .comment       0x00000000       0x3d output\rsa.o
 .comment       0x00000000       0x3d output\reboot.o
 .comment       0x00000000       0x3d output\random.o
 .comment       0x00000000       0x3d output\nbns.o
 .comment       0x00000000       0x3d output\mpfs2.o
 .comment       0x00000000       0x3d output\IP.o
 .comment       0x00000000       0x3d output\icmp.o
 .comment       0x00000000       0x3d output\http2.o
 .comment       0x00000000       0x3d output\Helpers.o
 .comment       0x00000000       0x3d output\hashes.o
 .comment       0x00000000       0x3d output\drv_wifi_spi.o
 .comment       0x00000000       0x3d output\drv_wifi_raw.o
 .comment       0x00000000       0x3d output\drv_wifi_power_save.o
 .comment       0x00000000       0x3d output\drv_wifi_pbkdf2.o
 .comment       0x00000000       0x3d output\drv_wifi_param_msg.o
 .comment       0x00000000       0x3d output\drv_wifi_mgmt_msg.o
 .comment       0x00000000       0x3d output\drv_wifi_mac.o
 .comment       0x00000000       0x3d output\drv_wifi_init.o
 .comment       0x00000000       0x3d output\drv_wifi_event_handler.o
 .comment       0x00000000       0x3d output\drv_wifi_eint.o
 .comment       0x00000000       0x3d output\drv_wifi_debug_strings.o
 .comment       0x00000000       0x3d output\drv_wifi_connection_profile.o
 .comment       0x00000000       0x3d output\drv_wifi_connection_manager.o
 .comment       0x00000000       0x3d output\drv_wifi_connection_algorithm.o
 .comment       0x00000000       0x3d output\drv_wifi_config.o
 .comment       0x00000000       0x3d output\drv_wifi_com.o
 .comment       0x00000000       0x3d output\dns_client.o
 .comment       0x00000000       0x3d output\dhcp_client.o
 .comment       0x00000000       0x3d output\Delay.o
 .comment       0x00000000       0x3d output\custom_ssl_cert.o
 .comment       0x00000000       0x3d output\custom_http_app.o
 .comment       0x00000000       0x3d output\big_int.o
 .comment       0x00000000       0x3d output\ARP.o
 .comment       0x00000000       0x3d output\arc4.o
 .comment       0x00000000       0x3d output\announce.o
 .comment       0x00000000       0x3d output\mpfs_img2.o
 .comment       0x00000000       0x3d output\http_print.o
 .comment       0x00000000       0x3d output\http_get.o
 .comment       0x00000000       0x3d output\app_thingspeak.o
 .comment       0x00000000       0x3d output\ringBuffer.o
 .comment       0x00000000       0x3d output\sht31d.o
 .comment       0x0000003c       0x3c c:/program files (x86)/microchip/xc32/v2.30/bin/bin/../../lib/gcc/pic32mx/4.8.3/../../../../pic32mx/lib\libmchp_peripheral_32MX440F256H.a(soft_reset_lib.o)
                                 0x3d (size before relaxing)
 .comment       0x00000000       0x3d c:/program files (x86)/microchip/xc32/v2.30/bin/bin/../../lib/gcc/pic32mx/4.8.3/../../../../pic32mx/lib\libmchp_peripheral_32MX440F256H.a(pcache.o)
 .comment       0x00000000       0x3d c:/program files (x86)/microchip/xc32/v2.30/bin/bin/../../lib/gcc/pic32mx/4.8.3/../../../../pic32mx/lib\libmchp_peripheral_32MX440F256H.a(int_disable_interrupts_lib.o)
 .comment       0x00000000       0x3d c:/program files (x86)/microchip/xc32/v2.30/bin/bin/../../lib/gcc/pic32mx/4.8.3/../../../../pic32mx/lib\libmchp_peripheral_32MX440F256H.a(power_idle_lib.o)
 .comment       0x00000000       0x3d c:/program files (x86)/microchip/xc32/v2.30/bin/bin/../../lib/gcc/pic32mx/4.8.3/../../../../pic32mx/lib\libmchp_peripheral_32MX440F256H.a(power_sleep_lib.o)
 .comment       0x00000000       0x3d c:/program files (x86)/microchip/xc32/v2.30/bin/bin/../../lib/gcc/pic32mx/4.8.3/../../../../pic32mx/lib\libmchp_peripheral_32MX440F256H.a(nvm_erase_page_lib.o)
 .comment       0x00000000       0x3d c:/program files (x86)/microchip/xc32/v2.30/bin/bin/../../lib/gcc/pic32mx/4.8.3/../../../../pic32mx/lib\libmchp_peripheral_32MX440F256H.a(nvm_operation_lib.o)
 .comment       0x00000000       0x3d c:/program files (x86)/microchip/xc32/v2.30/bin/bin/../../lib/gcc/pic32mx/4.8.3/../../../../pic32mx/lib\libmchp_peripheral_32MX440F256H.a(nvm_write_word_lib.o)
 .comment       0x00000000       0x3d c:/program files (x86)/microchip/xc32/v2.30/bin/bin/../../lib/gcc/pic32mx/4.8.3/../../../../pic32mx/lib\libmchp_peripheral_32MX440F256H.a(int_restore_interrupts_lib.o)
 .comment       0x00000000       0x3d c:/program files (x86)/microchip/xc32/v2.30/bin/bin/../../lib/gcc/pic32mx/4.8.3\libgcc.a(_divdi3.o)
 .comment       0x00000000       0x3d c:/program files (x86)/microchip/xc32/v2.30/bin/bin/../../lib/gcc/pic32mx/4.8.3\libgcc.a(floatunsisf.o)
 .comment       0x00000078       0x18 c:/program files (x86)/microchip/xc32/v2.30/bin/bin/../../lib/gcc/pic32mx/4.8.3/../../../../pic32mx/lib\libpic32.a(memcmp.o)
                                 0x19 (size before relaxing)
 .comment       0x00000090       0x18 c:/program files (x86)/microchip/xc32/v2.30/bin/bin/../../lib/gcc/pic32mx/4.8.3/../../../../pic32mx/lib\libpic32.a(memset.o)
                                 0x19 (size before relaxing)
 .comment       0x000000a8       0x19 c:/program files (x86)/microchip/xc32/v2.30/bin/bin/../../lib/gcc/pic32mx/4.8.3/../../../../pic32mx/lib\libpic32.a(strcmp.o)
                                 0x1a (size before relaxing)
 .comment       0x000000c1       0x19 c:/program files (x86)/microchip/xc32/v2.30/bin/bin/../../lib/gcc/pic32mx/4.8.3/../../../../pic32mx/lib\libpic32.a(strcpy.o)
                                 0x1a (size before relaxing)
 .comment       0x000000da       0x19 c:/program files (x86)/microchip/xc32/v2.30/bin/bin/../../lib/gcc/pic32mx/4.8.3/../../../../pic32mx/lib\libpic32.a(strlen.o)
                                 0x1a (size before relaxing)
 .comment       0x00000000       0x3d c:/program files (x86)/microchip/xc32/v2.30/bin/bin/../../lib/gcc/pic32mx/4.8.3/../../../../pic32mx/lib\libpic32.a(default-bootstrap-exception-handler.o)
 .comment       0x00000000       0x3d c:/program files (x86)/microchip/xc32/v2.30/bin/bin/../../lib/gcc/pic32mx/4.8.3/../../../../pic32mx/lib\libpic32.a(default-on-reset.o)
 .comment       0x00000000       0x3d c:/program files (x86)/microchip/xc32/v2.30/bin/bin/../../lib/gcc/pic32mx/4.8.3/../../../../pic32mx/lib\libpic32.a(default-on-bootstrap.o)
 .comment       0x00000000       0x3d c:/program files (x86)/microchip/xc32/v2.30/bin/bin/../../lib/gcc/pic32mx/4.8.3/../../../../pic32mx/lib\libpic32.a(defaultinterrupt.o)
 .comment       0x000000f3       0x50 c:/program files (x86)/microchip/xc32/v2.30/bin/bin/../../lib/gcc/pic32mx/4.8.3/../../../../pic32mx/lib\liblega-c.a(strncpy.o)
                                 0x8d (size before relaxing)
 .comment       0x00000143       0x4d c:/program files (x86)/microchip/xc32/v2.30/bin/bin/../../lib/gcc/pic32mx/4.8.3/../../../../pic32mx/lib\liblega-c.a(atol.o)
                                 0x8a (size before relaxing)
 .comment       0x00000190       0x4f c:/program files (x86)/microchip/xc32/v2.30/bin/bin/../../lib/gcc/pic32mx/4.8.3/../../../../pic32mx/lib\liblega-c.a(strtol.o)
                                 0x8c (size before relaxing)
 .comment       0x000001df       0x52 c:/program files (x86)/microchip/xc32/v2.30/bin/bin/../../lib/gcc/pic32mx/4.8.3/../../../../pic32mx/lib\liblega-c.a(sprintf_cdfFnopsuxX.eo)
                                 0x8f (size before relaxing)
 .comment       0x00000231       0x4e c:/program files (x86)/microchip/xc32/v2.30/bin/bin/../../lib/gcc/pic32mx/4.8.3/../../../../pic32mx/lib\liblega-c.a(ctype.o)
                                 0x8b (size before relaxing)
 .comment       0x0000027f       0x4e c:/program files (x86)/microchip/xc32/v2.30/bin/bin/../../lib/gcc/pic32mx/4.8.3/../../../../pic32mx/lib\liblega-c.a(errno.o)
                                 0x8b (size before relaxing)
 .comment       0x000002cd       0x52 c:/program files (x86)/microchip/xc32/v2.30/bin/bin/../../lib/gcc/pic32mx/4.8.3/../../../../pic32mx/lib\liblega-c.a(_doprnt_cdfFnopsuxX.eo)
                                 0x8f (size before relaxing)
 .comment       0x0000031f       0x53 c:/program files (x86)/microchip/xc32/v2.30/bin/bin/../../lib/gcc/pic32mx/4.8.3/../../../../pic32mx/lib\liblega-c.a(_iobdata.o)
                                 0x90 (size before relaxing)
 .comment       0x00000372       0x54 c:/program files (x86)/microchip/xc32/v2.30/bin/bin/../../lib/gcc/pic32mx/4.8.3/../../../../pic32mx/lib\liblega-c.a(_iobfuncs.o)
                                 0x91 (size before relaxing)
 .comment       0x000003c6       0x55 c:/program files (x86)/microchip/xc32/v2.30/bin/bin/../../lib/gcc/pic32mx/4.8.3/../../../../pic32mx/lib\liblega-c.a(_iobstring.o)
                                 0x92 (size before relaxing)
 .comment       0x0000041b       0x50 c:/program files (x86)/microchip/xc32/v2.30/bin/bin/../../lib/gcc/pic32mx/4.8.3/../../../../pic32mx/lib\liblega-c.a(fputc.o)
                                 0x8d (size before relaxing)
 .comment       0x00000000       0x3d c:/program files (x86)/microchip/xc32/v2.30/bin/bin/../../lib/gcc/pic32mx/4.8.3/../../../../pic32mx/lib\libm.a(w_powf.o)
 .comment       0x00000000       0x3d c:/program files (x86)/microchip/xc32/v2.30/bin/bin/../../lib/gcc/pic32mx/4.8.3/../../../../pic32mx/lib\libm.a(s_lib_ver.o)
 .comment       0x00000000       0x3d c:/program files (x86)/microchip/xc32/v2.30/bin/bin/../../lib/gcc/pic32mx/4.8.3\libgcc.a(_udivdi3.o)
 .comment       0x00000000       0x3d c:/program files (x86)/microchip/xc32/v2.30/bin/bin/../../lib/gcc/pic32mx/4.8.3\libgcc.a(_umoddi3.o)
 .comment       0x00000000       0x3d c:/program files (x86)/microchip/xc32/v2.30/bin/bin/../../lib/gcc/pic32mx/4.8.3/../../../../pic32mx/lib\libpic32.a(_mon_getc.o)
 .comment       0x00000000       0x3d c:/program files (x86)/microchip/xc32/v2.30/bin/bin/../../lib/gcc/pic32mx/4.8.3/../../../../pic32mx/lib\libpic32.a(_mon_write.o)
 .comment       0x00000000       0x3d c:/program files (x86)/microchip/xc32/v2.30/bin/bin/../../lib/gcc/pic32mx/4.8.3/../../../../pic32mx/lib\libpic32.a(xc32_uart.o)
 .comment       0x00000000       0x3d c:/program files (x86)/microchip/xc32/v2.30/bin/bin/../../lib/gcc/pic32mx/4.8.3/../../../../pic32mx/lib\libpic32.a(isinf.o)
 .comment       0x00000000       0x3d c:/program files (x86)/microchip/xc32/v2.30/bin/bin/../../lib/gcc/pic32mx/4.8.3/../../../../pic32mx/lib\libpic32.a(_mon_putc.o)
 .comment       0x0000046b       0x4e c:/program files (x86)/microchip/xc32/v2.30/bin/bin/../../lib/gcc/pic32mx/4.8.3/../../../../pic32mx/lib\libe.a(_unorddf2.o)
                                 0x8b (size before relaxing)

.debug
 *(.debug)

.line
 *(.line)

.debug_srcinfo
 *(.debug_srcinfo)

.debug_sfnames
 *(.debug_sfnames)

.debug_aranges  0x00000000      0xc00
 *(.debug_aranges)
 .debug_aranges
                0x00000000       0x20 output\main.o
 .debug_aranges
                0x00000020       0x20 output\bootloader_interface.o
 .debug_aranges
                0x00000040       0x20 output\app.o
 .debug_aranges
                0x00000060       0x20 output\ad.o
 .debug_aranges
                0x00000080       0x20 output\isr.o
 .debug_aranges
                0x000000a0       0x20 output\exceptions.o
 .debug_aranges
                0x000000c0       0x20 output\mal.o
 .debug_aranges
                0x000000e0       0x20 output\noinitram.o
 .debug_aranges
                0x00000100       0x20 output\stackmeasure.o
 .debug_aranges
                0x00000120       0x20 output\stackmeasure_helper.o
 .debug_aranges
                0x00000140       0x20 output\tmr.o
 .debug_aranges
                0x00000160       0x20 output\sleep.o
 .debug_aranges
                0x00000180       0x20 output\eeprom.o
 .debug_aranges
                0x000001a0       0x20 output\dee_page_helper.o
 .debug_aranges
                0x000001c0       0x20 output\dee_page.o
 .debug_aranges
                0x000001e0       0x20 output\dee.o
 .debug_aranges
                0x00000200       0x20 output\eep_manager_crc.o
 .debug_aranges
                0x00000220       0x20 output\eep_manager.o
 .debug_aranges
                0x00000240       0x18 output\c_eep_manager.o
 .debug_aranges
                0x00000258       0x20 output\bme280.o
 .debug_aranges
                0x00000278       0x20 output\bme280_conversion.o
 .debug_aranges
                0x00000298       0x20 output\ccs811.o
 .debug_aranges
                0x000002b8       0x20 output\iic_master.o
 .debug_aranges
                0x000002d8       0x20 output\iic_master_multi.o
 .debug_aranges
                0x000002f8       0x20 output\wifi.o
 .debug_aranges
                0x00000318       0x20 output\UDP.o
 .debug_aranges
                0x00000338       0x20 output\Tick.o
 .debug_aranges
                0x00000358       0x20 output\tcp.o
 .debug_aranges
                0x00000378       0x20 output\stack_task.o
 .debug_aranges
                0x00000398       0x18 output\ssl.o
 .debug_aranges
                0x000003b0       0x20 output\sntp.o
 .debug_aranges
                0x000003d0       0x18 output\smtp_demo.o
 .debug_aranges
                0x000003e8       0x18 output\smtp.o
 .debug_aranges
                0x00000400       0x18 output\rsa.o
 .debug_aranges
                0x00000418       0x20 output\reboot.o
 .debug_aranges
                0x00000438       0x18 output\random.o
 .debug_aranges
                0x00000450       0x20 output\nbns.o
 .debug_aranges
                0x00000470       0x20 output\mpfs2.o
 .debug_aranges
                0x00000490       0x20 output\IP.o
 .debug_aranges
                0x000004b0       0x20 output\icmp.o
 .debug_aranges
                0x000004d0       0x20 output\http2.o
 .debug_aranges
                0x000004f0       0x20 output\Helpers.o
 .debug_aranges
                0x00000510       0x20 output\hashes.o
 .debug_aranges
                0x00000530       0x20 output\drv_wifi_spi.o
 .debug_aranges
                0x00000550       0x20 output\drv_wifi_raw.o
 .debug_aranges
                0x00000570       0x20 output\drv_wifi_power_save.o
 .debug_aranges
                0x00000590       0x20 output\drv_wifi_pbkdf2.o
 .debug_aranges
                0x000005b0       0x20 output\drv_wifi_param_msg.o
 .debug_aranges
                0x000005d0       0x20 output\drv_wifi_mgmt_msg.o
 .debug_aranges
                0x000005f0       0x20 output\drv_wifi_mac.o
 .debug_aranges
                0x00000610       0x20 output\drv_wifi_init.o
 .debug_aranges
                0x00000630       0x20 output\drv_wifi_event_handler.o
 .debug_aranges
                0x00000650       0x20 output\drv_wifi_eint.o
 .debug_aranges
                0x00000670       0x20 output\drv_wifi_debug_strings.o
 .debug_aranges
                0x00000690       0x20 output\drv_wifi_connection_profile.o
 .debug_aranges
                0x000006b0       0x20 output\drv_wifi_connection_manager.o
 .debug_aranges
                0x000006d0       0x20 output\drv_wifi_connection_algorithm.o
 .debug_aranges
                0x000006f0       0x20 output\drv_wifi_config.o
 .debug_aranges
                0x00000710       0x20 output\drv_wifi_com.o
 .debug_aranges
                0x00000730       0x20 output\dns_client.o
 .debug_aranges
                0x00000750       0x20 output\dhcp_client.o
 .debug_aranges
                0x00000770       0x20 output\Delay.o
 .debug_aranges
                0x00000790       0x18 output\custom_ssl_cert.o
 .debug_aranges
                0x000007a8       0x20 output\custom_http_app.o
 .debug_aranges
                0x000007c8       0x18 output\big_int.o
 .debug_aranges
                0x000007e0       0x20 output\ARP.o
 .debug_aranges
                0x00000800       0x18 output\arc4.o
 .debug_aranges
                0x00000818       0x20 output\announce.o
 .debug_aranges
                0x00000838       0x18 output\mpfs_img2.o
 .debug_aranges
                0x00000850       0x20 output\http_print.o
 .debug_aranges
                0x00000870       0x20 output\http_get.o
 .debug_aranges
                0x00000890       0x20 output\app_thingspeak.o
 .debug_aranges
                0x000008b0       0x20 output\ringBuffer.o
 .debug_aranges
                0x000008d0       0x20 output\sht31d.o
 .debug_aranges
                0x000008f0       0x20 c:/program files (x86)/microchip/xc32/v2.30/bin/bin/../../lib/gcc/pic32mx/4.8.3/../../../../pic32mx/lib\libmchp_peripheral_32MX440F256H.a(soft_reset_lib.o)
 .debug_aranges
                0x00000910       0x28 c:/program files (x86)/microchip/xc32/v2.30/bin/bin/../../lib/gcc/pic32mx/4.8.3/../../../../pic32mx/lib\libmchp_peripheral_32MX440F256H.a(pcache.o)
 .debug_aranges
                0x00000938       0x20 c:/program files (x86)/microchip/xc32/v2.30/bin/bin/../../lib/gcc/pic32mx/4.8.3/../../../../pic32mx/lib\libmchp_peripheral_32MX440F256H.a(int_disable_interrupts_lib.o)
 .debug_aranges
                0x00000958       0x20 c:/program files (x86)/microchip/xc32/v2.30/bin/bin/../../lib/gcc/pic32mx/4.8.3/../../../../pic32mx/lib\libmchp_peripheral_32MX440F256H.a(power_idle_lib.o)
 .debug_aranges
                0x00000978       0x20 c:/program files (x86)/microchip/xc32/v2.30/bin/bin/../../lib/gcc/pic32mx/4.8.3/../../../../pic32mx/lib\libmchp_peripheral_32MX440F256H.a(power_sleep_lib.o)
 .debug_aranges
                0x00000998       0x20 c:/program files (x86)/microchip/xc32/v2.30/bin/bin/../../lib/gcc/pic32mx/4.8.3/../../../../pic32mx/lib\libmchp_peripheral_32MX440F256H.a(nvm_erase_page_lib.o)
 .debug_aranges
                0x000009b8       0x20 c:/program files (x86)/microchip/xc32/v2.30/bin/bin/../../lib/gcc/pic32mx/4.8.3/../../../../pic32mx/lib\libmchp_peripheral_32MX440F256H.a(nvm_operation_lib.o)
 .debug_aranges
                0x000009d8       0x20 c:/program files (x86)/microchip/xc32/v2.30/bin/bin/../../lib/gcc/pic32mx/4.8.3/../../../../pic32mx/lib\libmchp_peripheral_32MX440F256H.a(nvm_write_word_lib.o)
 .debug_aranges
                0x000009f8       0x20 c:/program files (x86)/microchip/xc32/v2.30/bin/bin/../../lib/gcc/pic32mx/4.8.3/../../../../pic32mx/lib\libmchp_peripheral_32MX440F256H.a(int_restore_interrupts_lib.o)
 .debug_aranges
                0x00000a18       0x20 c:/program files (x86)/microchip/xc32/v2.30/bin/bin/../../lib/gcc/pic32mx/4.8.3\libgcc.a(_divdi3.o)
 .debug_aranges
                0x00000a38       0x20 c:/program files (x86)/microchip/xc32/v2.30/bin/bin/../../lib/gcc/pic32mx/4.8.3\libgcc.a(floatunsisf.o)
 .debug_aranges
                0x00000a58       0x20 c:/program files (x86)/microchip/xc32/v2.30/bin/bin/../../lib/gcc/pic32mx/4.8.3/../../../../pic32mx/lib\libpic32.a(default-bootstrap-exception-handler.o)
 .debug_aranges
                0x00000a78       0x20 c:/program files (x86)/microchip/xc32/v2.30/bin/bin/../../lib/gcc/pic32mx/4.8.3/../../../../pic32mx/lib\libpic32.a(default-on-reset.o)
 .debug_aranges
                0x00000a98       0x20 c:/program files (x86)/microchip/xc32/v2.30/bin/bin/../../lib/gcc/pic32mx/4.8.3/../../../../pic32mx/lib\libpic32.a(default-on-bootstrap.o)
 .debug_aranges
                0x00000ab8       0x20 c:/program files (x86)/microchip/xc32/v2.30/bin/bin/../../lib/gcc/pic32mx/4.8.3/../../../../pic32mx/lib\libpic32.a(defaultinterrupt.o)
 .debug_aranges
                0x00000ad8       0x20 c:/program files (x86)/microchip/xc32/v2.30/bin/bin/../../lib/gcc/pic32mx/4.8.3/../../../../pic32mx/lib\libm.a(w_powf.o)
 .debug_aranges
                0x00000af8       0x20 c:/program files (x86)/microchip/xc32/v2.30/bin/bin/../../lib/gcc/pic32mx/4.8.3\libgcc.a(_udivdi3.o)
 .debug_aranges
                0x00000b18       0x20 c:/program files (x86)/microchip/xc32/v2.30/bin/bin/../../lib/gcc/pic32mx/4.8.3\libgcc.a(_umoddi3.o)
 .debug_aranges
                0x00000b38       0x20 c:/program files (x86)/microchip/xc32/v2.30/bin/bin/../../lib/gcc/pic32mx/4.8.3/../../../../pic32mx/lib\libpic32.a(_mon_getc.o)
 .debug_aranges
                0x00000b58       0x20 c:/program files (x86)/microchip/xc32/v2.30/bin/bin/../../lib/gcc/pic32mx/4.8.3/../../../../pic32mx/lib\libpic32.a(_mon_write.o)
 .debug_aranges
                0x00000b78       0x48 c:/program files (x86)/microchip/xc32/v2.30/bin/bin/../../lib/gcc/pic32mx/4.8.3/../../../../pic32mx/lib\libpic32.a(isinf.o)
 .debug_aranges
                0x00000bc0       0x20 c:/program files (x86)/microchip/xc32/v2.30/bin/bin/../../lib/gcc/pic32mx/4.8.3/../../../../pic32mx/lib\libpic32.a(_mon_putc.o)
 .debug_aranges
                0x00000be0       0x20 c:/program files (x86)/microchip/xc32/v2.30/bin/bin/../../lib/gcc/pic32mx/4.8.3/../../../../pic32mx/lib\libe.a(_unorddf2.o)

.debug_pubnames
 *(.debug_pubnames)

.debug_info     0x00000000    0x6180d
 *(.debug_info .gnu.linkonce.wi.*)
 .debug_info    0x00000000      0xbdb output\main.o
 .debug_info    0x00000bdb      0x2a1 output\bootloader_interface.o
 .debug_info    0x00000e7c      0x811 output\app.o
 .debug_info    0x0000168d      0x9e8 output\ad.o
 .debug_info    0x00002075      0x9a0 output\isr.o
 .debug_info    0x00002a15      0x4c7 output\exceptions.o
 .debug_info    0x00002edc      0xc04 output\mal.o
 .debug_info    0x00003ae0      0x6f3 output\noinitram.o
 .debug_info    0x000041d3      0x223 output\stackmeasure.o
 .debug_info    0x000043f6       0x7c output\stackmeasure_helper.o
 .debug_info    0x00004472      0x7b9 output\tmr.o
 .debug_info    0x00004c2b      0x808 output\sleep.o
 .debug_info    0x00005433      0x43b output\eeprom.o
 .debug_info    0x0000586e      0x75e output\dee_page_helper.o
 .debug_info    0x00005fcc     0x1009 output\dee_page.o
 .debug_info    0x00006fd5     0x155a output\dee.o
 .debug_info    0x0000852f      0x59e output\eep_manager_crc.o
 .debug_info    0x00008acd     0x126f output\eep_manager.o
 .debug_info    0x00009d3c      0x3fc output\c_eep_manager.o
 .debug_info    0x0000a138     0x1329 output\bme280.o
 .debug_info    0x0000b461      0x1a4 output\bme280_conversion.o
 .debug_info    0x0000b605     0x173c output\ccs811.o
 .debug_info    0x0000cd41     0x137a output\iic_master.o
 .debug_info    0x0000e0bb      0x8f1 output\iic_master_multi.o
 .debug_info    0x0000e9ac     0x28a0 output\wifi.o
 .debug_info    0x0001124c     0x242c output\UDP.o
 .debug_info    0x00013678      0xf8c output\Tick.o
 .debug_info    0x00014604     0x41f5 output\tcp.o
 .debug_info    0x000187f9     0x1c50 output\stack_task.o
 .debug_info    0x0001a449      0xdb4 output\ssl.o
 .debug_info    0x0001b1fd     0x13dd output\sntp.o
 .debug_info    0x0001c5da      0xdb1 output\smtp_demo.o
 .debug_info    0x0001d38b      0xdb5 output\smtp.o
 .debug_info    0x0001e140      0xdb4 output\rsa.o
 .debug_info    0x0001eef4     0x18ab output\reboot.o
 .debug_info    0x0002079f      0xdb7 output\random.o
 .debug_info    0x00021556     0x1f52 output\nbns.o
 .debug_info    0x000234a8     0x1830 output\mpfs2.o
 .debug_info    0x00024cd8     0x1a93 output\IP.o
 .debug_info    0x0002676b     0x1561 output\icmp.o
 .debug_info    0x00027ccc     0x33bb output\http2.o
 .debug_info    0x0002b087     0x1a9c output\Helpers.o
 .debug_info    0x0002cb23     0x12dc output\hashes.o
 .debug_info    0x0002ddff     0x167f output\drv_wifi_spi.o
 .debug_info    0x0002f47e     0x1def output\drv_wifi_raw.o
 .debug_info    0x0003126d     0x1a88 output\drv_wifi_power_save.o
 .debug_info    0x00032cf5     0x1cdb output\drv_wifi_pbkdf2.o
 .debug_info    0x000349d0     0x2339 output\drv_wifi_param_msg.o
 .debug_info    0x00036d09     0x1b13 output\drv_wifi_mgmt_msg.o
 .debug_info    0x0003881c     0x2b73 output\drv_wifi_mac.o
 .debug_info    0x0003b38f     0x1ae9 output\drv_wifi_init.o
 .debug_info    0x0003ce78     0x14da output\drv_wifi_event_handler.o
 .debug_info    0x0003e352     0x17be output\drv_wifi_eint.o
 .debug_info    0x0003fb10      0xe47 output\drv_wifi_debug_strings.o
 .debug_info    0x00040957     0x25b0 output\drv_wifi_connection_profile.o
 .debug_info    0x00042f07     0x1753 output\drv_wifi_connection_manager.o
 .debug_info    0x0004465a     0x2857 output\drv_wifi_connection_algorithm.o
 .debug_info    0x00046eb1     0x12f0 output\drv_wifi_config.o
 .debug_info    0x000481a1     0x2ac3 output\drv_wifi_com.o
 .debug_info    0x0004ac64     0x2348 output\dns_client.o
 .debug_info    0x0004cfac     0x27af output\dhcp_client.o
 .debug_info    0x0004f75b      0xe92 output\Delay.o
 .debug_info    0x000505ed      0xdb7 output\custom_ssl_cert.o
 .debug_info    0x000513a4     0x24e8 output\custom_http_app.o
 .debug_info    0x0005388c      0xdb8 output\big_int.o
 .debug_info    0x00054644     0x1ad6 output\ARP.o
 .debug_info    0x0005611a      0xdb5 output\arc4.o
 .debug_info    0x00056ecf     0x1c35 output\announce.o
 .debug_info    0x00058b04      0xdf5 output\mpfs_img2.o
 .debug_info    0x000598f9     0x13db output\http_print.o
 .debug_info    0x0005acd4     0x1299 output\http_get.o
 .debug_info    0x0005bf6d     0x2328 output\app_thingspeak.o
 .debug_info    0x0005e295      0x55f output\ringBuffer.o
 .debug_info    0x0005e7f4      0x99f output\sht31d.o
 .debug_info    0x0005f193       0xb0 c:/program files (x86)/microchip/xc32/v2.30/bin/bin/../../lib/gcc/pic32mx/4.8.3/../../../../pic32mx/lib\libmchp_peripheral_32MX440F256H.a(soft_reset_lib.o)
 .debug_info    0x0005f243       0xbe c:/program files (x86)/microchip/xc32/v2.30/bin/bin/../../lib/gcc/pic32mx/4.8.3/../../../../pic32mx/lib\libmchp_peripheral_32MX440F256H.a(pcache.o)
 .debug_info    0x0005f301       0xb4 c:/program files (x86)/microchip/xc32/v2.30/bin/bin/../../lib/gcc/pic32mx/4.8.3/../../../../pic32mx/lib\libmchp_peripheral_32MX440F256H.a(int_disable_interrupts_lib.o)
 .debug_info    0x0005f3b5       0xc4 c:/program files (x86)/microchip/xc32/v2.30/bin/bin/../../lib/gcc/pic32mx/4.8.3/../../../../pic32mx/lib\libmchp_peripheral_32MX440F256H.a(power_idle_lib.o)
 .debug_info    0x0005f479       0xc6 c:/program files (x86)/microchip/xc32/v2.30/bin/bin/../../lib/gcc/pic32mx/4.8.3/../../../../pic32mx/lib\libmchp_peripheral_32MX440F256H.a(power_sleep_lib.o)
 .debug_info    0x0005f53f       0xa4 c:/program files (x86)/microchip/xc32/v2.30/bin/bin/../../lib/gcc/pic32mx/4.8.3/../../../../pic32mx/lib\libmchp_peripheral_32MX440F256H.a(nvm_erase_page_lib.o)
 .debug_info    0x0005f5e3       0xc5 c:/program files (x86)/microchip/xc32/v2.30/bin/bin/../../lib/gcc/pic32mx/4.8.3/../../../../pic32mx/lib\libmchp_peripheral_32MX440F256H.a(nvm_operation_lib.o)
 .debug_info    0x0005f6a8       0xa4 c:/program files (x86)/microchip/xc32/v2.30/bin/bin/../../lib/gcc/pic32mx/4.8.3/../../../../pic32mx/lib\libmchp_peripheral_32MX440F256H.a(nvm_write_word_lib.o)
 .debug_info    0x0005f74c       0xb4 c:/program files (x86)/microchip/xc32/v2.30/bin/bin/../../lib/gcc/pic32mx/4.8.3/../../../../pic32mx/lib\libmchp_peripheral_32MX440F256H.a(int_restore_interrupts_lib.o)
 .debug_info    0x0005f800      0x77f c:/program files (x86)/microchip/xc32/v2.30/bin/bin/../../lib/gcc/pic32mx/4.8.3\libgcc.a(_divdi3.o)
 .debug_info    0x0005ff7f      0x129 c:/program files (x86)/microchip/xc32/v2.30/bin/bin/../../lib/gcc/pic32mx/4.8.3\libgcc.a(floatunsisf.o)
 .debug_info    0x000600a8       0xf4 c:/program files (x86)/microchip/xc32/v2.30/bin/bin/../../lib/gcc/pic32mx/4.8.3/../../../../pic32mx/lib\libpic32.a(default-bootstrap-exception-handler.o)
 .debug_info    0x0006019c       0xcd c:/program files (x86)/microchip/xc32/v2.30/bin/bin/../../lib/gcc/pic32mx/4.8.3/../../../../pic32mx/lib\libpic32.a(default-on-reset.o)
 .debug_info    0x00060269       0xd5 c:/program files (x86)/microchip/xc32/v2.30/bin/bin/../../lib/gcc/pic32mx/4.8.3/../../../../pic32mx/lib\libpic32.a(default-on-bootstrap.o)
 .debug_info    0x0006033e       0xe7 c:/program files (x86)/microchip/xc32/v2.30/bin/bin/../../lib/gcc/pic32mx/4.8.3/../../../../pic32mx/lib\libpic32.a(defaultinterrupt.o)
 .debug_info    0x00060425       0xbc c:/program files (x86)/microchip/xc32/v2.30/bin/bin/../../lib/gcc/pic32mx/4.8.3/../../../../pic32mx/lib\libm.a(w_powf.o)
 .debug_info    0x000604e1      0x74b c:/program files (x86)/microchip/xc32/v2.30/bin/bin/../../lib/gcc/pic32mx/4.8.3\libgcc.a(_udivdi3.o)
 .debug_info    0x00060c2c      0x788 c:/program files (x86)/microchip/xc32/v2.30/bin/bin/../../lib/gcc/pic32mx/4.8.3\libgcc.a(_umoddi3.o)
 .debug_info    0x000613b4       0xc7 c:/program files (x86)/microchip/xc32/v2.30/bin/bin/../../lib/gcc/pic32mx/4.8.3/../../../../pic32mx/lib\libpic32.a(_mon_getc.o)
 .debug_info    0x0006147b       0xc9 c:/program files (x86)/microchip/xc32/v2.30/bin/bin/../../lib/gcc/pic32mx/4.8.3/../../../../pic32mx/lib\libpic32.a(_mon_write.o)
 .debug_info    0x00061544      0x134 c:/program files (x86)/microchip/xc32/v2.30/bin/bin/../../lib/gcc/pic32mx/4.8.3/../../../../pic32mx/lib\libpic32.a(isinf.o)
 .debug_info    0x00061678       0xc7 c:/program files (x86)/microchip/xc32/v2.30/bin/bin/../../lib/gcc/pic32mx/4.8.3/../../../../pic32mx/lib\libpic32.a(_mon_putc.o)
 .debug_info    0x0006173f       0xce c:/program files (x86)/microchip/xc32/v2.30/bin/bin/../../lib/gcc/pic32mx/4.8.3/../../../../pic32mx/lib\libe.a(_unorddf2.o)

.debug_abbrev   0x00000000     0xa521
 *(.debug_abbrev)
 .debug_abbrev  0x00000000      0x11a output\main.o
 .debug_abbrev  0x0000011a       0xb3 output\bootloader_interface.o
 .debug_abbrev  0x000001cd      0x1b2 output\app.o
 .debug_abbrev  0x0000037f      0x139 output\ad.o
 .debug_abbrev  0x000004b8       0xf3 output\isr.o
 .debug_abbrev  0x000005ab      0x13d output\exceptions.o
 .debug_abbrev  0x000006e8      0x20f output\mal.o
 .debug_abbrev  0x000008f7      0x1f3 output\noinitram.o
 .debug_abbrev  0x00000aea       0xcc output\stackmeasure.o
 .debug_abbrev  0x00000bb6       0x14 output\stackmeasure_helper.o
 .debug_abbrev  0x00000bca      0x1aa output\tmr.o
 .debug_abbrev  0x00000d74      0x1a2 output\sleep.o
 .debug_abbrev  0x00000f16      0x10c output\eeprom.o
 .debug_abbrev  0x00001022      0x1c5 output\dee_page_helper.o
 .debug_abbrev  0x000011e7      0x31d output\dee_page.o
 .debug_abbrev  0x00001504      0x31b output\dee.o
 .debug_abbrev  0x0000181f       0xcf output\eep_manager_crc.o
 .debug_abbrev  0x000018ee      0x285 output\eep_manager.o
 .debug_abbrev  0x00001b73       0x8f output\c_eep_manager.o
 .debug_abbrev  0x00001c02      0x270 output\bme280.o
 .debug_abbrev  0x00001e72       0x8a output\bme280_conversion.o
 .debug_abbrev  0x00001efc      0x2db output\ccs811.o
 .debug_abbrev  0x000021d7      0x234 output\iic_master.o
 .debug_abbrev  0x0000240b      0x173 output\iic_master_multi.o
 .debug_abbrev  0x0000257e      0x324 output\wifi.o
 .debug_abbrev  0x000028a2      0x3c6 output\UDP.o
 .debug_abbrev  0x00002c68      0x198 output\Tick.o
 .debug_abbrev  0x00002e00      0x45e output\tcp.o
 .debug_abbrev  0x0000325e      0x266 output\stack_task.o
 .debug_abbrev  0x000034c4      0x118 output\ssl.o
 .debug_abbrev  0x000035dc      0x23e output\sntp.o
 .debug_abbrev  0x0000381a      0x118 output\smtp_demo.o
 .debug_abbrev  0x00003932      0x118 output\smtp.o
 .debug_abbrev  0x00003a4a      0x118 output\rsa.o
 .debug_abbrev  0x00003b62      0x1da output\reboot.o
 .debug_abbrev  0x00003d3c      0x118 output\random.o
 .debug_abbrev  0x00003e54      0x2d4 output\nbns.o
 .debug_abbrev  0x00004128      0x339 output\mpfs2.o
 .debug_abbrev  0x00004461      0x26c output\IP.o
 .debug_abbrev  0x000046cd      0x1f6 output\icmp.o
 .debug_abbrev  0x000048c3      0x3de output\http2.o
 .debug_abbrev  0x00004ca1      0x280 output\Helpers.o
 .debug_abbrev  0x00004f21      0x286 output\hashes.o
 .debug_abbrev  0x000051a7      0x23f output\drv_wifi_spi.o
 .debug_abbrev  0x000053e6      0x3ec output\drv_wifi_raw.o
 .debug_abbrev  0x000057d2      0x3d0 output\drv_wifi_power_save.o
 .debug_abbrev  0x00005ba2      0x32d output\drv_wifi_pbkdf2.o
 .debug_abbrev  0x00005ecf      0x28e output\drv_wifi_param_msg.o
 .debug_abbrev  0x0000615d      0x30f output\drv_wifi_mgmt_msg.o
 .debug_abbrev  0x0000646c      0x43b output\drv_wifi_mac.o
 .debug_abbrev  0x000068a7      0x249 output\drv_wifi_init.o
 .debug_abbrev  0x00006af0      0x2b3 output\drv_wifi_event_handler.o
 .debug_abbrev  0x00006da3      0x187 output\drv_wifi_eint.o
 .debug_abbrev  0x00006f2a      0x145 output\drv_wifi_debug_strings.o
 .debug_abbrev  0x0000706f      0x341 output\drv_wifi_connection_profile.o
 .debug_abbrev  0x000073b0      0x312 output\drv_wifi_connection_manager.o
 .debug_abbrev  0x000076c2      0x39c output\drv_wifi_connection_algorithm.o
 .debug_abbrev  0x00007a5e      0x20f output\drv_wifi_config.o
 .debug_abbrev  0x00007c6d      0x3b7 output\drv_wifi_com.o
 .debug_abbrev  0x00008024      0x2dc output\dns_client.o
 .debug_abbrev  0x00008300      0x311 output\dhcp_client.o
 .debug_abbrev  0x00008611      0x187 output\Delay.o
 .debug_abbrev  0x00008798      0x118 output\custom_ssl_cert.o
 .debug_abbrev  0x000088b0      0x2a0 output\custom_http_app.o
 .debug_abbrev  0x00008b50      0x118 output\big_int.o
 .debug_abbrev  0x00008c68      0x2fa output\ARP.o
 .debug_abbrev  0x00008f62      0x118 output\arc4.o
 .debug_abbrev  0x0000907a      0x287 output\announce.o
 .debug_abbrev  0x00009301      0x132 output\mpfs_img2.o
 .debug_abbrev  0x00009433      0x1d8 output\http_print.o
 .debug_abbrev  0x0000960b      0x1d6 output\http_get.o
 .debug_abbrev  0x000097e1      0x2ed output\app_thingspeak.o
 .debug_abbrev  0x00009ace      0x120 output\ringBuffer.o
 .debug_abbrev  0x00009bee      0x1bd output\sht31d.o
 .debug_abbrev  0x00009dab       0x37 c:/program files (x86)/microchip/xc32/v2.30/bin/bin/../../lib/gcc/pic32mx/4.8.3/../../../../pic32mx/lib\libmchp_peripheral_32MX440F256H.a(soft_reset_lib.o)
 .debug_abbrev  0x00009de2       0x28 c:/program files (x86)/microchip/xc32/v2.30/bin/bin/../../lib/gcc/pic32mx/4.8.3/../../../../pic32mx/lib\libmchp_peripheral_32MX440F256H.a(pcache.o)
 .debug_abbrev  0x00009e0a       0x28 c:/program files (x86)/microchip/xc32/v2.30/bin/bin/../../lib/gcc/pic32mx/4.8.3/../../../../pic32mx/lib\libmchp_peripheral_32MX440F256H.a(int_disable_interrupts_lib.o)
 .debug_abbrev  0x00009e32       0x37 c:/program files (x86)/microchip/xc32/v2.30/bin/bin/../../lib/gcc/pic32mx/4.8.3/../../../../pic32mx/lib\libmchp_peripheral_32MX440F256H.a(power_idle_lib.o)
 .debug_abbrev  0x00009e69       0x37 c:/program files (x86)/microchip/xc32/v2.30/bin/bin/../../lib/gcc/pic32mx/4.8.3/../../../../pic32mx/lib\libmchp_peripheral_32MX440F256H.a(power_sleep_lib.o)
 .debug_abbrev  0x00009ea0       0x28 c:/program files (x86)/microchip/xc32/v2.30/bin/bin/../../lib/gcc/pic32mx/4.8.3/../../../../pic32mx/lib\libmchp_peripheral_32MX440F256H.a(nvm_erase_page_lib.o)
 .debug_abbrev  0x00009ec8       0x37 c:/program files (x86)/microchip/xc32/v2.30/bin/bin/../../lib/gcc/pic32mx/4.8.3/../../../../pic32mx/lib\libmchp_peripheral_32MX440F256H.a(nvm_operation_lib.o)
 .debug_abbrev  0x00009eff       0x28 c:/program files (x86)/microchip/xc32/v2.30/bin/bin/../../lib/gcc/pic32mx/4.8.3/../../../../pic32mx/lib\libmchp_peripheral_32MX440F256H.a(nvm_write_word_lib.o)
 .debug_abbrev  0x00009f27       0x28 c:/program files (x86)/microchip/xc32/v2.30/bin/bin/../../lib/gcc/pic32mx/4.8.3/../../../../pic32mx/lib\libmchp_peripheral_32MX440F256H.a(int_restore_interrupts_lib.o)
 .debug_abbrev  0x00009f4f      0x13e c:/program files (x86)/microchip/xc32/v2.30/bin/bin/../../lib/gcc/pic32mx/4.8.3\libgcc.a(_divdi3.o)
 .debug_abbrev  0x0000a08d       0x62 c:/program files (x86)/microchip/xc32/v2.30/bin/bin/../../lib/gcc/pic32mx/4.8.3\libgcc.a(floatunsisf.o)
 .debug_abbrev  0x0000a0ef       0x28 c:/program files (x86)/microchip/xc32/v2.30/bin/bin/../../lib/gcc/pic32mx/4.8.3/../../../../pic32mx/lib\libpic32.a(default-bootstrap-exception-handler.o)
 .debug_abbrev  0x0000a117       0x28 c:/program files (x86)/microchip/xc32/v2.30/bin/bin/../../lib/gcc/pic32mx/4.8.3/../../../../pic32mx/lib\libpic32.a(default-on-reset.o)
 .debug_abbrev  0x0000a13f       0x28 c:/program files (x86)/microchip/xc32/v2.30/bin/bin/../../lib/gcc/pic32mx/4.8.3/../../../../pic32mx/lib\libpic32.a(default-on-bootstrap.o)
 .debug_abbrev  0x0000a167       0x28 c:/program files (x86)/microchip/xc32/v2.30/bin/bin/../../lib/gcc/pic32mx/4.8.3/../../../../pic32mx/lib\libpic32.a(defaultinterrupt.o)
 .debug_abbrev  0x0000a18f       0x28 c:/program files (x86)/microchip/xc32/v2.30/bin/bin/../../lib/gcc/pic32mx/4.8.3/../../../../pic32mx/lib\libm.a(w_powf.o)
 .debug_abbrev  0x0000a1b7      0x138 c:/program files (x86)/microchip/xc32/v2.30/bin/bin/../../lib/gcc/pic32mx/4.8.3\libgcc.a(_udivdi3.o)
 .debug_abbrev  0x0000a2ef      0x147 c:/program files (x86)/microchip/xc32/v2.30/bin/bin/../../lib/gcc/pic32mx/4.8.3\libgcc.a(_umoddi3.o)
 .debug_abbrev  0x0000a436       0x28 c:/program files (x86)/microchip/xc32/v2.30/bin/bin/../../lib/gcc/pic32mx/4.8.3/../../../../pic32mx/lib\libpic32.a(_mon_getc.o)
 .debug_abbrev  0x0000a45e       0x28 c:/program files (x86)/microchip/xc32/v2.30/bin/bin/../../lib/gcc/pic32mx/4.8.3/../../../../pic32mx/lib\libpic32.a(_mon_write.o)
 .debug_abbrev  0x0000a486       0x3e c:/program files (x86)/microchip/xc32/v2.30/bin/bin/../../lib/gcc/pic32mx/4.8.3/../../../../pic32mx/lib\libpic32.a(isinf.o)
 .debug_abbrev  0x0000a4c4       0x28 c:/program files (x86)/microchip/xc32/v2.30/bin/bin/../../lib/gcc/pic32mx/4.8.3/../../../../pic32mx/lib\libpic32.a(_mon_putc.o)
 .debug_abbrev  0x0000a4ec       0x35 c:/program files (x86)/microchip/xc32/v2.30/bin/bin/../../lib/gcc/pic32mx/4.8.3/../../../../pic32mx/lib\libe.a(_unorddf2.o)

.debug_line     0x00000000     0xcb15
 *(.debug_line)
 .debug_line    0x00000000      0x4ad output\main.o
 .debug_line    0x000004ad       0xd2 output\bootloader_interface.o
 .debug_line    0x0000057f      0x218 output\app.o
 .debug_line    0x00000797      0x194 output\ad.o
 .debug_line    0x0000092b      0x268 output\isr.o
 .debug_line    0x00000b93       0xf4 output\exceptions.o
 .debug_line    0x00000c87      0x1db output\mal.o
 .debug_line    0x00000e62      0x1b7 output\noinitram.o
 .debug_line    0x00001019       0xdd output\stackmeasure.o
 .debug_line    0x000010f6       0x5f output\stackmeasure_helper.o
 .debug_line    0x00001155      0x29a output\tmr.o
 .debug_line    0x000013ef      0x228 output\sleep.o
 .debug_line    0x00001617      0x135 output\eeprom.o
 .debug_line    0x0000174c      0x195 output\dee_page_helper.o
 .debug_line    0x000018e1      0x1a5 output\dee_page.o
 .debug_line    0x00001a86      0x2c0 output\dee.o
 .debug_line    0x00001d46      0x14d output\eep_manager_crc.o
 .debug_line    0x00001e93      0x325 output\eep_manager.o
 .debug_line    0x000021b8      0x15a output\c_eep_manager.o
 .debug_line    0x00002312      0x3cf output\bme280.o
 .debug_line    0x000026e1       0xd7 output\bme280_conversion.o
 .debug_line    0x000027b8      0x366 output\ccs811.o
 .debug_line    0x00002b1e      0x32b output\iic_master.o
 .debug_line    0x00002e49      0x1e2 output\iic_master_multi.o
 .debug_line    0x0000302b      0x31c output\wifi.o
 .debug_line    0x00003347      0x3b2 output\UDP.o
 .debug_line    0x000036f9      0x23a output\Tick.o
 .debug_line    0x00003933      0x8f4 output\tcp.o
 .debug_line    0x00004227      0x361 output\stack_task.o
 .debug_line    0x00004588      0x17b output\ssl.o
 .debug_line    0x00004703      0x278 output\sntp.o
 .debug_line    0x0000497b      0x17b output\smtp_demo.o
 .debug_line    0x00004af6      0x17b output\smtp.o
 .debug_line    0x00004c71      0x17b output\rsa.o
 .debug_line    0x00004dec      0x269 output\reboot.o
 .debug_line    0x00005055      0x17b output\random.o
 .debug_line    0x000051d0      0x2cc output\nbns.o
 .debug_line    0x0000549c      0x373 output\mpfs2.o
 .debug_line    0x0000580f      0x296 output\IP.o
 .debug_line    0x00005aa5      0x259 output\icmp.o
 .debug_line    0x00005cfe      0x5e1 output\http2.o
 .debug_line    0x000062df      0x379 output\Helpers.o
 .debug_line    0x00006658      0x294 output\hashes.o
 .debug_line    0x000068ec      0x26f output\drv_wifi_spi.o
 .debug_line    0x00006b5b      0x324 output\drv_wifi_raw.o
 .debug_line    0x00006e7f      0x2ca output\drv_wifi_power_save.o
 .debug_line    0x00007149      0x344 output\drv_wifi_pbkdf2.o
 .debug_line    0x0000748d      0x2da output\drv_wifi_param_msg.o
 .debug_line    0x00007767      0x2d7 output\drv_wifi_mgmt_msg.o
 .debug_line    0x00007a3e      0x4aa output\drv_wifi_mac.o
 .debug_line    0x00007ee8      0x2be output\drv_wifi_init.o
 .debug_line    0x000081a6      0x2be output\drv_wifi_event_handler.o
 .debug_line    0x00008464      0x250 output\drv_wifi_eint.o
 .debug_line    0x000086b4      0x1e5 output\drv_wifi_debug_strings.o
 .debug_line    0x00008899      0x334 output\drv_wifi_connection_profile.o
 .debug_line    0x00008bcd      0x2ab output\drv_wifi_connection_manager.o
 .debug_line    0x00008e78      0x362 output\drv_wifi_connection_algorithm.o
 .debug_line    0x000091da      0x2a7 output\drv_wifi_config.o
 .debug_line    0x00009481      0x38e output\drv_wifi_com.o
 .debug_line    0x0000980f      0x36e output\dns_client.o
 .debug_line    0x00009b7d      0x3dc output\dhcp_client.o
 .debug_line    0x00009f59      0x1e1 output\Delay.o
 .debug_line    0x0000a13a      0x17b output\custom_ssl_cert.o
 .debug_line    0x0000a2b5      0x34e output\custom_http_app.o
 .debug_line    0x0000a603      0x17b output\big_int.o
 .debug_line    0x0000a77e      0x2d2 output\ARP.o
 .debug_line    0x0000aa50      0x17b output\arc4.o
 .debug_line    0x0000abcb      0x2af output\announce.o
 .debug_line    0x0000ae7a      0x1c3 output\mpfs_img2.o
 .debug_line    0x0000b03d      0x293 output\http_print.o
 .debug_line    0x0000b2d0      0x2a0 output\http_get.o
 .debug_line    0x0000b570      0x3d7 output\app_thingspeak.o
 .debug_line    0x0000b947      0x117 output\ringBuffer.o
 .debug_line    0x0000ba5e      0x2c1 output\sht31d.o
 .debug_line    0x0000bd1f       0xa7 c:/program files (x86)/microchip/xc32/v2.30/bin/bin/../../lib/gcc/pic32mx/4.8.3/../../../../pic32mx/lib\libmchp_peripheral_32MX440F256H.a(soft_reset_lib.o)
 .debug_line    0x0000bdc6       0x5f c:/program files (x86)/microchip/xc32/v2.30/bin/bin/../../lib/gcc/pic32mx/4.8.3/../../../../pic32mx/lib\libmchp_peripheral_32MX440F256H.a(pcache.o)
 .debug_line    0x0000be25       0x70 c:/program files (x86)/microchip/xc32/v2.30/bin/bin/../../lib/gcc/pic32mx/4.8.3/../../../../pic32mx/lib\libmchp_peripheral_32MX440F256H.a(int_disable_interrupts_lib.o)
 .debug_line    0x0000be95       0xa7 c:/program files (x86)/microchip/xc32/v2.30/bin/bin/../../lib/gcc/pic32mx/4.8.3/../../../../pic32mx/lib\libmchp_peripheral_32MX440F256H.a(power_idle_lib.o)
 .debug_line    0x0000bf3c       0xa8 c:/program files (x86)/microchip/xc32/v2.30/bin/bin/../../lib/gcc/pic32mx/4.8.3/../../../../pic32mx/lib\libmchp_peripheral_32MX440F256H.a(power_sleep_lib.o)
 .debug_line    0x0000bfe4       0x68 c:/program files (x86)/microchip/xc32/v2.30/bin/bin/../../lib/gcc/pic32mx/4.8.3/../../../../pic32mx/lib\libmchp_peripheral_32MX440F256H.a(nvm_erase_page_lib.o)
 .debug_line    0x0000c04c       0xa8 c:/program files (x86)/microchip/xc32/v2.30/bin/bin/../../lib/gcc/pic32mx/4.8.3/../../../../pic32mx/lib\libmchp_peripheral_32MX440F256H.a(nvm_operation_lib.o)
 .debug_line    0x0000c0f4       0x68 c:/program files (x86)/microchip/xc32/v2.30/bin/bin/../../lib/gcc/pic32mx/4.8.3/../../../../pic32mx/lib\libmchp_peripheral_32MX440F256H.a(nvm_write_word_lib.o)
 .debug_line    0x0000c15c       0x70 c:/program files (x86)/microchip/xc32/v2.30/bin/bin/../../lib/gcc/pic32mx/4.8.3/../../../../pic32mx/lib\libmchp_peripheral_32MX440F256H.a(int_restore_interrupts_lib.o)
 .debug_line    0x0000c1cc       0xff c:/program files (x86)/microchip/xc32/v2.30/bin/bin/../../lib/gcc/pic32mx/4.8.3\libgcc.a(_divdi3.o)
 .debug_line    0x0000c2cb       0x94 c:/program files (x86)/microchip/xc32/v2.30/bin/bin/../../lib/gcc/pic32mx/4.8.3\libgcc.a(floatunsisf.o)
 .debug_line    0x0000c35f       0xa6 c:/program files (x86)/microchip/xc32/v2.30/bin/bin/../../lib/gcc/pic32mx/4.8.3/../../../../pic32mx/lib\libpic32.a(default-bootstrap-exception-handler.o)
 .debug_line    0x0000c405       0x93 c:/program files (x86)/microchip/xc32/v2.30/bin/bin/../../lib/gcc/pic32mx/4.8.3/../../../../pic32mx/lib\libpic32.a(default-on-reset.o)
 .debug_line    0x0000c498       0x97 c:/program files (x86)/microchip/xc32/v2.30/bin/bin/../../lib/gcc/pic32mx/4.8.3/../../../../pic32mx/lib\libpic32.a(default-on-bootstrap.o)
 .debug_line    0x0000c52f       0xa5 c:/program files (x86)/microchip/xc32/v2.30/bin/bin/../../lib/gcc/pic32mx/4.8.3/../../../../pic32mx/lib\libpic32.a(defaultinterrupt.o)
 .debug_line    0x0000c5d4       0x86 c:/program files (x86)/microchip/xc32/v2.30/bin/bin/../../lib/gcc/pic32mx/4.8.3/../../../../pic32mx/lib\libm.a(w_powf.o)
 .debug_line    0x0000c65a        0x0 c:/program files (x86)/microchip/xc32/v2.30/bin/bin/../../lib/gcc/pic32mx/4.8.3/../../../../pic32mx/lib\libm.a(s_lib_ver.o)
 .debug_line    0x0000c65a       0xf7 c:/program files (x86)/microchip/xc32/v2.30/bin/bin/../../lib/gcc/pic32mx/4.8.3\libgcc.a(_udivdi3.o)
 .debug_line    0x0000c751      0x109 c:/program files (x86)/microchip/xc32/v2.30/bin/bin/../../lib/gcc/pic32mx/4.8.3\libgcc.a(_umoddi3.o)
 .debug_line    0x0000c85a       0x8c c:/program files (x86)/microchip/xc32/v2.30/bin/bin/../../lib/gcc/pic32mx/4.8.3/../../../../pic32mx/lib\libpic32.a(_mon_getc.o)
 .debug_line    0x0000c8e6       0x8d c:/program files (x86)/microchip/xc32/v2.30/bin/bin/../../lib/gcc/pic32mx/4.8.3/../../../../pic32mx/lib\libpic32.a(_mon_write.o)
 .debug_line    0x0000c973        0x0 c:/program files (x86)/microchip/xc32/v2.30/bin/bin/../../lib/gcc/pic32mx/4.8.3/../../../../pic32mx/lib\libpic32.a(xc32_uart.o)
 .debug_line    0x0000c973       0x88 c:/program files (x86)/microchip/xc32/v2.30/bin/bin/../../lib/gcc/pic32mx/4.8.3/../../../../pic32mx/lib\libpic32.a(isinf.o)
 .debug_line    0x0000c9fb       0x8c c:/program files (x86)/microchip/xc32/v2.30/bin/bin/../../lib/gcc/pic32mx/4.8.3/../../../../pic32mx/lib\libpic32.a(_mon_putc.o)
 .debug_line    0x0000ca87       0x8e c:/program files (x86)/microchip/xc32/v2.30/bin/bin/../../lib/gcc/pic32mx/4.8.3/../../../../pic32mx/lib\libe.a(_unorddf2.o)

.debug_frame    0x00000000     0x42f0
 *(.debug_frame)
 .debug_frame   0x00000000       0x84 output\main.o
 .debug_frame   0x00000084       0x50 output\bootloader_interface.o
 .debug_frame   0x000000d4       0xd0 output\app.o
 .debug_frame   0x000001a4       0x50 output\ad.o
 .debug_frame   0x000001f4      0x330 output\isr.o
 .debug_frame   0x00000524       0x5c output\exceptions.o
 .debug_frame   0x00000580       0xdc output\mal.o
 .debug_frame   0x0000065c       0xbc output\noinitram.o
 .debug_frame   0x00000718       0x50 output\stackmeasure.o
 .debug_frame   0x00000768      0x138 output\tmr.o
 .debug_frame   0x000008a0      0x130 output\sleep.o
 .debug_frame   0x000009d0       0xcc output\eeprom.o
 .debug_frame   0x00000a9c       0xd8 output\dee_page_helper.o
 .debug_frame   0x00000b74      0x15c output\dee_page.o
 .debug_frame   0x00000cd0      0x1b0 output\dee.o
 .debug_frame   0x00000e80       0x60 output\eep_manager_crc.o
 .debug_frame   0x00000ee0      0x1dc output\eep_manager.o
 .debug_frame   0x000010bc      0x104 output\bme280.o
 .debug_frame   0x000011c0       0x48 output\bme280_conversion.o
 .debug_frame   0x00001208       0xe0 output\ccs811.o
 .debug_frame   0x000012e8      0x118 output\iic_master.o
 .debug_frame   0x00001400       0xa8 output\iic_master_multi.o
 .debug_frame   0x000014a8      0x10c output\wifi.o
 .debug_frame   0x000015b4      0x1f4 output\UDP.o
 .debug_frame   0x000017a8       0x60 output\Tick.o
 .debug_frame   0x00001808      0x454 output\tcp.o
 .debug_frame   0x00001c5c       0x84 output\stack_task.o
 .debug_frame   0x00001ce0       0x5c output\sntp.o
 .debug_frame   0x00001d3c       0x2c output\reboot.o
 .debug_frame   0x00001d68       0x4c output\nbns.o
 .debug_frame   0x00001db4      0x224 output\mpfs2.o
 .debug_frame   0x00001fd8       0x84 output\IP.o
 .debug_frame   0x0000205c       0x30 output\icmp.o
 .debug_frame   0x0000208c      0x18c output\http2.o
 .debug_frame   0x00002218      0x160 output\Helpers.o
 .debug_frame   0x00002378       0xa4 output\hashes.o
 .debug_frame   0x0000241c       0x64 output\drv_wifi_spi.o
 .debug_frame   0x00002480      0x214 output\drv_wifi_raw.o
 .debug_frame   0x00002694      0x13c output\drv_wifi_power_save.o
 .debug_frame   0x000027d0      0x160 output\drv_wifi_pbkdf2.o
 .debug_frame   0x00002930      0x1c8 output\drv_wifi_param_msg.o
 .debug_frame   0x00002af8       0x98 output\drv_wifi_mgmt_msg.o
 .debug_frame   0x00002b90      0x324 output\drv_wifi_mac.o
 .debug_frame   0x00002eb4       0x2c output\drv_wifi_init.o
 .debug_frame   0x00002ee0       0x30 output\drv_wifi_event_handler.o
 .debug_frame   0x00002f10       0x70 output\drv_wifi_eint.o
 .debug_frame   0x00002f80       0x20 output\drv_wifi_debug_strings.o
 .debug_frame   0x00002fa0      0x2a0 output\drv_wifi_connection_profile.o
 .debug_frame   0x00003240       0xc8 output\drv_wifi_connection_manager.o
 .debug_frame   0x00003308      0x360 output\drv_wifi_connection_algorithm.o
 .debug_frame   0x00003668       0x30 output\drv_wifi_config.o
 .debug_frame   0x00003698      0x190 output\drv_wifi_com.o
 .debug_frame   0x00003828       0xdc output\dns_client.o
 .debug_frame   0x00003904      0x114 output\dhcp_client.o
 .debug_frame   0x00003a18       0x44 output\Delay.o
 .debug_frame   0x00003a5c       0x74 output\custom_http_app.o
 .debug_frame   0x00003ad0       0xcc output\ARP.o
 .debug_frame   0x00003b9c       0x68 output\announce.o
 .debug_frame   0x00003c04       0xec output\http_print.o
 .debug_frame   0x00003cf0       0x30 output\http_get.o
 .debug_frame   0x00003d20       0x7c output\app_thingspeak.o
 .debug_frame   0x00003d9c       0x7c output\ringBuffer.o
 .debug_frame   0x00003e18       0xc0 output\sht31d.o
 .debug_frame   0x00003ed8       0x28 c:/program files (x86)/microchip/xc32/v2.30/bin/bin/../../lib/gcc/pic32mx/4.8.3/../../../../pic32mx/lib\libmchp_peripheral_32MX440F256H.a(soft_reset_lib.o)
 .debug_frame   0x00003f00       0x30 c:/program files (x86)/microchip/xc32/v2.30/bin/bin/../../lib/gcc/pic32mx/4.8.3/../../../../pic32mx/lib\libmchp_peripheral_32MX440F256H.a(pcache.o)
 .debug_frame   0x00003f30       0x20 c:/program files (x86)/microchip/xc32/v2.30/bin/bin/../../lib/gcc/pic32mx/4.8.3/../../../../pic32mx/lib\libmchp_peripheral_32MX440F256H.a(int_disable_interrupts_lib.o)
 .debug_frame   0x00003f50       0x28 c:/program files (x86)/microchip/xc32/v2.30/bin/bin/../../lib/gcc/pic32mx/4.8.3/../../../../pic32mx/lib\libmchp_peripheral_32MX440F256H.a(power_idle_lib.o)
 .debug_frame   0x00003f78       0x28 c:/program files (x86)/microchip/xc32/v2.30/bin/bin/../../lib/gcc/pic32mx/4.8.3/../../../../pic32mx/lib\libmchp_peripheral_32MX440F256H.a(power_sleep_lib.o)
 .debug_frame   0x00003fa0       0x28 c:/program files (x86)/microchip/xc32/v2.30/bin/bin/../../lib/gcc/pic32mx/4.8.3/../../../../pic32mx/lib\libmchp_peripheral_32MX440F256H.a(nvm_erase_page_lib.o)
 .debug_frame   0x00003fc8       0x28 c:/program files (x86)/microchip/xc32/v2.30/bin/bin/../../lib/gcc/pic32mx/4.8.3/../../../../pic32mx/lib\libmchp_peripheral_32MX440F256H.a(nvm_operation_lib.o)
 .debug_frame   0x00003ff0       0x28 c:/program files (x86)/microchip/xc32/v2.30/bin/bin/../../lib/gcc/pic32mx/4.8.3/../../../../pic32mx/lib\libmchp_peripheral_32MX440F256H.a(nvm_write_word_lib.o)
 .debug_frame   0x00004018       0x20 c:/program files (x86)/microchip/xc32/v2.30/bin/bin/../../lib/gcc/pic32mx/4.8.3/../../../../pic32mx/lib\libmchp_peripheral_32MX440F256H.a(int_restore_interrupts_lib.o)
 .debug_frame   0x00004038       0x20 c:/program files (x86)/microchip/xc32/v2.30/bin/bin/../../lib/gcc/pic32mx/4.8.3\libgcc.a(_divdi3.o)
 .debug_frame   0x00004058       0x30 c:/program files (x86)/microchip/xc32/v2.30/bin/bin/../../lib/gcc/pic32mx/4.8.3\libgcc.a(floatunsisf.o)
 .debug_frame   0x00004088       0x2c c:/program files (x86)/microchip/xc32/v2.30/bin/bin/../../lib/gcc/pic32mx/4.8.3/../../../../pic32mx/lib\libpic32.a(default-bootstrap-exception-handler.o)
 .debug_frame   0x000040b4       0x20 c:/program files (x86)/microchip/xc32/v2.30/bin/bin/../../lib/gcc/pic32mx/4.8.3/../../../../pic32mx/lib\libpic32.a(default-on-reset.o)
 .debug_frame   0x000040d4       0x20 c:/program files (x86)/microchip/xc32/v2.30/bin/bin/../../lib/gcc/pic32mx/4.8.3/../../../../pic32mx/lib\libpic32.a(default-on-bootstrap.o)
 .debug_frame   0x000040f4       0x20 c:/program files (x86)/microchip/xc32/v2.30/bin/bin/../../lib/gcc/pic32mx/4.8.3/../../../../pic32mx/lib\libpic32.a(defaultinterrupt.o)
 .debug_frame   0x00004114       0x34 c:/program files (x86)/microchip/xc32/v2.30/bin/bin/../../lib/gcc/pic32mx/4.8.3/../../../../pic32mx/lib\libm.a(w_powf.o)
 .debug_frame   0x00004148       0x20 c:/program files (x86)/microchip/xc32/v2.30/bin/bin/../../lib/gcc/pic32mx/4.8.3\libgcc.a(_udivdi3.o)
 .debug_frame   0x00004168       0x20 c:/program files (x86)/microchip/xc32/v2.30/bin/bin/../../lib/gcc/pic32mx/4.8.3\libgcc.a(_umoddi3.o)
 .debug_frame   0x00004188       0x34 c:/program files (x86)/microchip/xc32/v2.30/bin/bin/../../lib/gcc/pic32mx/4.8.3/../../../../pic32mx/lib\libpic32.a(_mon_getc.o)
 .debug_frame   0x000041bc       0x30 c:/program files (x86)/microchip/xc32/v2.30/bin/bin/../../lib/gcc/pic32mx/4.8.3/../../../../pic32mx/lib\libpic32.a(_mon_write.o)
 .debug_frame   0x000041ec       0xb0 c:/program files (x86)/microchip/xc32/v2.30/bin/bin/../../lib/gcc/pic32mx/4.8.3/../../../../pic32mx/lib\libpic32.a(isinf.o)
 .debug_frame   0x0000429c       0x34 c:/program files (x86)/microchip/xc32/v2.30/bin/bin/../../lib/gcc/pic32mx/4.8.3/../../../../pic32mx/lib\libpic32.a(_mon_putc.o)
 .debug_frame   0x000042d0       0x20 c:/program files (x86)/microchip/xc32/v2.30/bin/bin/../../lib/gcc/pic32mx/4.8.3/../../../../pic32mx/lib\libe.a(_unorddf2.o)

.debug_str      0x00000000      0x712
 *(.debug_str)
 .debug_str     0x00000000        0x0 output\main.o
 .debug_str     0x00000000        0x0 output\bootloader_interface.o
 .debug_str     0x00000000        0x0 output\app.o
 .debug_str     0x00000000        0x0 output\ad.o
 .debug_str     0x00000000       0x13 output\isr.o
 .debug_str     0x00000013       0x18 output\exceptions.o
 .debug_str     0x0000002b       0x1b output\mal.o
 .debug_str     0x00000046       0x18 output\noinitram.o
 .debug_str     0x0000005e        0x0 output\stackmeasure.o
 .debug_str     0x0000005e        0x7 output\tmr.o
 .debug_str     0x00000065        0xe output\sleep.o
 .debug_str     0x00000073       0x15 output\eeprom.o
 .debug_str     0x00000088       0x24 output\dee_page_helper.o
 .debug_str     0x000000ac       0x23 output\dee_page.o
 .debug_str     0x000000cf       0x79 output\dee.o
 .debug_str     0x00000148       0x10 output\eep_manager_crc.o
 .debug_str     0x00000158       0x41 output\eep_manager.o
 .debug_str     0x00000199        0x0 output\c_eep_manager.o
 .debug_str     0x00000199       0x16 output\bme280.o
 .debug_str     0x000001af       0x23 output\bme280_conversion.o
 .debug_str     0x000001d2       0x29 output\ccs811.o
 .debug_str     0x000001fb       0x17 output\iic_master.o
 .debug_str     0x00000212        0xe output\iic_master_multi.o
 .debug_str     0x00000220       0x24 output\wifi.o
 .debug_str     0x00000244       0x34 output\UDP.o
 .debug_str     0x00000278        0x7 output\Tick.o
 .debug_str     0x0000027f       0xac output\tcp.o
 .debug_str     0x0000032b        0x0 output\stack_task.o
 .debug_str     0x0000032b        0x0 output\ssl.o
 .debug_str     0x0000032b        0x0 output\sntp.o
 .debug_str     0x0000032b        0x0 output\smtp_demo.o
 .debug_str     0x0000032b        0x0 output\smtp.o
 .debug_str     0x0000032b        0x0 output\rsa.o
 .debug_str     0x0000032b        0x0 output\reboot.o
 .debug_str     0x0000032b        0x0 output\random.o
 .debug_str     0x0000032b        0xb output\nbns.o
 .debug_str     0x00000336       0x19 output\mpfs2.o
 .debug_str     0x0000034f        0x9 output\IP.o
 .debug_str     0x00000358        0x0 output\icmp.o
 .debug_str     0x00000358       0x18 output\http2.o
 .debug_str     0x00000370        0x0 output\Helpers.o
 .debug_str     0x00000370        0x7 output\hashes.o
 .debug_str     0x00000377        0x0 output\drv_wifi_spi.o
 .debug_str     0x00000377       0x5c output\drv_wifi_raw.o
 .debug_str     0x000003d3        0xb output\drv_wifi_power_save.o
 .debug_str     0x000003de       0x52 output\drv_wifi_pbkdf2.o
 .debug_str     0x00000430       0x49 output\drv_wifi_param_msg.o
 .debug_str     0x00000479       0x10 output\drv_wifi_mgmt_msg.o
 .debug_str     0x00000489        0xa output\drv_wifi_mac.o
 .debug_str     0x00000493        0x0 output\drv_wifi_init.o
 .debug_str     0x00000493        0xb output\drv_wifi_event_handler.o
 .debug_str     0x0000049e        0x0 output\drv_wifi_eint.o
 .debug_str     0x0000049e        0x0 output\drv_wifi_debug_strings.o
 .debug_str     0x0000049e       0xa6 output\drv_wifi_connection_profile.o
 .debug_str     0x00000544       0x15 output\drv_wifi_connection_manager.o
 .debug_str     0x00000559       0xe4 output\drv_wifi_connection_algorithm.o
 .debug_str     0x0000063d       0x18 output\drv_wifi_config.o
 .debug_str     0x00000655        0x6 output\drv_wifi_com.o
 .debug_str     0x0000065b        0x0 output\dns_client.o
 .debug_str     0x0000065b        0xb output\dhcp_client.o
 .debug_str     0x00000666        0x0 output\Delay.o
 .debug_str     0x00000666        0x0 output\custom_ssl_cert.o
 .debug_str     0x00000666        0x0 output\custom_http_app.o
 .debug_str     0x00000666        0x0 output\big_int.o
 .debug_str     0x00000666        0xe output\ARP.o
 .debug_str     0x00000674        0x0 output\arc4.o
 .debug_str     0x00000674       0x14 output\announce.o
 .debug_str     0x00000688        0x0 output\mpfs_img2.o
 .debug_str     0x00000688        0x8 output\http_print.o
 .debug_str     0x00000690        0x0 output\http_get.o
 .debug_str     0x00000690       0x1e output\app_thingspeak.o
 .debug_str     0x000006ae       0x5d output\ringBuffer.o
 .debug_str     0x0000070b        0x7 output\sht31d.o
 .debug_str     0x00000712        0x0 c:/program files (x86)/microchip/xc32/v2.30/bin/bin/../../lib/gcc/pic32mx/4.8.3/../../../../pic32mx/lib\libmchp_peripheral_32MX440F256H.a(soft_reset_lib.o)
 .debug_str     0x00000712        0x0 c:/program files (x86)/microchip/xc32/v2.30/bin/bin/../../lib/gcc/pic32mx/4.8.3/../../../../pic32mx/lib\libmchp_peripheral_32MX440F256H.a(pcache.o)
 .debug_str     0x00000712        0x0 c:/program files (x86)/microchip/xc32/v2.30/bin/bin/../../lib/gcc/pic32mx/4.8.3/../../../../pic32mx/lib\libmchp_peripheral_32MX440F256H.a(int_disable_interrupts_lib.o)
 .debug_str     0x00000712        0x0 c:/program files (x86)/microchip/xc32/v2.30/bin/bin/../../lib/gcc/pic32mx/4.8.3/../../../../pic32mx/lib\libmchp_peripheral_32MX440F256H.a(power_idle_lib.o)
 .debug_str     0x00000712        0x0 c:/program files (x86)/microchip/xc32/v2.30/bin/bin/../../lib/gcc/pic32mx/4.8.3/../../../../pic32mx/lib\libmchp_peripheral_32MX440F256H.a(power_sleep_lib.o)
 .debug_str     0x00000712        0x0 c:/program files (x86)/microchip/xc32/v2.30/bin/bin/../../lib/gcc/pic32mx/4.8.3/../../../../pic32mx/lib\libmchp_peripheral_32MX440F256H.a(nvm_erase_page_lib.o)
 .debug_str     0x00000712        0x0 c:/program files (x86)/microchip/xc32/v2.30/bin/bin/../../lib/gcc/pic32mx/4.8.3/../../../../pic32mx/lib\libmchp_peripheral_32MX440F256H.a(nvm_operation_lib.o)
 .debug_str     0x00000712        0x0 c:/program files (x86)/microchip/xc32/v2.30/bin/bin/../../lib/gcc/pic32mx/4.8.3/../../../../pic32mx/lib\libmchp_peripheral_32MX440F256H.a(nvm_write_word_lib.o)
 .debug_str     0x00000712        0x0 c:/program files (x86)/microchip/xc32/v2.30/bin/bin/../../lib/gcc/pic32mx/4.8.3/../../../../pic32mx/lib\libmchp_peripheral_32MX440F256H.a(int_restore_interrupts_lib.o)
 .debug_str     0x00000712        0x0 c:/program files (x86)/microchip/xc32/v2.30/bin/bin/../../lib/gcc/pic32mx/4.8.3\libgcc.a(_divdi3.o)
 .debug_str     0x00000712        0x0 c:/program files (x86)/microchip/xc32/v2.30/bin/bin/../../lib/gcc/pic32mx/4.8.3\libgcc.a(floatunsisf.o)
 .debug_str     0x00000712        0x0 c:/program files (x86)/microchip/xc32/v2.30/bin/bin/../../lib/gcc/pic32mx/4.8.3/../../../../pic32mx/lib\libpic32.a(default-bootstrap-exception-handler.o)
 .debug_str     0x00000712        0x0 c:/program files (x86)/microchip/xc32/v2.30/bin/bin/../../lib/gcc/pic32mx/4.8.3/../../../../pic32mx/lib\libpic32.a(default-on-reset.o)
 .debug_str     0x00000712        0x0 c:/program files (x86)/microchip/xc32/v2.30/bin/bin/../../lib/gcc/pic32mx/4.8.3/../../../../pic32mx/lib\libpic32.a(default-on-bootstrap.o)
 .debug_str     0x00000712        0x0 c:/program files (x86)/microchip/xc32/v2.30/bin/bin/../../lib/gcc/pic32mx/4.8.3/../../../../pic32mx/lib\libpic32.a(defaultinterrupt.o)
 .debug_str     0x00000712        0x0 c:/program files (x86)/microchip/xc32/v2.30/bin/bin/../../lib/gcc/pic32mx/4.8.3/../../../../pic32mx/lib\libm.a(w_powf.o)
 .debug_str     0x00000712        0x0 c:/program files (x86)/microchip/xc32/v2.30/bin/bin/../../lib/gcc/pic32mx/4.8.3/../../../../pic32mx/lib\libm.a(s_lib_ver.o)
 .debug_str     0x00000712        0x0 c:/program files (x86)/microchip/xc32/v2.30/bin/bin/../../lib/gcc/pic32mx/4.8.3\libgcc.a(_udivdi3.o)
 .debug_str     0x00000712        0x0 c:/program files (x86)/microchip/xc32/v2.30/bin/bin/../../lib/gcc/pic32mx/4.8.3\libgcc.a(_umoddi3.o)
 .debug_str     0x00000712        0x0 c:/program files (x86)/microchip/xc32/v2.30/bin/bin/../../lib/gcc/pic32mx/4.8.3/../../../../pic32mx/lib\libpic32.a(_mon_getc.o)
 .debug_str     0x00000712        0x0 c:/program files (x86)/microchip/xc32/v2.30/bin/bin/../../lib/gcc/pic32mx/4.8.3/../../../../pic32mx/lib\libpic32.a(_mon_write.o)
 .debug_str     0x00000712        0x0 c:/program files (x86)/microchip/xc32/v2.30/bin/bin/../../lib/gcc/pic32mx/4.8.3/../../../../pic32mx/lib\libpic32.a(xc32_uart.o)
 .debug_str     0x00000712        0x0 c:/program files (x86)/microchip/xc32/v2.30/bin/bin/../../lib/gcc/pic32mx/4.8.3/../../../../pic32mx/lib\libpic32.a(isinf.o)
 .debug_str     0x00000712        0x0 c:/program files (x86)/microchip/xc32/v2.30/bin/bin/../../lib/gcc/pic32mx/4.8.3/../../../../pic32mx/lib\libpic32.a(_mon_putc.o)
 .debug_str     0x00000712        0x0 c:/program files (x86)/microchip/xc32/v2.30/bin/bin/../../lib/gcc/pic32mx/4.8.3/../../../../pic32mx/lib\libe.a(_unorddf2.o)

.debug_loc      0x00000000    0x10039
 *(.debug_loc)
 .debug_loc     0x00000000      0x143 output\app.o
 .debug_loc     0x00000143       0x40 output\ad.o
 .debug_loc     0x00000183       0x86 output\isr.o
 .debug_loc     0x00000209      0x109 output\exceptions.o
 .debug_loc     0x00000312       0xf0 output\mal.o
 .debug_loc     0x00000402      0x2a0 output\noinitram.o
 .debug_loc     0x000006a2       0x2b output\stackmeasure.o
 .debug_loc     0x000006cd      0x18e output\tmr.o
 .debug_loc     0x0000085b      0x105 output\sleep.o
 .debug_loc     0x00000960      0x393 output\eeprom.o
 .debug_loc     0x00000cf3      0x494 output\dee_page_helper.o
 .debug_loc     0x00001187      0x9a1 output\dee_page.o
 .debug_loc     0x00001b28      0x96c output\dee.o
 .debug_loc     0x00002494      0x452 output\eep_manager_crc.o
 .debug_loc     0x000028e6      0x90d output\eep_manager.o
 .debug_loc     0x000031f3      0x8fa output\bme280.o
 .debug_loc     0x00003aed      0x121 output\bme280_conversion.o
 .debug_loc     0x00003c0e      0x37b output\ccs811.o
 .debug_loc     0x00003f89      0x492 output\iic_master.o
 .debug_loc     0x0000441b      0x1c1 output\iic_master_multi.o
 .debug_loc     0x000045dc       0x34 output\wifi.o
 .debug_loc     0x00004610      0x606 output\UDP.o
 .debug_loc     0x00004c16       0x5d output\Tick.o
 .debug_loc     0x00004c73     0x1fb0 output\tcp.o
 .debug_loc     0x00006c23       0x44 output\sntp.o
 .debug_loc     0x00006c67       0x8c output\nbns.o
 .debug_loc     0x00006cf3      0x5d7 output\mpfs2.o
 .debug_loc     0x000072ca      0x1b7 output\IP.o
 .debug_loc     0x00007481       0x4d output\icmp.o
 .debug_loc     0x000074ce      0xa4c output\http2.o
 .debug_loc     0x00007f1a      0xab4 output\Helpers.o
 .debug_loc     0x000089ce      0x421 output\hashes.o
 .debug_loc     0x00008def      0x11e output\drv_wifi_spi.o
 .debug_loc     0x00008f0d      0x653 output\drv_wifi_raw.o
 .debug_loc     0x00009560       0xbd output\drv_wifi_power_save.o
 .debug_loc     0x0000961d     0x1435 output\drv_wifi_pbkdf2.o
 .debug_loc     0x0000aa52      0x48e output\drv_wifi_param_msg.o
 .debug_loc     0x0000aee0      0x19f output\drv_wifi_mgmt_msg.o
 .debug_loc     0x0000b07f      0x837 output\drv_wifi_mac.o
 .debug_loc     0x0000b8b6      0x1b2 output\drv_wifi_event_handler.o
 .debug_loc     0x0000ba68      0x9d9 output\drv_wifi_connection_profile.o
 .debug_loc     0x0000c441      0x1aa output\drv_wifi_connection_manager.o
 .debug_loc     0x0000c5eb      0x794 output\drv_wifi_connection_algorithm.o
 .debug_loc     0x0000cd7f       0x6e output\drv_wifi_config.o
 .debug_loc     0x0000cded      0x261 output\drv_wifi_com.o
 .debug_loc     0x0000d04e      0x14b output\dns_client.o
 .debug_loc     0x0000d199      0x1ff output\dhcp_client.o
 .debug_loc     0x0000d398       0x93 output\Delay.o
 .debug_loc     0x0000d42b      0x1c6 output\custom_http_app.o
 .debug_loc     0x0000d5f1      0x129 output\ARP.o
 .debug_loc     0x0000d71a       0x3d output\announce.o
 .debug_loc     0x0000d757       0x13 output\http_get.o
 .debug_loc     0x0000d76a      0x1a3 output\app_thingspeak.o
 .debug_loc     0x0000d90d      0x324 output\ringBuffer.o
 .debug_loc     0x0000dc31      0x397 output\sht31d.o
 .debug_loc     0x0000dfc8      0x9ee c:/program files (x86)/microchip/xc32/v2.30/bin/bin/../../lib/gcc/pic32mx/4.8.3\libgcc.a(_divdi3.o)
 .debug_loc     0x0000e9b6       0x74 c:/program files (x86)/microchip/xc32/v2.30/bin/bin/../../lib/gcc/pic32mx/4.8.3\libgcc.a(floatunsisf.o)
 .debug_loc     0x0000ea2a       0x2c c:/program files (x86)/microchip/xc32/v2.30/bin/bin/../../lib/gcc/pic32mx/4.8.3/../../../../pic32mx/lib\libpic32.a(default-bootstrap-exception-handler.o)
 .debug_loc     0x0000ea56       0x20 c:/program files (x86)/microchip/xc32/v2.30/bin/bin/../../lib/gcc/pic32mx/4.8.3/../../../../pic32mx/lib\libm.a(w_powf.o)
 .debug_loc     0x0000ea76      0xa6a c:/program files (x86)/microchip/xc32/v2.30/bin/bin/../../lib/gcc/pic32mx/4.8.3\libgcc.a(_udivdi3.o)
 .debug_loc     0x0000f4e0      0xa3d c:/program files (x86)/microchip/xc32/v2.30/bin/bin/../../lib/gcc/pic32mx/4.8.3\libgcc.a(_umoddi3.o)
 .debug_loc     0x0000ff1d       0x20 c:/program files (x86)/microchip/xc32/v2.30/bin/bin/../../lib/gcc/pic32mx/4.8.3/../../../../pic32mx/lib\libpic32.a(_mon_getc.o)
 .debug_loc     0x0000ff3d       0x2c c:/program files (x86)/microchip/xc32/v2.30/bin/bin/../../lib/gcc/pic32mx/4.8.3/../../../../pic32mx/lib\libpic32.a(_mon_write.o)
 .debug_loc     0x0000ff69       0xb0 c:/program files (x86)/microchip/xc32/v2.30/bin/bin/../../lib/gcc/pic32mx/4.8.3/../../../../pic32mx/lib\libpic32.a(isinf.o)
 .debug_loc     0x00010019       0x20 c:/program files (x86)/microchip/xc32/v2.30/bin/bin/../../lib/gcc/pic32mx/4.8.3/../../../../pic32mx/lib\libpic32.a(_mon_putc.o)

.debug_macinfo
 *(.debug_macinfo)

.debug_weaknames
 *(.debug_weaknames)

.debug_funcnames
 *(.debug_funcnames)

.debug_typenames
 *(.debug_typenames)

.debug_varnames
 *(.debug_varnames)

.debug_pubtypes
 *(.debug_pubtypes)

.debug_ranges   0x00000000      0xe40
 *(.debug_ranges)
 .debug_ranges  0x00000000       0x48 output\app.o
 .debug_ranges  0x00000048       0x18 output\exceptions.o
 .debug_ranges  0x00000060       0x18 output\noinitram.o
 .debug_ranges  0x00000078       0x20 output\dee_page_helper.o
 .debug_ranges  0x00000098       0x18 output\dee_page.o
 .debug_ranges  0x000000b0      0x190 output\dee.o
 .debug_ranges  0x00000240       0x60 output\eep_manager.o
 .debug_ranges  0x000002a0       0x68 output\bme280.o
 .debug_ranges  0x00000308       0x60 output\ccs811.o
 .debug_ranges  0x00000368       0xb0 output\iic_master.o
 .debug_ranges  0x00000418       0x28 output\iic_master_multi.o
 .debug_ranges  0x00000440       0x18 output\UDP.o
 .debug_ranges  0x00000458       0x30 output\Tick.o
 .debug_ranges  0x00000488      0x180 output\tcp.o
 .debug_ranges  0x00000608       0x18 output\nbns.o
 .debug_ranges  0x00000620       0x60 output\mpfs2.o
 .debug_ranges  0x00000680      0x248 output\http2.o
 .debug_ranges  0x000008c8       0x18 output\drv_wifi_raw.o
 .debug_ranges  0x000008e0       0x58 output\drv_wifi_pbkdf2.o
 .debug_ranges  0x00000938       0x18 output\drv_wifi_init.o
 .debug_ranges  0x00000950       0x18 output\drv_wifi_event_handler.o
 .debug_ranges  0x00000968       0x20 output\drv_wifi_com.o
 .debug_ranges  0x00000988       0x80 output\custom_http_app.o
 .debug_ranges  0x00000a08       0xd8 output\app_thingspeak.o
 .debug_ranges  0x00000ae0       0x18 output\sht31d.o
 .debug_ranges  0x00000af8       0x10 c:/program files (x86)/microchip/xc32/v2.30/bin/bin/../../lib/gcc/pic32mx/4.8.3/../../../../pic32mx/lib\libmchp_peripheral_32MX440F256H.a(soft_reset_lib.o)
 .debug_ranges  0x00000b08       0x18 c:/program files (x86)/microchip/xc32/v2.30/bin/bin/../../lib/gcc/pic32mx/4.8.3/../../../../pic32mx/lib\libmchp_peripheral_32MX440F256H.a(pcache.o)
 .debug_ranges  0x00000b20       0x10 c:/program files (x86)/microchip/xc32/v2.30/bin/bin/../../lib/gcc/pic32mx/4.8.3/../../../../pic32mx/lib\libmchp_peripheral_32MX440F256H.a(int_disable_interrupts_lib.o)
 .debug_ranges  0x00000b30       0x10 c:/program files (x86)/microchip/xc32/v2.30/bin/bin/../../lib/gcc/pic32mx/4.8.3/../../../../pic32mx/lib\libmchp_peripheral_32MX440F256H.a(power_idle_lib.o)
 .debug_ranges  0x00000b40       0x10 c:/program files (x86)/microchip/xc32/v2.30/bin/bin/../../lib/gcc/pic32mx/4.8.3/../../../../pic32mx/lib\libmchp_peripheral_32MX440F256H.a(power_sleep_lib.o)
 .debug_ranges  0x00000b50       0x10 c:/program files (x86)/microchip/xc32/v2.30/bin/bin/../../lib/gcc/pic32mx/4.8.3/../../../../pic32mx/lib\libmchp_peripheral_32MX440F256H.a(nvm_erase_page_lib.o)
 .debug_ranges  0x00000b60       0x10 c:/program files (x86)/microchip/xc32/v2.30/bin/bin/../../lib/gcc/pic32mx/4.8.3/../../../../pic32mx/lib\libmchp_peripheral_32MX440F256H.a(nvm_operation_lib.o)
 .debug_ranges  0x00000b70       0x10 c:/program files (x86)/microchip/xc32/v2.30/bin/bin/../../lib/gcc/pic32mx/4.8.3/../../../../pic32mx/lib\libmchp_peripheral_32MX440F256H.a(nvm_write_word_lib.o)
 .debug_ranges  0x00000b80       0x10 c:/program files (x86)/microchip/xc32/v2.30/bin/bin/../../lib/gcc/pic32mx/4.8.3/../../../../pic32mx/lib\libmchp_peripheral_32MX440F256H.a(int_restore_interrupts_lib.o)
 .debug_ranges  0x00000b90       0x78 c:/program files (x86)/microchip/xc32/v2.30/bin/bin/../../lib/gcc/pic32mx/4.8.3\libgcc.a(_divdi3.o)
 .debug_ranges  0x00000c08       0x10 c:/program files (x86)/microchip/xc32/v2.30/bin/bin/../../lib/gcc/pic32mx/4.8.3/../../../../pic32mx/lib\libpic32.a(default-bootstrap-exception-handler.o)
 .debug_ranges  0x00000c18       0x10 c:/program files (x86)/microchip/xc32/v2.30/bin/bin/../../lib/gcc/pic32mx/4.8.3/../../../../pic32mx/lib\libpic32.a(default-on-reset.o)
 .debug_ranges  0x00000c28       0x10 c:/program files (x86)/microchip/xc32/v2.30/bin/bin/../../lib/gcc/pic32mx/4.8.3/../../../../pic32mx/lib\libpic32.a(default-on-bootstrap.o)
 .debug_ranges  0x00000c38       0x10 c:/program files (x86)/microchip/xc32/v2.30/bin/bin/../../lib/gcc/pic32mx/4.8.3/../../../../pic32mx/lib\libpic32.a(defaultinterrupt.o)
 .debug_ranges  0x00000c48       0x10 c:/program files (x86)/microchip/xc32/v2.30/bin/bin/../../lib/gcc/pic32mx/4.8.3/../../../../pic32mx/lib\libm.a(w_powf.o)
 .debug_ranges  0x00000c58       0x98 c:/program files (x86)/microchip/xc32/v2.30/bin/bin/../../lib/gcc/pic32mx/4.8.3\libgcc.a(_udivdi3.o)
 .debug_ranges  0x00000cf0       0xd8 c:/program files (x86)/microchip/xc32/v2.30/bin/bin/../../lib/gcc/pic32mx/4.8.3\libgcc.a(_umoddi3.o)
 .debug_ranges  0x00000dc8       0x10 c:/program files (x86)/microchip/xc32/v2.30/bin/bin/../../lib/gcc/pic32mx/4.8.3/../../../../pic32mx/lib\libpic32.a(_mon_getc.o)
 .debug_ranges  0x00000dd8       0x10 c:/program files (x86)/microchip/xc32/v2.30/bin/bin/../../lib/gcc/pic32mx/4.8.3/../../../../pic32mx/lib\libpic32.a(_mon_write.o)
 .debug_ranges  0x00000de8       0x38 c:/program files (x86)/microchip/xc32/v2.30/bin/bin/../../lib/gcc/pic32mx/4.8.3/../../../../pic32mx/lib\libpic32.a(isinf.o)
 .debug_ranges  0x00000e20       0x10 c:/program files (x86)/microchip/xc32/v2.30/bin/bin/../../lib/gcc/pic32mx/4.8.3/../../../../pic32mx/lib\libpic32.a(_mon_putc.o)
 .debug_ranges  0x00000e30       0x10 c:/program files (x86)/microchip/xc32/v2.30/bin/bin/../../lib/gcc/pic32mx/4.8.3/../../../../pic32mx/lib\libe.a(_unorddf2.o)

.gnu.attributes
                0x00000000       0x10
 *(.gnu.attributes)
 .gnu.attributes
                0x00000000       0x10 output\main.o
 .gnu.attributes
                0x00000010       0x10 output\bootloader_interface.o
 .gnu.attributes
                0x00000020       0x10 output\app.o
 .gnu.attributes
                0x00000030       0x10 output\ad.o
 .gnu.attributes
                0x00000040       0x10 output\isr.o
 .gnu.attributes
                0x00000050       0x10 output\exceptions.o
 .gnu.attributes
                0x00000060       0x10 output\mal.o
 .gnu.attributes
                0x00000070       0x10 output\noinitram.o
 .gnu.attributes
                0x00000080       0x10 output\stackmeasure.o
 .gnu.attributes
                0x00000090       0x10 output\tmr.o
 .gnu.attributes
                0x000000a0       0x10 output\sleep.o
 .gnu.attributes
                0x000000b0       0x10 output\eeprom.o
 .gnu.attributes
                0x000000c0       0x10 output\dee_page_helper.o
 .gnu.attributes
                0x000000d0       0x10 output\dee_page.o
 .gnu.attributes
                0x000000e0       0x10 output\dee.o
 .gnu.attributes
                0x000000f0       0x10 output\eep_manager_crc.o
 .gnu.attributes
                0x00000100       0x10 output\eep_manager.o
 .gnu.attributes
                0x00000110       0x10 output\c_eep_manager.o
 .gnu.attributes
                0x00000120       0x10 output\bme280.o
 .gnu.attributes
                0x00000130       0x10 output\bme280_conversion.o
 .gnu.attributes
                0x00000140       0x10 output\ccs811.o
 .gnu.attributes
                0x00000150       0x10 output\iic_master.o
 .gnu.attributes
                0x00000160       0x10 output\iic_master_multi.o
 .gnu.attributes
                0x00000170       0x10 output\wifi.o
 .gnu.attributes
                0x00000180       0x10 output\UDP.o
 .gnu.attributes
                0x00000190       0x10 output\Tick.o
 .gnu.attributes
                0x000001a0       0x10 output\tcp.o
 .gnu.attributes
                0x000001b0       0x10 output\stack_task.o
 .gnu.attributes
                0x000001c0       0x10 output\ssl.o
 .gnu.attributes
                0x000001d0       0x10 output\sntp.o
 .gnu.attributes
                0x000001e0       0x10 output\smtp_demo.o
 .gnu.attributes
                0x000001f0       0x10 output\smtp.o
 .gnu.attributes
                0x00000200       0x10 output\rsa.o
 .gnu.attributes
                0x00000210       0x10 output\reboot.o
 .gnu.attributes
                0x00000220       0x10 output\random.o
 .gnu.attributes
                0x00000230       0x10 output\nbns.o
 .gnu.attributes
                0x00000240       0x10 output\mpfs2.o
 .gnu.attributes
                0x00000250       0x10 output\IP.o
 .gnu.attributes
                0x00000260       0x10 output\icmp.o
 .gnu.attributes
                0x00000270       0x10 output\http2.o
 .gnu.attributes
                0x00000280       0x10 output\Helpers.o
 .gnu.attributes
                0x00000290       0x10 output\hashes.o
 .gnu.attributes
                0x000002a0       0x10 output\drv_wifi_spi.o
 .gnu.attributes
                0x000002b0       0x10 output\drv_wifi_raw.o
 .gnu.attributes
                0x000002c0       0x10 output\drv_wifi_power_save.o
 .gnu.attributes
                0x000002d0       0x10 output\drv_wifi_pbkdf2.o
 .gnu.attributes
                0x000002e0       0x10 output\drv_wifi_param_msg.o
 .gnu.attributes
                0x000002f0       0x10 output\drv_wifi_mgmt_msg.o
 .gnu.attributes
                0x00000300       0x10 output\drv_wifi_mac.o
 .gnu.attributes
                0x00000310       0x10 output\drv_wifi_init.o
 .gnu.attributes
                0x00000320       0x10 output\drv_wifi_event_handler.o
 .gnu.attributes
                0x00000330       0x10 output\drv_wifi_eint.o
 .gnu.attributes
                0x00000340       0x10 output\drv_wifi_debug_strings.o
 .gnu.attributes
                0x00000350       0x10 output\drv_wifi_connection_profile.o
 .gnu.attributes
                0x00000360       0x10 output\drv_wifi_connection_manager.o
 .gnu.attributes
                0x00000370       0x10 output\drv_wifi_connection_algorithm.o
 .gnu.attributes
                0x00000380       0x10 output\drv_wifi_config.o
 .gnu.attributes
                0x00000390       0x10 output\drv_wifi_com.o
 .gnu.attributes
                0x000003a0       0x10 output\dns_client.o
 .gnu.attributes
                0x000003b0       0x10 output\dhcp_client.o
 .gnu.attributes
                0x000003c0       0x10 output\Delay.o
 .gnu.attributes
                0x000003d0       0x10 output\custom_ssl_cert.o
 .gnu.attributes
                0x000003e0       0x10 output\custom_http_app.o
 .gnu.attributes
                0x000003f0       0x10 output\big_int.o
 .gnu.attributes
                0x00000400       0x10 output\ARP.o
 .gnu.attributes
                0x00000410       0x10 output\arc4.o
 .gnu.attributes
                0x00000420       0x10 output\announce.o
 .gnu.attributes
                0x00000430       0x10 output\mpfs_img2.o
 .gnu.attributes
                0x00000440       0x10 output\http_print.o
 .gnu.attributes
                0x00000450       0x10 output\http_get.o
 .gnu.attributes
                0x00000460       0x10 output\app_thingspeak.o
 .gnu.attributes
                0x00000470       0x10 output\ringBuffer.o
 .gnu.attributes
                0x00000480       0x10 output\sht31d.o
 .gnu.attributes
                0x00000490       0x10 c:/program files (x86)/microchip/xc32/v2.30/bin/bin/../../lib/gcc/pic32mx/4.8.3/../../../../pic32mx/lib\libmchp_peripheral_32MX440F256H.a(soft_reset_lib.o)
 .gnu.attributes
                0x000004a0       0x10 c:/program files (x86)/microchip/xc32/v2.30/bin/bin/../../lib/gcc/pic32mx/4.8.3/../../../../pic32mx/lib\libmchp_peripheral_32MX440F256H.a(pcache.o)
 .gnu.attributes
                0x000004b0       0x10 c:/program files (x86)/microchip/xc32/v2.30/bin/bin/../../lib/gcc/pic32mx/4.8.3/../../../../pic32mx/lib\libmchp_peripheral_32MX440F256H.a(int_disable_interrupts_lib.o)
 .gnu.attributes
                0x000004c0       0x10 c:/program files (x86)/microchip/xc32/v2.30/bin/bin/../../lib/gcc/pic32mx/4.8.3/../../../../pic32mx/lib\libmchp_peripheral_32MX440F256H.a(power_idle_lib.o)
 .gnu.attributes
                0x000004d0       0x10 c:/program files (x86)/microchip/xc32/v2.30/bin/bin/../../lib/gcc/pic32mx/4.8.3/../../../../pic32mx/lib\libmchp_peripheral_32MX440F256H.a(power_sleep_lib.o)
 .gnu.attributes
                0x000004e0       0x10 c:/program files (x86)/microchip/xc32/v2.30/bin/bin/../../lib/gcc/pic32mx/4.8.3/../../../../pic32mx/lib\libmchp_peripheral_32MX440F256H.a(nvm_erase_page_lib.o)
 .gnu.attributes
                0x000004f0       0x10 c:/program files (x86)/microchip/xc32/v2.30/bin/bin/../../lib/gcc/pic32mx/4.8.3/../../../../pic32mx/lib\libmchp_peripheral_32MX440F256H.a(nvm_operation_lib.o)
 .gnu.attributes
                0x00000500       0x10 c:/program files (x86)/microchip/xc32/v2.30/bin/bin/../../lib/gcc/pic32mx/4.8.3/../../../../pic32mx/lib\libmchp_peripheral_32MX440F256H.a(nvm_write_word_lib.o)
 .gnu.attributes
                0x00000510       0x10 c:/program files (x86)/microchip/xc32/v2.30/bin/bin/../../lib/gcc/pic32mx/4.8.3/../../../../pic32mx/lib\libmchp_peripheral_32MX440F256H.a(int_restore_interrupts_lib.o)
 .gnu.attributes
                0x00000520       0x10 c:/program files (x86)/microchip/xc32/v2.30/bin/bin/../../lib/gcc/pic32mx/4.8.3\libgcc.a(_divdi3.o)
 .gnu.attributes
                0x00000530       0x10 c:/program files (x86)/microchip/xc32/v2.30/bin/bin/../../lib/gcc/pic32mx/4.8.3\libgcc.a(floatunsisf.o)
 .gnu.attributes
                0x00000540       0x10 c:/program files (x86)/microchip/xc32/v2.30/bin/bin/../../lib/gcc/pic32mx/4.8.3/../../../../pic32mx/lib\libpic32.a(default-bootstrap-exception-handler.o)
 .gnu.attributes
                0x00000550       0x10 c:/program files (x86)/microchip/xc32/v2.30/bin/bin/../../lib/gcc/pic32mx/4.8.3/../../../../pic32mx/lib\libpic32.a(default-on-reset.o)
 .gnu.attributes
                0x00000560       0x10 c:/program files (x86)/microchip/xc32/v2.30/bin/bin/../../lib/gcc/pic32mx/4.8.3/../../../../pic32mx/lib\libpic32.a(default-on-bootstrap.o)
 .gnu.attributes
                0x00000570       0x10 c:/program files (x86)/microchip/xc32/v2.30/bin/bin/../../lib/gcc/pic32mx/4.8.3/../../../../pic32mx/lib\libpic32.a(defaultinterrupt.o)
 .gnu.attributes
                0x00000580       0x10 c:/program files (x86)/microchip/xc32/v2.30/bin/bin/../../lib/gcc/pic32mx/4.8.3/../../../../pic32mx/lib\liblega-c.a(strncpy.o)
 .gnu.attributes
                0x00000590       0x10 c:/program files (x86)/microchip/xc32/v2.30/bin/bin/../../lib/gcc/pic32mx/4.8.3/../../../../pic32mx/lib\liblega-c.a(atol.o)
 .gnu.attributes
                0x000005a0       0x10 c:/program files (x86)/microchip/xc32/v2.30/bin/bin/../../lib/gcc/pic32mx/4.8.3/../../../../pic32mx/lib\liblega-c.a(strtol.o)
 .gnu.attributes
                0x000005b0       0x10 c:/program files (x86)/microchip/xc32/v2.30/bin/bin/../../lib/gcc/pic32mx/4.8.3/../../../../pic32mx/lib\liblega-c.a(sprintf_cdfFnopsuxX.eo)
 .gnu.attributes
                0x000005c0       0x10 c:/program files (x86)/microchip/xc32/v2.30/bin/bin/../../lib/gcc/pic32mx/4.8.3/../../../../pic32mx/lib\liblega-c.a(ctype.o)
 .gnu.attributes
                0x000005d0       0x10 c:/program files (x86)/microchip/xc32/v2.30/bin/bin/../../lib/gcc/pic32mx/4.8.3/../../../../pic32mx/lib\liblega-c.a(errno.o)
 .gnu.attributes
                0x000005e0       0x10 c:/program files (x86)/microchip/xc32/v2.30/bin/bin/../../lib/gcc/pic32mx/4.8.3/../../../../pic32mx/lib\liblega-c.a(_doprnt_cdfFnopsuxX.eo)
 .gnu.attributes
                0x000005f0       0x10 c:/program files (x86)/microchip/xc32/v2.30/bin/bin/../../lib/gcc/pic32mx/4.8.3/../../../../pic32mx/lib\liblega-c.a(_iobdata.o)
 .gnu.attributes
                0x00000600       0x10 c:/program files (x86)/microchip/xc32/v2.30/bin/bin/../../lib/gcc/pic32mx/4.8.3/../../../../pic32mx/lib\liblega-c.a(_iobfuncs.o)
 .gnu.attributes
                0x00000610       0x10 c:/program files (x86)/microchip/xc32/v2.30/bin/bin/../../lib/gcc/pic32mx/4.8.3/../../../../pic32mx/lib\liblega-c.a(_iobstring.o)
 .gnu.attributes
                0x00000620       0x10 c:/program files (x86)/microchip/xc32/v2.30/bin/bin/../../lib/gcc/pic32mx/4.8.3/../../../../pic32mx/lib\liblega-c.a(fputc.o)
 .gnu.attributes
                0x00000630       0x10 c:/program files (x86)/microchip/xc32/v2.30/bin/bin/../../lib/gcc/pic32mx/4.8.3/../../../../pic32mx/lib\libm.a(w_powf.o)
 .gnu.attributes
                0x00000640       0x10 c:/program files (x86)/microchip/xc32/v2.30/bin/bin/../../lib/gcc/pic32mx/4.8.3/../../../../pic32mx/lib\libm.a(s_lib_ver.o)
 .gnu.attributes
                0x00000650       0x10 c:/program files (x86)/microchip/xc32/v2.30/bin/bin/../../lib/gcc/pic32mx/4.8.3\libgcc.a(_udivdi3.o)
 .gnu.attributes
                0x00000660       0x10 c:/program files (x86)/microchip/xc32/v2.30/bin/bin/../../lib/gcc/pic32mx/4.8.3\libgcc.a(_umoddi3.o)
 .gnu.attributes
                0x00000670       0x10 c:/program files (x86)/microchip/xc32/v2.30/bin/bin/../../lib/gcc/pic32mx/4.8.3/../../../../pic32mx/lib\libpic32.a(_mon_getc.o)
 .gnu.attributes
                0x00000680       0x10 c:/program files (x86)/microchip/xc32/v2.30/bin/bin/../../lib/gcc/pic32mx/4.8.3/../../../../pic32mx/lib\libpic32.a(_mon_write.o)
 .gnu.attributes
                0x00000690       0x10 c:/program files (x86)/microchip/xc32/v2.30/bin/bin/../../lib/gcc/pic32mx/4.8.3/../../../../pic32mx/lib\libpic32.a(xc32_uart.o)
 .gnu.attributes
                0x000006a0       0x10 c:/program files (x86)/microchip/xc32/v2.30/bin/bin/../../lib/gcc/pic32mx/4.8.3/../../../../pic32mx/lib\libpic32.a(isinf.o)
 .gnu.attributes
                0x000006b0       0x10 c:/program files (x86)/microchip/xc32/v2.30/bin/bin/../../lib/gcc/pic32mx/4.8.3/../../../../pic32mx/lib\libpic32.a(_mon_putc.o)
 .gnu.attributes
                0x000006c0       0x10 c:/program files (x86)/microchip/xc32/v2.30/bin/bin/../../lib/gcc/pic32mx/4.8.3/../../../../pic32mx/lib\libe.a(_unorddf2.o)
                0x00000001                __MPLAB_BUILD = 0x1
LOAD C:\Users\kyrk\AppData\Local\Temp\cc2qO3z7.o
LOAD C:\Users\kyrk\AppData\Local\Temp\ccjKzsZ9.o
LOAD C:\Users\kyrk\AppData\Local\Temp\ccKOqrbg.o
LOAD c:/program files (x86)/microchip/xc32/v2.30/bin/bin/../../lib/gcc/pic32mx/4.8.3/../../../../pic32mx/lib/./proc/32MX440F256H\default_isr_vectors.o
LOAD c:/program files (x86)/microchip/xc32/v2.30/bin/bin/../../lib/gcc/pic32mx/4.8.3/../../../../pic32mx/lib\pic32_software_reset.o
LOAD c:/program files (x86)/microchip/xc32/v2.30/bin/bin/../../lib/gcc/pic32mx/4.8.3\libgcc.a
START GROUP
LOAD c:/program files (x86)/microchip/xc32/v2.30/bin/bin/../../lib/gcc/pic32mx/4.8.3/../../../../pic32mx/lib\libpic32.a
LOAD c:/program files (x86)/microchip/xc32/v2.30/bin/bin/../../lib/gcc/pic32mx/4.8.3/../../../../pic32mx/lib\libdebug.a
LOAD c:/program files (x86)/microchip/xc32/v2.30/bin/bin/../../lib/gcc/pic32mx/4.8.3/../../../../pic32mx/lib\libpic32.a
LOAD c:/program files (x86)/microchip/xc32/v2.30/bin/bin/../../lib/gcc/pic32mx/4.8.3/../../../../pic32mx/lib\liblega-c.a
LOAD c:/program files (x86)/microchip/xc32/v2.30/bin/bin/../../lib/gcc/pic32mx/4.8.3/../../../../pic32mx/lib\libm.a
LOAD c:/program files (x86)/microchip/xc32/v2.30/bin/bin/../../lib/gcc/pic32mx/4.8.3/../../../../pic32mx/lib\libe.a
LOAD c:/program files (x86)/microchip/xc32/v2.30/bin/bin/../../lib/gcc/pic32mx/4.8.3/../../../../pic32mx/lib\libdsp.a
LOAD c:/program files (x86)/microchip/xc32/v2.30/bin/bin/../../lib/gcc/pic32mx/4.8.3\libgcc.a
LOAD c:/program files (x86)/microchip/xc32/v2.30/bin/bin/../../lib/gcc/pic32mx/4.8.3/../../../../pic32mx/lib\libpic32.a
END GROUP
LOAD c:/program files (x86)/microchip/xc32/v2.30/bin/bin/../../lib/gcc/pic32mx/4.8.3\libgcc.a
OUTPUT(.\output\release.elf elf32-tradlittlemips)
LOAD stack
LOAD data_init

.reginfo        0x00000000       0x18
 .reginfo       0x00000000       0x18 c:/program files (x86)/microchip/xc32/v2.30/bin/bin/../../lib/gcc/pic32mx/4.8.3/../../../../pic32mx/lib\debug-exception-return.o

.stack          0xa0002298      0x400
 .stack         0xa0002298      0x400 stack

.exceptionLog.exceptionLog
                0xa0000200       0xc0
 .exceptionLog.exceptionLog
                0xa0000200       0xc0 output\exceptions.o
                0xa0000200                exceptionLog

.noinitram_2.noinitram_2
                0xa00003a0       0x80
 .noinitram_2.noinitram_2
                0xa00003a0       0x80 output\noinitram.o
                0xa00003a0                noinitram_2

.noinitram_1.noinitram_1
                0xa0000310       0x80
 .noinitram_1.noinitram_1
                0xa0000310       0x80 output\noinitram.o
                0xa0000310                noinitram_1

.noinitram_crc_2.noinitram_crc_2
                0xa0000390        0x8
 .noinitram_crc_2.noinitram_crc_2
                0xa0000390        0x8 output\noinitram.o
                0xa0000390                noinitram_crc_2

.noinitram_crc_1.noinitram_crc_1
                0xa0000300        0x8
 .noinitram_crc_1.noinitram_crc_1
                0xa0000300        0x8 output\noinitram.o
                0xa0000300                noinitram_crc_1

.bootloader_was_reset_called.bootloader_was_reset_called
                0xa0000020        0x4
 .bootloader_was_reset_called.bootloader_was_reset_called
                0xa0000020        0x4 output\bootloader_interface.o
                0xa0000020                bootloader_was_reset_called

.bootloader_request_B.bootloader_request_B
                0xa0000010        0x4
 .bootloader_request_B.bootloader_request_B
                0xa0000010        0x4 output\bootloader_interface.o
                0xa0000010                bootloader_request_B

.bootloader_request_A.bootloader_request_A
                0xa0000000        0x4
 .bootloader_request_A.bootloader_request_A
                0xa0000000        0x4 output\bootloader_interface.o
                0xa0000000                bootloader_request_A

.bss            0xa0001c8c      0x104
 .bss           0xa0001c8c      0x104 output\tcp.o

.data           0xa0001d90      0x188
 .data          0xa0001d90       0xd4 c:/program files (x86)/microchip/xc32/v2.30/bin/bin/../../lib/gcc/pic32mx/4.8.3/../../../../pic32mx/lib\liblega-c.a(_iobdata.o)
 .data          0xa0001e64       0xb4 output\c_eep_manager.o
                0xa0001e64                eepManager_ItemTable

.data           0xa0001f18       0x8c
 .data          0xa0001f18       0x8c c:/program files (x86)/microchip/xc32/v2.30/bin/bin/../../lib/gcc/pic32mx/4.8.3/../../../../pic32mx/lib\libm.a(fpexlog.o)

.bss            0xa0001fa4       0x88
 .bss           0xa0001fa4       0x88 c:/program files (x86)/microchip/xc32/v2.30/bin/bin/../../lib/gcc/pic32mx/4.8.3/../../../../pic32mx/lib\liblega-c.a(_iobdata.o)

.data           0xa000202c       0x84
 .data          0xa000202c       0x84 output\bme280.o
                0xa000202c                bme280_ptrTable
                0xa0002074                bme280_loadTable
                0xa0002088                bme280_sizeTable
                0xa000209c                bme280_addressTable

.bss            0xa00020b0       0xd4
 .bss           0xa00020b0       0x78 output\mpfs2.o
 .bss           0xa0002128       0x5c output\custom_http_app.o

.bss            0xa0002184       0x34
 .bss           0xa0002184       0x34 output\dhcp_client.o

.data           0xa00021b8       0x2c
 .data          0xa00021b8       0x2c output\main.o
                0xa00021b8                VERSION_ID
                0xa00021d8                softwareIdentification

.bss            0xa00021e4       0x20
 .bss           0xa00021e4       0x20 output\tmr.o

.data           0xa0002204       0x1c
 .data          0xa0002204       0x1c c:/program files (x86)/microchip/xc32/v2.30/bin/bin/../../lib/gcc/pic32mx/4.8.3/../../../../pic32mx/lib\libm.a(fpexp32.o)

.bss            0xa0002220       0x18
 .bss           0xa0002220       0x18 output\ARP.o

.data           0xa0002238       0x14
 .data          0xa0002238       0x14 output\app_thingspeak.o
                0xa0002238                app_thingspeak_server

.bss            0xa000224c       0x18
 .bss           0xa000224c        0xc output\dee.o
                0xa000224c                GetIndexOfEmptyDataElement_LastFoundHere
 .bss           0xa0002258        0xc output\dns_client.o

.data.math_errhandling_flag
                0xa0002264        0x4
 .data.math_errhandling_flag
                0xa0002264        0x4 c:/program files (x86)/microchip/xc32/v2.30/bin/bin/../../lib/gcc/pic32mx/4.8.3/../../../../pic32mx/lib\libm.a(s_lib_ver.o)
                0xa0002264                math_errhandling

.bss%z1         0x00000000        0x0
 .bss           0x00000000        0x0 c:/program files (x86)/microchip/xc32/v2.30/bin/bin/../../lib/gcc/pic32mx/4.8.3/../../../../pic32mx/lib\libe.a(_unorddf2.o)

.data%z2        0x00000000        0x0
 .data          0x00000000        0x0 c:/program files (x86)/microchip/xc32/v2.30/bin/bin/../../lib/gcc/pic32mx/4.8.3/../../../../pic32mx/lib\libe.a(_unorddf2.o)

.bss%z3         0x00000000        0x0
 .bss           0x00000000        0x0 c:/program files (x86)/microchip/xc32/v2.30/bin/bin/../../lib/gcc/pic32mx/4.8.3/../../../../pic32mx/lib\libm.a(dpcmp.o)

.data%z4        0x00000000        0x0
 .data          0x00000000        0x0 c:/program files (x86)/microchip/xc32/v2.30/bin/bin/../../lib/gcc/pic32mx/4.8.3/../../../../pic32mx/lib\libm.a(dpcmp.o)

.bss%z5         0x00000000        0x0
 .bss           0x00000000        0x0 c:/program files (x86)/microchip/xc32/v2.30/bin/bin/../../lib/gcc/pic32mx/4.8.3/../../../../pic32mx/lib\libpic32.a(_mon_putc.o)

.data%z6        0x00000000        0x0
 .data          0x00000000        0x0 c:/program files (x86)/microchip/xc32/v2.30/bin/bin/../../lib/gcc/pic32mx/4.8.3/../../../../pic32mx/lib\libpic32.a(_mon_putc.o)

.bss%z7         0x00000000        0x0
 .bss           0x00000000        0x0 c:/program files (x86)/microchip/xc32/v2.30/bin/bin/../../lib/gcc/pic32mx/4.8.3/../../../../pic32mx/lib\libpic32.a(isinf.o)

.data%z8        0x00000000        0x0
 .data          0x00000000        0x0 c:/program files (x86)/microchip/xc32/v2.30/bin/bin/../../lib/gcc/pic32mx/4.8.3/../../../../pic32mx/lib\libpic32.a(isinf.o)

.bss%z9         0x00000000        0x0
 .bss           0x00000000        0x0 c:/program files (x86)/microchip/xc32/v2.30/bin/bin/../../lib/gcc/pic32mx/4.8.3/../../../../pic32mx/lib\libpic32.a(xc32_uart.o)

.data%z10       0x00000000        0x0
 .data          0x00000000        0x0 c:/program files (x86)/microchip/xc32/v2.30/bin/bin/../../lib/gcc/pic32mx/4.8.3/../../../../pic32mx/lib\libpic32.a(xc32_uart.o)

.bss%z11        0x00000000        0x0
 .bss           0x00000000        0x0 c:/program files (x86)/microchip/xc32/v2.30/bin/bin/../../lib/gcc/pic32mx/4.8.3/../../../../pic32mx/lib\libpic32.a(_mon_write.o)

.data%z12       0x00000000        0x0
 .data          0x00000000        0x0 c:/program files (x86)/microchip/xc32/v2.30/bin/bin/../../lib/gcc/pic32mx/4.8.3/../../../../pic32mx/lib\libpic32.a(_mon_write.o)

.bss%z13        0x00000000        0x0
 .bss           0x00000000        0x0 c:/program files (x86)/microchip/xc32/v2.30/bin/bin/../../lib/gcc/pic32mx/4.8.3/../../../../pic32mx/lib\libpic32.a(_mon_getc.o)

.data%z14       0x00000000        0x0
 .data          0x00000000        0x0 c:/program files (x86)/microchip/xc32/v2.30/bin/bin/../../lib/gcc/pic32mx/4.8.3/../../../../pic32mx/lib\libpic32.a(_mon_getc.o)

.bss%z15        0x00000000        0x0
 .bss           0x00000000        0x0 c:/program files (x86)/microchip/xc32/v2.30/bin/bin/../../lib/gcc/pic32mx/4.8.3\libgcc.a(_umoddi3.o)

.data%z16       0x00000000        0x0
 .data          0x00000000        0x0 c:/program files (x86)/microchip/xc32/v2.30/bin/bin/../../lib/gcc/pic32mx/4.8.3\libgcc.a(_umoddi3.o)

.bss%z17        0x00000000        0x0
 .bss           0x00000000        0x0 c:/program files (x86)/microchip/xc32/v2.30/bin/bin/../../lib/gcc/pic32mx/4.8.3\libgcc.a(_udivdi3.o)

.data%z18       0x00000000        0x0
 .data          0x00000000        0x0 c:/program files (x86)/microchip/xc32/v2.30/bin/bin/../../lib/gcc/pic32mx/4.8.3\libgcc.a(_udivdi3.o)

.bss%z19        0x00000000        0x0
 .bss           0x00000000        0x0 c:/program files (x86)/microchip/xc32/v2.30/bin/bin/../../lib/gcc/pic32mx/4.8.3/../../../../pic32mx/lib\libm.a(fpexp32.o)

.bss%z20        0x00000000        0x0
 .bss           0x00000000        0x0 c:/program files (x86)/microchip/xc32/v2.30/bin/bin/../../lib/gcc/pic32mx/4.8.3/../../../../pic32mx/lib\libm.a(fpexlog.o)

.bss%z21        0x00000000        0x0
 .bss           0x00000000        0x0 c:/program files (x86)/microchip/xc32/v2.30/bin/bin/../../lib/gcc/pic32mx/4.8.3/../../../../pic32mx/lib\libm.a(s_lib_ver.o)

.data%z22       0x00000000        0x0
 .data          0x00000000        0x0 c:/program files (x86)/microchip/xc32/v2.30/bin/bin/../../lib/gcc/pic32mx/4.8.3/../../../../pic32mx/lib\libm.a(s_lib_ver.o)

.bss%z23        0x00000000        0x0
 .bss           0x00000000        0x0 c:/program files (x86)/microchip/xc32/v2.30/bin/bin/../../lib/gcc/pic32mx/4.8.3/../../../../pic32mx/lib\libm.a(fptodp.o)

.data%z24       0x00000000        0x0
 .data          0x00000000        0x0 c:/program files (x86)/microchip/xc32/v2.30/bin/bin/../../lib/gcc/pic32mx/4.8.3/../../../../pic32mx/lib\libm.a(fptodp.o)

.bss%z25        0x00000000        0x0
 .bss           0x00000000        0x0 c:/program files (x86)/microchip/xc32/v2.30/bin/bin/../../lib/gcc/pic32mx/4.8.3/../../../../pic32mx/lib\libm.a(fppow32.o)

.data%z26       0x00000000        0x0
 .data          0x00000000        0x0 c:/program files (x86)/microchip/xc32/v2.30/bin/bin/../../lib/gcc/pic32mx/4.8.3/../../../../pic32mx/lib\libm.a(fppow32.o)

.bss%z27        0x00000000        0x0
 .bss           0x00000000        0x0 c:/program files (x86)/microchip/xc32/v2.30/bin/bin/../../lib/gcc/pic32mx/4.8.3/../../../../pic32mx/lib\libm.a(w_powf.o)

.data%z28       0x00000000        0x0
 .data          0x00000000        0x0 c:/program files (x86)/microchip/xc32/v2.30/bin/bin/../../lib/gcc/pic32mx/4.8.3/../../../../pic32mx/lib\libm.a(w_powf.o)

.bss%z29        0x00000000        0x0
 .bss           0x00000000        0x0 c:/program files (x86)/microchip/xc32/v2.30/bin/bin/../../lib/gcc/pic32mx/4.8.3/../../../../pic32mx/lib\libm.a(sitofp.o)

.data%z30       0x00000000        0x0
 .data          0x00000000        0x0 c:/program files (x86)/microchip/xc32/v2.30/bin/bin/../../lib/gcc/pic32mx/4.8.3/../../../../pic32mx/lib\libm.a(sitofp.o)

.bss%z31        0x00000000        0x0
 .bss           0x00000000        0x0 c:/program files (x86)/microchip/xc32/v2.30/bin/bin/../../lib/gcc/pic32mx/4.8.3/../../../../pic32mx/lib\libm.a(fptoul.o)

.data%z32       0x00000000        0x0
 .data          0x00000000        0x0 c:/program files (x86)/microchip/xc32/v2.30/bin/bin/../../lib/gcc/pic32mx/4.8.3/../../../../pic32mx/lib\libm.a(fptoul.o)

.bss%z33        0x00000000        0x0
 .bss           0x00000000        0x0 c:/program files (x86)/microchip/xc32/v2.30/bin/bin/../../lib/gcc/pic32mx/4.8.3/../../../../pic32mx/lib\libm.a(fptoli.o)

.data%z34       0x00000000        0x0
 .data          0x00000000        0x0 c:/program files (x86)/microchip/xc32/v2.30/bin/bin/../../lib/gcc/pic32mx/4.8.3/../../../../pic32mx/lib\libm.a(fptoli.o)

.bss%z35        0x00000000        0x0
 .bss           0x00000000        0x0 c:/program files (x86)/microchip/xc32/v2.30/bin/bin/../../lib/gcc/pic32mx/4.8.3/../../../../pic32mx/lib\libm.a(fpmodf.o)

.data%z36       0x00000000        0x0
 .data          0x00000000        0x0 c:/program files (x86)/microchip/xc32/v2.30/bin/bin/../../lib/gcc/pic32mx/4.8.3/../../../../pic32mx/lib\libm.a(fpmodf.o)

.bss%z37        0x00000000        0x0
 .bss           0x00000000        0x0 c:/program files (x86)/microchip/xc32/v2.30/bin/bin/../../lib/gcc/pic32mx/4.8.3/../../../../pic32mx/lib\libm.a(fpcmp.o)

.data%z38       0x00000000        0x0
 .data          0x00000000        0x0 c:/program files (x86)/microchip/xc32/v2.30/bin/bin/../../lib/gcc/pic32mx/4.8.3/../../../../pic32mx/lib\libm.a(fpcmp.o)

.bss%z39        0x00000000        0x0
 .bss           0x00000000        0x0 c:/program files (x86)/microchip/xc32/v2.30/bin/bin/../../lib/gcc/pic32mx/4.8.3/../../../../pic32mx/lib\libm.a(fp32subadd.o)

.data%z40       0x00000000        0x0
 .data          0x00000000        0x0 c:/program files (x86)/microchip/xc32/v2.30/bin/bin/../../lib/gcc/pic32mx/4.8.3/../../../../pic32mx/lib\libm.a(fp32subadd.o)

.bss%z41        0x00000000        0x0
 .bss           0x00000000        0x0 c:/program files (x86)/microchip/xc32/v2.30/bin/bin/../../lib/gcc/pic32mx/4.8.3/../../../../pic32mx/lib\libm.a(fp32mul.o)

.data%z42       0x00000000        0x0
 .data          0x00000000        0x0 c:/program files (x86)/microchip/xc32/v2.30/bin/bin/../../lib/gcc/pic32mx/4.8.3/../../../../pic32mx/lib\libm.a(fp32mul.o)

.bss%z43        0x00000000        0x0
 .bss           0x00000000        0x0 c:/program files (x86)/microchip/xc32/v2.30/bin/bin/../../lib/gcc/pic32mx/4.8.3/../../../../pic32mx/lib\libm.a(fp32div.o)

.data%z44       0x00000000        0x0
 .data          0x00000000        0x0 c:/program files (x86)/microchip/xc32/v2.30/bin/bin/../../lib/gcc/pic32mx/4.8.3/../../../../pic32mx/lib\libm.a(fp32div.o)

.bss%z45        0x00000000        0x0
 .bss           0x00000000        0x0 c:/program files (x86)/microchip/xc32/v2.30/bin/bin/../../lib/gcc/pic32mx/4.8.3/../../../../pic32mx/lib\libm.a(dptofp.o)

.data%z46       0x00000000        0x0
 .data          0x00000000        0x0 c:/program files (x86)/microchip/xc32/v2.30/bin/bin/../../lib/gcc/pic32mx/4.8.3/../../../../pic32mx/lib\libm.a(dptofp.o)

.bss%z47        0x00000000        0x0
 .bss           0x00000000        0x0 c:/program files (x86)/microchip/xc32/v2.30/bin/bin/../../lib/gcc/pic32mx/4.8.3/../../../../pic32mx/lib\liblega-c.a(fputc.o)

.data%z48       0x00000000        0x0
 .data          0x00000000        0x0 c:/program files (x86)/microchip/xc32/v2.30/bin/bin/../../lib/gcc/pic32mx/4.8.3/../../../../pic32mx/lib\liblega-c.a(fputc.o)

.bss%z49        0x00000000        0x0
 .bss           0x00000000        0x0 c:/program files (x86)/microchip/xc32/v2.30/bin/bin/../../lib/gcc/pic32mx/4.8.3/../../../../pic32mx/lib\liblega-c.a(_iobstring.o)

.data%z50       0x00000000        0x0
 .data          0x00000000        0x0 c:/program files (x86)/microchip/xc32/v2.30/bin/bin/../../lib/gcc/pic32mx/4.8.3/../../../../pic32mx/lib\liblega-c.a(_iobstring.o)

.bss%z51        0x00000000        0x0
 .bss           0x00000000        0x0 c:/program files (x86)/microchip/xc32/v2.30/bin/bin/../../lib/gcc/pic32mx/4.8.3/../../../../pic32mx/lib\liblega-c.a(_iobfuncs.o)

.data%z52       0x00000000        0x0
 .data          0x00000000        0x0 c:/program files (x86)/microchip/xc32/v2.30/bin/bin/../../lib/gcc/pic32mx/4.8.3/../../../../pic32mx/lib\liblega-c.a(_iobfuncs.o)

.bss%z53        0x00000000        0x0
 .bss           0x00000000        0x0 c:/program files (x86)/microchip/xc32/v2.30/bin/bin/../../lib/gcc/pic32mx/4.8.3/../../../../pic32mx/lib\liblega-c.a(_doprnt_cdfFnopsuxX.eo)

.data%z54       0x00000000        0x0
 .data          0x00000000        0x0 c:/program files (x86)/microchip/xc32/v2.30/bin/bin/../../lib/gcc/pic32mx/4.8.3/../../../../pic32mx/lib\liblega-c.a(_doprnt_cdfFnopsuxX.eo)

.bss%z55        0x00000000        0x0
 .bss           0x00000000        0x0 c:/program files (x86)/microchip/xc32/v2.30/bin/bin/../../lib/gcc/pic32mx/4.8.3/../../../../pic32mx/lib\liblega-c.a(errno.o)

.data%z56       0x00000000        0x0
 .data          0x00000000        0x0 c:/program files (x86)/microchip/xc32/v2.30/bin/bin/../../lib/gcc/pic32mx/4.8.3/../../../../pic32mx/lib\liblega-c.a(errno.o)

.bss%z57        0x00000000        0x0
 .bss           0x00000000        0x0 c:/program files (x86)/microchip/xc32/v2.30/bin/bin/../../lib/gcc/pic32mx/4.8.3/../../../../pic32mx/lib\liblega-c.a(ctype.o)

.data%z58       0x00000000        0x0
 .data          0x00000000        0x0 c:/program files (x86)/microchip/xc32/v2.30/bin/bin/../../lib/gcc/pic32mx/4.8.3/../../../../pic32mx/lib\liblega-c.a(ctype.o)

.bss%z59        0x00000000        0x0
 .bss           0x00000000        0x0 c:/program files (x86)/microchip/xc32/v2.30/bin/bin/../../lib/gcc/pic32mx/4.8.3/../../../../pic32mx/lib\liblega-c.a(sprintf_cdfFnopsuxX.eo)

.data%z60       0x00000000        0x0
 .data          0x00000000        0x0 c:/program files (x86)/microchip/xc32/v2.30/bin/bin/../../lib/gcc/pic32mx/4.8.3/../../../../pic32mx/lib\liblega-c.a(sprintf_cdfFnopsuxX.eo)

.bss%z61        0x00000000        0x0
 .bss           0x00000000        0x0 c:/program files (x86)/microchip/xc32/v2.30/bin/bin/../../lib/gcc/pic32mx/4.8.3/../../../../pic32mx/lib\liblega-c.a(strtol.o)

.data%z62       0x00000000        0x0
 .data          0x00000000        0x0 c:/program files (x86)/microchip/xc32/v2.30/bin/bin/../../lib/gcc/pic32mx/4.8.3/../../../../pic32mx/lib\liblega-c.a(strtol.o)

.bss%z63        0x00000000        0x0
 .bss           0x00000000        0x0 c:/program files (x86)/microchip/xc32/v2.30/bin/bin/../../lib/gcc/pic32mx/4.8.3/../../../../pic32mx/lib\liblega-c.a(atol.o)

.data%z64       0x00000000        0x0
 .data          0x00000000        0x0 c:/program files (x86)/microchip/xc32/v2.30/bin/bin/../../lib/gcc/pic32mx/4.8.3/../../../../pic32mx/lib\liblega-c.a(atol.o)

.bss%z65        0x00000000        0x0
 .bss           0x00000000        0x0 c:/program files (x86)/microchip/xc32/v2.30/bin/bin/../../lib/gcc/pic32mx/4.8.3/../../../../pic32mx/lib\liblega-c.a(strncpy.o)

.data%z66       0x00000000        0x0
 .data          0x00000000        0x0 c:/program files (x86)/microchip/xc32/v2.30/bin/bin/../../lib/gcc/pic32mx/4.8.3/../../../../pic32mx/lib\liblega-c.a(strncpy.o)

.bss%z67        0x00000000        0x0
 .bss           0x00000000        0x0 c:/program files (x86)/microchip/xc32/v2.30/bin/bin/../../lib/gcc/pic32mx/4.8.3/../../../../pic32mx/lib\libpic32.a(defaultinterrupt.o)

.data%z68       0x00000000        0x0
 .data          0x00000000        0x0 c:/program files (x86)/microchip/xc32/v2.30/bin/bin/../../lib/gcc/pic32mx/4.8.3/../../../../pic32mx/lib\libpic32.a(defaultinterrupt.o)

.bss%z69        0x00000000        0x0
 .bss           0x00000000        0x0 c:/program files (x86)/microchip/xc32/v2.30/bin/bin/../../lib/gcc/pic32mx/4.8.3/../../../../pic32mx/lib\libpic32.a(vector44.o)

.data%z70       0x00000000        0x0
 .data          0x00000000        0x0 c:/program files (x86)/microchip/xc32/v2.30/bin/bin/../../lib/gcc/pic32mx/4.8.3/../../../../pic32mx/lib\libpic32.a(vector44.o)

.bss%z71        0x00000000        0x0
 .bss           0x00000000        0x0 c:/program files (x86)/microchip/xc32/v2.30/bin/bin/../../lib/gcc/pic32mx/4.8.3/../../../../pic32mx/lib\libpic32.a(vector43.o)

.data%z72       0x00000000        0x0
 .data          0x00000000        0x0 c:/program files (x86)/microchip/xc32/v2.30/bin/bin/../../lib/gcc/pic32mx/4.8.3/../../../../pic32mx/lib\libpic32.a(vector43.o)

.bss%z73        0x00000000        0x0
 .bss           0x00000000        0x0 c:/program files (x86)/microchip/xc32/v2.30/bin/bin/../../lib/gcc/pic32mx/4.8.3/../../../../pic32mx/lib\libpic32.a(vector42.o)

.data%z74       0x00000000        0x0
 .data          0x00000000        0x0 c:/program files (x86)/microchip/xc32/v2.30/bin/bin/../../lib/gcc/pic32mx/4.8.3/../../../../pic32mx/lib\libpic32.a(vector42.o)

.bss%z75        0x00000000        0x0
 .bss           0x00000000        0x0 c:/program files (x86)/microchip/xc32/v2.30/bin/bin/../../lib/gcc/pic32mx/4.8.3/../../../../pic32mx/lib\libpic32.a(vector41.o)

.data%z76       0x00000000        0x0
 .data          0x00000000        0x0 c:/program files (x86)/microchip/xc32/v2.30/bin/bin/../../lib/gcc/pic32mx/4.8.3/../../../../pic32mx/lib\libpic32.a(vector41.o)

.bss%z77        0x00000000        0x0
 .bss           0x00000000        0x0 c:/program files (x86)/microchip/xc32/v2.30/bin/bin/../../lib/gcc/pic32mx/4.8.3/../../../../pic32mx/lib\libpic32.a(vector40.o)

.data%z78       0x00000000        0x0
 .data          0x00000000        0x0 c:/program files (x86)/microchip/xc32/v2.30/bin/bin/../../lib/gcc/pic32mx/4.8.3/../../../../pic32mx/lib\libpic32.a(vector40.o)

.bss%z79        0x00000000        0x0
 .bss           0x00000000        0x0 c:/program files (x86)/microchip/xc32/v2.30/bin/bin/../../lib/gcc/pic32mx/4.8.3/../../../../pic32mx/lib\libpic32.a(vector35.o)

.data%z80       0x00000000        0x0
 .data          0x00000000        0x0 c:/program files (x86)/microchip/xc32/v2.30/bin/bin/../../lib/gcc/pic32mx/4.8.3/../../../../pic32mx/lib\libpic32.a(vector35.o)

.bss%z81        0x00000000        0x0
 .bss           0x00000000        0x0 c:/program files (x86)/microchip/xc32/v2.30/bin/bin/../../lib/gcc/pic32mx/4.8.3/../../../../pic32mx/lib\libpic32.a(vector34.o)

.data%z82       0x00000000        0x0
 .data          0x00000000        0x0 c:/program files (x86)/microchip/xc32/v2.30/bin/bin/../../lib/gcc/pic32mx/4.8.3/../../../../pic32mx/lib\libpic32.a(vector34.o)

.bss%z83        0x00000000        0x0
 .bss           0x00000000        0x0 c:/program files (x86)/microchip/xc32/v2.30/bin/bin/../../lib/gcc/pic32mx/4.8.3/../../../../pic32mx/lib\libpic32.a(vector30.o)

.data%z84       0x00000000        0x0
 .data          0x00000000        0x0 c:/program files (x86)/microchip/xc32/v2.30/bin/bin/../../lib/gcc/pic32mx/4.8.3/../../../../pic32mx/lib\libpic32.a(vector30.o)

.bss%z85        0x00000000        0x0
 .bss           0x00000000        0x0 c:/program files (x86)/microchip/xc32/v2.30/bin/bin/../../lib/gcc/pic32mx/4.8.3/../../../../pic32mx/lib\libpic32.a(vector29.o)

.data%z86       0x00000000        0x0
 .data          0x00000000        0x0 c:/program files (x86)/microchip/xc32/v2.30/bin/bin/../../lib/gcc/pic32mx/4.8.3/../../../../pic32mx/lib\libpic32.a(vector29.o)

.bss%z87        0x00000000        0x0
 .bss           0x00000000        0x0 c:/program files (x86)/microchip/xc32/v2.30/bin/bin/../../lib/gcc/pic32mx/4.8.3/../../../../pic32mx/lib\libpic32.a(vector28.o)

.data%z88       0x00000000        0x0
 .data          0x00000000        0x0 c:/program files (x86)/microchip/xc32/v2.30/bin/bin/../../lib/gcc/pic32mx/4.8.3/../../../../pic32mx/lib\libpic32.a(vector28.o)

.bss%z89        0x00000000        0x0
 .bss           0x00000000        0x0 c:/program files (x86)/microchip/xc32/v2.30/bin/bin/../../lib/gcc/pic32mx/4.8.3/../../../../pic32mx/lib\libpic32.a(vector27.o)

.data%z90       0x00000000        0x0
 .data          0x00000000        0x0 c:/program files (x86)/microchip/xc32/v2.30/bin/bin/../../lib/gcc/pic32mx/4.8.3/../../../../pic32mx/lib\libpic32.a(vector27.o)

.bss%z91        0x00000000        0x0
 .bss           0x00000000        0x0 c:/program files (x86)/microchip/xc32/v2.30/bin/bin/../../lib/gcc/pic32mx/4.8.3/../../../../pic32mx/lib\libpic32.a(vector23.o)

.data%z92       0x00000000        0x0
 .data          0x00000000        0x0 c:/program files (x86)/microchip/xc32/v2.30/bin/bin/../../lib/gcc/pic32mx/4.8.3/../../../../pic32mx/lib\libpic32.a(vector23.o)

.bss%z93        0x00000000        0x0
 .bss           0x00000000        0x0 c:/program files (x86)/microchip/xc32/v2.30/bin/bin/../../lib/gcc/pic32mx/4.8.3/../../../../pic32mx/lib\libpic32.a(vector22.o)

.data%z94       0x00000000        0x0
 .data          0x00000000        0x0 c:/program files (x86)/microchip/xc32/v2.30/bin/bin/../../lib/gcc/pic32mx/4.8.3/../../../../pic32mx/lib\libpic32.a(vector22.o)

.bss%z95        0x00000000        0x0
 .bss           0x00000000        0x0 c:/program files (x86)/microchip/xc32/v2.30/bin/bin/../../lib/gcc/pic32mx/4.8.3/../../../../pic32mx/lib\libpic32.a(vector21.o)

.data%z96       0x00000000        0x0
 .data          0x00000000        0x0 c:/program files (x86)/microchip/xc32/v2.30/bin/bin/../../lib/gcc/pic32mx/4.8.3/../../../../pic32mx/lib\libpic32.a(vector21.o)

.bss%z97        0x00000000        0x0
 .bss           0x00000000        0x0 c:/program files (x86)/microchip/xc32/v2.30/bin/bin/../../lib/gcc/pic32mx/4.8.3/../../../../pic32mx/lib\libpic32.a(vector19.o)

.data%z98       0x00000000        0x0
 .data          0x00000000        0x0 c:/program files (x86)/microchip/xc32/v2.30/bin/bin/../../lib/gcc/pic32mx/4.8.3/../../../../pic32mx/lib\libpic32.a(vector19.o)

.bss%z99        0x00000000        0x0
 .bss           0x00000000        0x0 c:/program files (x86)/microchip/xc32/v2.30/bin/bin/../../lib/gcc/pic32mx/4.8.3/../../../../pic32mx/lib\libpic32.a(vector18.o)

.data%z100      0x00000000        0x0
 .data          0x00000000        0x0 c:/program files (x86)/microchip/xc32/v2.30/bin/bin/../../lib/gcc/pic32mx/4.8.3/../../../../pic32mx/lib\libpic32.a(vector18.o)

.bss%z101       0x00000000        0x0
 .bss           0x00000000        0x0 c:/program files (x86)/microchip/xc32/v2.30/bin/bin/../../lib/gcc/pic32mx/4.8.3/../../../../pic32mx/lib\libpic32.a(vector17.o)

.data%z102      0x00000000        0x0
 .data          0x00000000        0x0 c:/program files (x86)/microchip/xc32/v2.30/bin/bin/../../lib/gcc/pic32mx/4.8.3/../../../../pic32mx/lib\libpic32.a(vector17.o)

.bss%z103       0x00000000        0x0
 .bss           0x00000000        0x0 c:/program files (x86)/microchip/xc32/v2.30/bin/bin/../../lib/gcc/pic32mx/4.8.3/../../../../pic32mx/lib\libpic32.a(vector14.o)

.data%z104      0x00000000        0x0
 .data          0x00000000        0x0 c:/program files (x86)/microchip/xc32/v2.30/bin/bin/../../lib/gcc/pic32mx/4.8.3/../../../../pic32mx/lib\libpic32.a(vector14.o)

.bss%z105       0x00000000        0x0
 .bss           0x00000000        0x0 c:/program files (x86)/microchip/xc32/v2.30/bin/bin/../../lib/gcc/pic32mx/4.8.3/../../../../pic32mx/lib\libpic32.a(vector13.o)

.data%z106      0x00000000        0x0
 .data          0x00000000        0x0 c:/program files (x86)/microchip/xc32/v2.30/bin/bin/../../lib/gcc/pic32mx/4.8.3/../../../../pic32mx/lib\libpic32.a(vector13.o)

.bss%z107       0x00000000        0x0
 .bss           0x00000000        0x0 c:/program files (x86)/microchip/xc32/v2.30/bin/bin/../../lib/gcc/pic32mx/4.8.3/../../../../pic32mx/lib\libpic32.a(vector11.o)

.data%z108      0x00000000        0x0
 .data          0x00000000        0x0 c:/program files (x86)/microchip/xc32/v2.30/bin/bin/../../lib/gcc/pic32mx/4.8.3/../../../../pic32mx/lib\libpic32.a(vector11.o)

.bss%z109       0x00000000        0x0
 .bss           0x00000000        0x0 c:/program files (x86)/microchip/xc32/v2.30/bin/bin/../../lib/gcc/pic32mx/4.8.3/../../../../pic32mx/lib\libpic32.a(vector10.o)

.data%z110      0x00000000        0x0
 .data          0x00000000        0x0 c:/program files (x86)/microchip/xc32/v2.30/bin/bin/../../lib/gcc/pic32mx/4.8.3/../../../../pic32mx/lib\libpic32.a(vector10.o)

.bss%z111       0x00000000        0x0
 .bss           0x00000000        0x0 c:/program files (x86)/microchip/xc32/v2.30/bin/bin/../../lib/gcc/pic32mx/4.8.3/../../../../pic32mx/lib\libpic32.a(vector9.o)

.data%z112      0x00000000        0x0
 .data          0x00000000        0x0 c:/program files (x86)/microchip/xc32/v2.30/bin/bin/../../lib/gcc/pic32mx/4.8.3/../../../../pic32mx/lib\libpic32.a(vector9.o)

.bss%z113       0x00000000        0x0
 .bss           0x00000000        0x0 c:/program files (x86)/microchip/xc32/v2.30/bin/bin/../../lib/gcc/pic32mx/4.8.3/../../../../pic32mx/lib\libpic32.a(vector7.o)

.data%z114      0x00000000        0x0
 .data          0x00000000        0x0 c:/program files (x86)/microchip/xc32/v2.30/bin/bin/../../lib/gcc/pic32mx/4.8.3/../../../../pic32mx/lib\libpic32.a(vector7.o)

.bss%z115       0x00000000        0x0
 .bss           0x00000000        0x0 c:/program files (x86)/microchip/xc32/v2.30/bin/bin/../../lib/gcc/pic32mx/4.8.3/../../../../pic32mx/lib\libpic32.a(vector6.o)

.data%z116      0x00000000        0x0
 .data          0x00000000        0x0 c:/program files (x86)/microchip/xc32/v2.30/bin/bin/../../lib/gcc/pic32mx/4.8.3/../../../../pic32mx/lib\libpic32.a(vector6.o)

.bss%z117       0x00000000        0x0
 .bss           0x00000000        0x0 c:/program files (x86)/microchip/xc32/v2.30/bin/bin/../../lib/gcc/pic32mx/4.8.3/../../../../pic32mx/lib\libpic32.a(vector5.o)

.data%z118      0x00000000        0x0
 .data          0x00000000        0x0 c:/program files (x86)/microchip/xc32/v2.30/bin/bin/../../lib/gcc/pic32mx/4.8.3/../../../../pic32mx/lib\libpic32.a(vector5.o)

.bss%z119       0x00000000        0x0
 .bss           0x00000000        0x0 c:/program files (x86)/microchip/xc32/v2.30/bin/bin/../../lib/gcc/pic32mx/4.8.3/../../../../pic32mx/lib\libpic32.a(vector3.o)

.data%z120      0x00000000        0x0
 .data          0x00000000        0x0 c:/program files (x86)/microchip/xc32/v2.30/bin/bin/../../lib/gcc/pic32mx/4.8.3/../../../../pic32mx/lib\libpic32.a(vector3.o)

.bss%z121       0x00000000        0x0
 .bss           0x00000000        0x0 c:/program files (x86)/microchip/xc32/v2.30/bin/bin/../../lib/gcc/pic32mx/4.8.3/../../../../pic32mx/lib\libpic32.a(vector2.o)

.data%z122      0x00000000        0x0
 .data          0x00000000        0x0 c:/program files (x86)/microchip/xc32/v2.30/bin/bin/../../lib/gcc/pic32mx/4.8.3/../../../../pic32mx/lib\libpic32.a(vector2.o)

.bss%z123       0x00000000        0x0
 .bss           0x00000000        0x0 c:/program files (x86)/microchip/xc32/v2.30/bin/bin/../../lib/gcc/pic32mx/4.8.3/../../../../pic32mx/lib\libpic32.a(vector1.o)

.data%z124      0x00000000        0x0
 .data          0x00000000        0x0 c:/program files (x86)/microchip/xc32/v2.30/bin/bin/../../lib/gcc/pic32mx/4.8.3/../../../../pic32mx/lib\libpic32.a(vector1.o)

.bss%z125       0x00000000        0x0
 .bss           0x00000000        0x0 c:/program files (x86)/microchip/xc32/v2.30/bin/bin/../../lib/gcc/pic32mx/4.8.3/../../../../pic32mx/lib\libpic32.a(general-exception.o)

.data%z126      0x00000000        0x0
 .data          0x00000000        0x0 c:/program files (x86)/microchip/xc32/v2.30/bin/bin/../../lib/gcc/pic32mx/4.8.3/../../../../pic32mx/lib\libpic32.a(general-exception.o)

.bss%z127       0x00000000        0x0
 .bss           0x00000000        0x0 c:/program files (x86)/microchip/xc32/v2.30/bin/bin/../../lib/gcc/pic32mx/4.8.3/../../../../pic32mx/lib\libpic32.a(pic32_data_init.o)

.data%z128      0x00000000        0x0
 .data          0x00000000        0x0 c:/program files (x86)/microchip/xc32/v2.30/bin/bin/../../lib/gcc/pic32mx/4.8.3/../../../../pic32mx/lib\libpic32.a(pic32_data_init.o)

.bss%z129       0x00000000        0x0
 .bss           0x00000000        0x0 c:/program files (x86)/microchip/xc32/v2.30/bin/bin/../../lib/gcc/pic32mx/4.8.3/../../../../pic32mx/lib\libpic32.a(default-nmi-handler.o)

.data%z130      0x00000000        0x0
 .data          0x00000000        0x0 c:/program files (x86)/microchip/xc32/v2.30/bin/bin/../../lib/gcc/pic32mx/4.8.3/../../../../pic32mx/lib\libpic32.a(default-nmi-handler.o)

.bss%z131       0x00000000        0x0
 .bss           0x00000000        0x0 c:/program files (x86)/microchip/xc32/v2.30/bin/bin/../../lib/gcc/pic32mx/4.8.3/../../../../pic32mx/lib\libpic32.a(default-on-bootstrap.o)

.data%z132      0x00000000        0x0
 .data          0x00000000        0x0 c:/program files (x86)/microchip/xc32/v2.30/bin/bin/../../lib/gcc/pic32mx/4.8.3/../../../../pic32mx/lib\libpic32.a(default-on-bootstrap.o)

.bss%z133       0x00000000        0x0
 .bss           0x00000000        0x0 c:/program files (x86)/microchip/xc32/v2.30/bin/bin/../../lib/gcc/pic32mx/4.8.3/../../../../pic32mx/lib\libpic32.a(default-on-reset.o)

.data%z134      0x00000000        0x0
 .data          0x00000000        0x0 c:/program files (x86)/microchip/xc32/v2.30/bin/bin/../../lib/gcc/pic32mx/4.8.3/../../../../pic32mx/lib\libpic32.a(default-on-reset.o)

.bss%z135       0x00000000        0x0
 .bss           0x00000000        0x0 c:/program files (x86)/microchip/xc32/v2.30/bin/bin/../../lib/gcc/pic32mx/4.8.3/../../../../pic32mx/lib\libpic32.a(default-bootstrap-exception-handler.o)

.data%z136      0x00000000        0x0
 .data          0x00000000        0x0 c:/program files (x86)/microchip/xc32/v2.30/bin/bin/../../lib/gcc/pic32mx/4.8.3/../../../../pic32mx/lib\libpic32.a(default-bootstrap-exception-handler.o)

.bss%z137       0x00000000        0x0
 .bss           0x00000000        0x0 c:/program files (x86)/microchip/xc32/v2.30/bin/bin/../../lib/gcc/pic32mx/4.8.3/../../../../pic32mx/lib\libpic32.a(strlen.o)

.data%z138      0x00000000        0x0
 .data          0x00000000        0x0 c:/program files (x86)/microchip/xc32/v2.30/bin/bin/../../lib/gcc/pic32mx/4.8.3/../../../../pic32mx/lib\libpic32.a(strlen.o)

.bss%z139       0x00000000        0x0
 .bss           0x00000000        0x0 c:/program files (x86)/microchip/xc32/v2.30/bin/bin/../../lib/gcc/pic32mx/4.8.3/../../../../pic32mx/lib\libpic32.a(strcpy.o)

.data%z140      0x00000000        0x0
 .data          0x00000000        0x0 c:/program files (x86)/microchip/xc32/v2.30/bin/bin/../../lib/gcc/pic32mx/4.8.3/../../../../pic32mx/lib\libpic32.a(strcpy.o)

.bss%z141       0x00000000        0x0
 .bss           0x00000000        0x0 c:/program files (x86)/microchip/xc32/v2.30/bin/bin/../../lib/gcc/pic32mx/4.8.3/../../../../pic32mx/lib\libpic32.a(strcmp.o)

.data%z142      0x00000000        0x0
 .data          0x00000000        0x0 c:/program files (x86)/microchip/xc32/v2.30/bin/bin/../../lib/gcc/pic32mx/4.8.3/../../../../pic32mx/lib\libpic32.a(strcmp.o)

.bss%z143       0x00000000        0x0
 .bss           0x00000000        0x0 c:/program files (x86)/microchip/xc32/v2.30/bin/bin/../../lib/gcc/pic32mx/4.8.3/../../../../pic32mx/lib\libpic32.a(memset.o)

.data%z144      0x00000000        0x0
 .data          0x00000000        0x0 c:/program files (x86)/microchip/xc32/v2.30/bin/bin/../../lib/gcc/pic32mx/4.8.3/../../../../pic32mx/lib\libpic32.a(memset.o)

.bss%z145       0x00000000        0x0
 .bss           0x00000000        0x0 c:/program files (x86)/microchip/xc32/v2.30/bin/bin/../../lib/gcc/pic32mx/4.8.3/../../../../pic32mx/lib\libpic32.a(memcpy.o)

.data%z146      0x00000000        0x0
 .data          0x00000000        0x0 c:/program files (x86)/microchip/xc32/v2.30/bin/bin/../../lib/gcc/pic32mx/4.8.3/../../../../pic32mx/lib\libpic32.a(memcpy.o)

.bss%z147       0x00000000        0x0
 .bss           0x00000000        0x0 c:/program files (x86)/microchip/xc32/v2.30/bin/bin/../../lib/gcc/pic32mx/4.8.3/../../../../pic32mx/lib\libpic32.a(memcmp.o)

.data%z148      0x00000000        0x0
 .data          0x00000000        0x0 c:/program files (x86)/microchip/xc32/v2.30/bin/bin/../../lib/gcc/pic32mx/4.8.3/../../../../pic32mx/lib\libpic32.a(memcmp.o)

.bss%z149       0x00000000        0x0
 .bss           0x00000000        0x0 c:/program files (x86)/microchip/xc32/v2.30/bin/bin/../../lib/gcc/pic32mx/4.8.3\libgcc.a(floatunsisf.o)

.data%z150      0x00000000        0x0
 .data          0x00000000        0x0 c:/program files (x86)/microchip/xc32/v2.30/bin/bin/../../lib/gcc/pic32mx/4.8.3\libgcc.a(floatunsisf.o)

.bss%z151       0x00000000        0x0
 .bss           0x00000000        0x0 c:/program files (x86)/microchip/xc32/v2.30/bin/bin/../../lib/gcc/pic32mx/4.8.3\libgcc.a(_divdi3.o)

.data%z152      0x00000000        0x0
 .data          0x00000000        0x0 c:/program files (x86)/microchip/xc32/v2.30/bin/bin/../../lib/gcc/pic32mx/4.8.3\libgcc.a(_divdi3.o)

.bss%z153       0x00000000        0x0
 .bss           0x00000000        0x0 c:/program files (x86)/microchip/xc32/v2.30/bin/bin/../../lib/gcc/pic32mx/4.8.3/../../../../pic32mx/lib\pic32_software_reset.o

.data%z154      0x00000000        0x0
 .data          0x00000000        0x0 c:/program files (x86)/microchip/xc32/v2.30/bin/bin/../../lib/gcc/pic32mx/4.8.3/../../../../pic32mx/lib\pic32_software_reset.o

.bss%z155       0x00000000        0x0
 .bss           0x00000000        0x0 c:/program files (x86)/microchip/xc32/v2.30/bin/bin/../../lib/gcc/pic32mx/4.8.3/../../../../pic32mx/lib/./proc/32MX440F256H\default_isr_vectors.o

.data%z156      0x00000000        0x0
 .data          0x00000000        0x0 c:/program files (x86)/microchip/xc32/v2.30/bin/bin/../../lib/gcc/pic32mx/4.8.3/../../../../pic32mx/lib/./proc/32MX440F256H\default_isr_vectors.o

.bss%z157       0x00000000        0x0
 .bss           0x00000000        0x0 C:\Users\kyrk\AppData\Local\Temp\ccKOqrbg.o

.data%z158      0x00000000        0x0
 .data          0x00000000        0x0 C:\Users\kyrk\AppData\Local\Temp\ccKOqrbg.o

.bss%z159       0x00000000        0x0
 .bss           0x00000000        0x0 C:\Users\kyrk\AppData\Local\Temp\ccjKzsZ9.o

.data%z160      0x00000000        0x0
 .data          0x00000000        0x0 C:\Users\kyrk\AppData\Local\Temp\ccjKzsZ9.o

.bss%z161       0x00000000        0x0
 .bss           0x00000000        0x0 C:\Users\kyrk\AppData\Local\Temp\cc2qO3z7.o

.data%z162      0x00000000        0x0
 .data          0x00000000        0x0 C:\Users\kyrk\AppData\Local\Temp\cc2qO3z7.o

.bss%z163       0x00000000        0x0
 .bss           0x00000000        0x0 c:/program files (x86)/microchip/xc32/v2.30/bin/bin/../../lib/gcc/pic32mx/4.8.3/../../../../pic32mx/lib\libmchp_peripheral_32MX440F256H.a(int_restore_interrupts_lib.o)

.data%z164      0x00000000        0x0
 .data          0x00000000        0x0 c:/program files (x86)/microchip/xc32/v2.30/bin/bin/../../lib/gcc/pic32mx/4.8.3/../../../../pic32mx/lib\libmchp_peripheral_32MX440F256H.a(int_restore_interrupts_lib.o)

.bss%z165       0x00000000        0x0
 .bss           0x00000000        0x0 c:/program files (x86)/microchip/xc32/v2.30/bin/bin/../../lib/gcc/pic32mx/4.8.3/../../../../pic32mx/lib\libmchp_peripheral_32MX440F256H.a(nvm_write_word_lib.o)

.data%z166      0x00000000        0x0
 .data          0x00000000        0x0 c:/program files (x86)/microchip/xc32/v2.30/bin/bin/../../lib/gcc/pic32mx/4.8.3/../../../../pic32mx/lib\libmchp_peripheral_32MX440F256H.a(nvm_write_word_lib.o)

.bss%z167       0x00000000        0x0
 .bss           0x00000000        0x0 c:/program files (x86)/microchip/xc32/v2.30/bin/bin/../../lib/gcc/pic32mx/4.8.3/../../../../pic32mx/lib\libmchp_peripheral_32MX440F256H.a(nvm_operation_lib.o)

.data%z168      0x00000000        0x0
 .data          0x00000000        0x0 c:/program files (x86)/microchip/xc32/v2.30/bin/bin/../../lib/gcc/pic32mx/4.8.3/../../../../pic32mx/lib\libmchp_peripheral_32MX440F256H.a(nvm_operation_lib.o)

.bss%z169       0x00000000        0x0
 .bss           0x00000000        0x0 c:/program files (x86)/microchip/xc32/v2.30/bin/bin/../../lib/gcc/pic32mx/4.8.3/../../../../pic32mx/lib\libmchp_peripheral_32MX440F256H.a(nvm_erase_page_lib.o)

.data%z170      0x00000000        0x0
 .data          0x00000000        0x0 c:/program files (x86)/microchip/xc32/v2.30/bin/bin/../../lib/gcc/pic32mx/4.8.3/../../../../pic32mx/lib\libmchp_peripheral_32MX440F256H.a(nvm_erase_page_lib.o)

.bss%z171       0x00000000        0x0
 .bss           0x00000000        0x0 c:/program files (x86)/microchip/xc32/v2.30/bin/bin/../../lib/gcc/pic32mx/4.8.3/../../../../pic32mx/lib\libmchp_peripheral_32MX440F256H.a(power_sleep_lib.o)

.data%z172      0x00000000        0x0
 .data          0x00000000        0x0 c:/program files (x86)/microchip/xc32/v2.30/bin/bin/../../lib/gcc/pic32mx/4.8.3/../../../../pic32mx/lib\libmchp_peripheral_32MX440F256H.a(power_sleep_lib.o)

.bss%z173       0x00000000        0x0
 .bss           0x00000000        0x0 c:/program files (x86)/microchip/xc32/v2.30/bin/bin/../../lib/gcc/pic32mx/4.8.3/../../../../pic32mx/lib\libmchp_peripheral_32MX440F256H.a(power_idle_lib.o)

.data%z174      0x00000000        0x0
 .data          0x00000000        0x0 c:/program files (x86)/microchip/xc32/v2.30/bin/bin/../../lib/gcc/pic32mx/4.8.3/../../../../pic32mx/lib\libmchp_peripheral_32MX440F256H.a(power_idle_lib.o)

.bss%z175       0x00000000        0x0
 .bss           0x00000000        0x0 c:/program files (x86)/microchip/xc32/v2.30/bin/bin/../../lib/gcc/pic32mx/4.8.3/../../../../pic32mx/lib\libmchp_peripheral_32MX440F256H.a(int_disable_interrupts_lib.o)

.data%z176      0x00000000        0x0
 .data          0x00000000        0x0 c:/program files (x86)/microchip/xc32/v2.30/bin/bin/../../lib/gcc/pic32mx/4.8.3/../../../../pic32mx/lib\libmchp_peripheral_32MX440F256H.a(int_disable_interrupts_lib.o)

.bss%z177       0x00000000        0x0
 .bss           0x00000000        0x0 c:/program files (x86)/microchip/xc32/v2.30/bin/bin/../../lib/gcc/pic32mx/4.8.3/../../../../pic32mx/lib\libmchp_peripheral_32MX440F256H.a(pcache.o)

.data%z178      0x00000000        0x0
 .data          0x00000000        0x0 c:/program files (x86)/microchip/xc32/v2.30/bin/bin/../../lib/gcc/pic32mx/4.8.3/../../../../pic32mx/lib\libmchp_peripheral_32MX440F256H.a(pcache.o)

.bss%z179       0x00000000        0x0
 .bss           0x00000000        0x0 c:/program files (x86)/microchip/xc32/v2.30/bin/bin/../../lib/gcc/pic32mx/4.8.3/../../../../pic32mx/lib\libmchp_peripheral_32MX440F256H.a(soft_reset_lib.o)

.data%z180      0x00000000        0x0
 .data          0x00000000        0x0 c:/program files (x86)/microchip/xc32/v2.30/bin/bin/../../lib/gcc/pic32mx/4.8.3/../../../../pic32mx/lib\libmchp_peripheral_32MX440F256H.a(soft_reset_lib.o)

.bss%z181       0x00000000        0x0
 .bss           0x00000000        0x0 c:/program files (x86)/microchip/xc32/v2.30/bin/bin/../../lib/gcc/pic32mx/4.8.3/../../../../pic32mx/lib/./proc/32MX440F256H\processor.o

.data%z182      0x00000000        0x0
 .data          0x00000000        0x0 c:/program files (x86)/microchip/xc32/v2.30/bin/bin/../../lib/gcc/pic32mx/4.8.3/../../../../pic32mx/lib/./proc/32MX440F256H\processor.o

.bss%z183       0x00000000        0x0
 .bss           0x00000000        0x0 output\sht31d.o

.data%z184      0x00000000        0x0
 .data          0x00000000        0x0 output\sht31d.o

.bss%z185       0x00000000        0x0
 .bss           0x00000000        0x0 output\ringBuffer.o

.data%z186      0x00000000        0x0
 .data          0x00000000        0x0 output\ringBuffer.o

.bss%z187       0x00000000        0x0
 .bss           0x00000000        0x0 output\app_thingspeak.o

.bss%z188       0x00000000        0x0
 .bss           0x00000000        0x0 output\http_get.o

.data%z189      0x00000000        0x0
 .data          0x00000000        0x0 output\http_get.o

.bss%z190       0x00000000        0x0
 .bss           0x00000000        0x0 output\http_print.o

.data%z191      0x00000000        0x0
 .data          0x00000000        0x0 output\http_print.o

.bss%z192       0x00000000        0x0
 .bss           0x00000000        0x0 output\mpfs_img2.o

.data%z193      0x00000000        0x0
 .data          0x00000000        0x0 output\mpfs_img2.o

.bss%z194       0x00000000        0x0
 .bss           0x00000000        0x0 output\announce.o

.data%z195      0x00000000        0x0
 .data          0x00000000        0x0 output\announce.o

.bss%z196       0x00000000        0x0
 .bss           0x00000000        0x0 output\arc4.o

.data%z197      0x00000000        0x0
 .data          0x00000000        0x0 output\arc4.o

.data%z198      0x00000000        0x0
 .data          0x00000000        0x0 output\ARP.o

.bss%z199       0x00000000        0x0
 .bss           0x00000000        0x0 output\big_int.o

.data%z200      0x00000000        0x0
 .data          0x00000000        0x0 output\big_int.o

.data%z201      0x00000000        0x0
 .data          0x00000000        0x0 output\custom_http_app.o

.bss%z202       0x00000000        0x0
 .bss           0x00000000        0x0 output\custom_ssl_cert.o

.data%z203      0x00000000        0x0
 .data          0x00000000        0x0 output\custom_ssl_cert.o

.bss%z204       0x00000000        0x0
 .bss           0x00000000        0x0 output\Delay.o

.data%z205      0x00000000        0x0
 .data          0x00000000        0x0 output\Delay.o

.data%z206      0x00000000        0x0
 .data          0x00000000        0x0 output\dhcp_client.o

.data%z207      0x00000000        0x0
 .data          0x00000000        0x0 output\dns_client.o

.bss%z208       0x00000000        0x0
 .bss           0x00000000        0x0 output\drv_wifi_com.o

.data%z209      0x00000000        0x0
 .data          0x00000000        0x0 output\drv_wifi_com.o

.bss%z210       0x00000000        0x0
 .bss           0x00000000        0x0 output\drv_wifi_config.o

.data%z211      0x00000000        0x0
 .data          0x00000000        0x0 output\drv_wifi_config.o

.bss%z212       0x00000000        0x0
 .bss           0x00000000        0x0 output\drv_wifi_connection_algorithm.o

.data%z213      0x00000000        0x0
 .data          0x00000000        0x0 output\drv_wifi_connection_algorithm.o

.bss%z214       0x00000000        0x0
 .bss           0x00000000        0x0 output\drv_wifi_connection_manager.o

.data%z215      0x00000000        0x0
 .data          0x00000000        0x0 output\drv_wifi_connection_manager.o

.bss%z216       0x00000000        0x0
 .bss           0x00000000        0x0 output\drv_wifi_connection_profile.o

.data%z217      0x00000000        0x0
 .data          0x00000000        0x0 output\drv_wifi_connection_profile.o

.bss%z218       0x00000000        0x0
 .bss           0x00000000        0x0 output\drv_wifi_debug_strings.o

.data%z219      0x00000000        0x0
 .data          0x00000000        0x0 output\drv_wifi_debug_strings.o

.bss%z220       0x00000000        0x0
 .bss           0x00000000        0x0 output\drv_wifi_eint.o

.data%z221      0x00000000        0x0
 .data          0x00000000        0x0 output\drv_wifi_eint.o

.bss%z222       0x00000000        0x0
 .bss           0x00000000        0x0 output\drv_wifi_event_handler.o

.data%z223      0x00000000        0x0
 .data          0x00000000        0x0 output\drv_wifi_event_handler.o

.bss%z224       0x00000000        0x0
 .bss           0x00000000        0x0 output\drv_wifi_init.o

.data%z225      0x00000000        0x0
 .data          0x00000000        0x0 output\drv_wifi_init.o

.bss%z226       0x00000000        0x0
 .bss           0x00000000        0x0 output\drv_wifi_mac.o

.data%z227      0x00000000        0x0
 .data          0x00000000        0x0 output\drv_wifi_mac.o

.bss%z228       0x00000000        0x0
 .bss           0x00000000        0x0 output\drv_wifi_mgmt_msg.o

.data%z229      0x00000000        0x0
 .data          0x00000000        0x0 output\drv_wifi_mgmt_msg.o

.bss%z230       0x00000000        0x0
 .bss           0x00000000        0x0 output\drv_wifi_param_msg.o

.data%z231      0x00000000        0x0
 .data          0x00000000        0x0 output\drv_wifi_param_msg.o

.bss%z232       0x00000000        0x0
 .bss           0x00000000        0x0 output\drv_wifi_pbkdf2.o

.data%z233      0x00000000        0x0
 .data          0x00000000        0x0 output\drv_wifi_pbkdf2.o

.bss%z234       0x00000000        0x0
 .bss           0x00000000        0x0 output\drv_wifi_power_save.o

.data%z235      0x00000000        0x0
 .data          0x00000000        0x0 output\drv_wifi_power_save.o

.bss%z236       0x00000000        0x0
 .bss           0x00000000        0x0 output\drv_wifi_raw.o

.data%z237      0x00000000        0x0
 .data          0x00000000        0x0 output\drv_wifi_raw.o

.bss%z238       0x00000000        0x0
 .bss           0x00000000        0x0 output\drv_wifi_spi.o

.data%z239      0x00000000        0x0
 .data          0x00000000        0x0 output\drv_wifi_spi.o

.bss%z240       0x00000000        0x0
 .bss           0x00000000        0x0 output\hashes.o

.data%z241      0x00000000        0x0
 .data          0x00000000        0x0 output\hashes.o

.bss%z242       0x00000000        0x0
 .bss           0x00000000        0x0 output\Helpers.o

.data%z243      0x00000000        0x0
 .data          0x00000000        0x0 output\Helpers.o

.bss%z244       0x00000000        0x0
 .bss           0x00000000        0x0 output\http2.o

.data%z245      0x00000000        0x0
 .data          0x00000000        0x0 output\http2.o

.bss%z246       0x00000000        0x0
 .bss           0x00000000        0x0 output\icmp.o

.data%z247      0x00000000        0x0
 .data          0x00000000        0x0 output\icmp.o

.bss%z248       0x00000000        0x0
 .bss           0x00000000        0x0 output\IP.o

.data%z249      0x00000000        0x0
 .data          0x00000000        0x0 output\IP.o

.data%z250      0x00000000        0x0
 .data          0x00000000        0x0 output\mpfs2.o

.bss%z251       0x00000000        0x0
 .bss           0x00000000        0x0 output\nbns.o

.data%z252      0x00000000        0x0
 .data          0x00000000        0x0 output\nbns.o

.bss%z253       0x00000000        0x0
 .bss           0x00000000        0x0 output\random.o

.data%z254      0x00000000        0x0
 .data          0x00000000        0x0 output\random.o

.bss%z255       0x00000000        0x0
 .bss           0x00000000        0x0 output\reboot.o

.data%z256      0x00000000        0x0
 .data          0x00000000        0x0 output\reboot.o

.bss%z257       0x00000000        0x0
 .bss           0x00000000        0x0 output\rsa.o

.data%z258      0x00000000        0x0
 .data          0x00000000        0x0 output\rsa.o

.bss%z259       0x00000000        0x0
 .bss           0x00000000        0x0 output\smtp.o

.data%z260      0x00000000        0x0
 .data          0x00000000        0x0 output\smtp.o

.bss%z261       0x00000000        0x0
 .bss           0x00000000        0x0 output\smtp_demo.o

.data%z262      0x00000000        0x0
 .data          0x00000000        0x0 output\smtp_demo.o

.bss%z263       0x00000000        0x0
 .bss           0x00000000        0x0 output\sntp.o

.data%z264      0x00000000        0x0
 .data          0x00000000        0x0 output\sntp.o

.bss%z265       0x00000000        0x0
 .bss           0x00000000        0x0 output\ssl.o

.data%z266      0x00000000        0x0
 .data          0x00000000        0x0 output\ssl.o

.bss%z267       0x00000000        0x0
 .bss           0x00000000        0x0 output\stack_task.o

.data%z268      0x00000000        0x0
 .data          0x00000000        0x0 output\stack_task.o

.data%z269      0x00000000        0x0
 .data          0x00000000        0x0 output\tcp.o

.bss%z270       0x00000000        0x0
 .bss           0x00000000        0x0 output\Tick.o

.data%z271      0x00000000        0x0
 .data          0x00000000        0x0 output\Tick.o

.bss%z272       0x00000000        0x0
 .bss           0x00000000        0x0 output\UDP.o

.data%z273      0x00000000        0x0
 .data          0x00000000        0x0 output\UDP.o

.bss%z274       0x00000000        0x0
 .bss           0x00000000        0x0 output\wifi.o

.data%z275      0x00000000        0x0
 .data          0x00000000        0x0 output\wifi.o

.bss%z276       0x00000000        0x0
 .bss           0x00000000        0x0 output\iic_master_multi.o

.data%z277      0x00000000        0x0
 .data          0x00000000        0x0 output\iic_master_multi.o

.bss%z278       0x00000000        0x0
 .bss           0x00000000        0x0 output\iic_master.o

.data%z279      0x00000000        0x0
 .data          0x00000000        0x0 output\iic_master.o

.bss%z280       0x00000000        0x0
 .bss           0x00000000        0x0 output\ccs811.o

.data%z281      0x00000000        0x0
 .data          0x00000000        0x0 output\ccs811.o

.bss%z282       0x00000000        0x0
 .bss           0x00000000        0x0 output\bme280_conversion.o

.data%z283      0x00000000        0x0
 .data          0x00000000        0x0 output\bme280_conversion.o

.bss%z284       0x00000000        0x0
 .bss           0x00000000        0x0 output\bme280.o

.bss%z285       0x00000000        0x0
 .bss           0x00000000        0x0 output\c_eep_manager.o

.bss%z286       0x00000000        0x0
 .bss           0x00000000        0x0 output\eep_manager.o

.data%z287      0x00000000        0x0
 .data          0x00000000        0x0 output\eep_manager.o

.bss%z288       0x00000000        0x0
 .bss           0x00000000        0x0 output\eep_manager_crc.o

.data%z289      0x00000000        0x0
 .data          0x00000000        0x0 output\eep_manager_crc.o

.data%z290      0x00000000        0x0
 .data          0x00000000        0x0 output\dee.o

.bss%z291       0x00000000        0x0
 .bss           0x00000000        0x0 output\dee_page.o

.data%z292      0x00000000        0x0
 .data          0x00000000        0x0 output\dee_page.o

.bss%z293       0x00000000        0x0
 .bss           0x00000000        0x0 output\dee_page_helper.o

.data%z294      0x00000000        0x0
 .data          0x00000000        0x0 output\dee_page_helper.o

.bss%z295       0x00000000        0x0
 .bss           0x00000000        0x0 output\eeprom.o

.data%z296      0x00000000        0x0
 .data          0x00000000        0x0 output\eeprom.o

.bss%z297       0x00000000        0x0
 .bss           0x00000000        0x0 output\sleep.o

.data%z298      0x00000000        0x0
 .data          0x00000000        0x0 output\sleep.o

.data%z299      0x00000000        0x0
 .data          0x00000000        0x0 output\tmr.o

.bss%z300       0x00000000        0x0
 .bss           0x00000000        0x0 output\stackmeasure_helper.o

.data%z301      0x00000000        0x0
 .data          0x00000000        0x0 output\stackmeasure_helper.o

.bss%z302       0x00000000        0x0
 .bss           0x00000000        0x0 output\stackmeasure.o

.data%z303      0x00000000        0x0
 .data          0x00000000        0x0 output\stackmeasure.o

.bss%z304       0x00000000        0x0
 .bss           0x00000000        0x0 output\noinitram.o

.data%z305      0x00000000        0x0
 .data          0x00000000        0x0 output\noinitram.o

.bss%z306       0x00000000        0x0
 .bss           0x00000000        0x0 output\mal.o

.data%z307      0x00000000        0x0
 .data          0x00000000        0x0 output\mal.o

.bss%z308       0x00000000        0x0
 .bss           0x00000000        0x0 output\exceptions.o

.data%z309      0x00000000        0x0
 .data          0x00000000        0x0 output\exceptions.o

.bss%z310       0x00000000        0x0
 .bss           0x00000000        0x0 output\isr.o

.data%z311      0x00000000        0x0
 .data          0x00000000        0x0 output\isr.o

.bss%z312       0x00000000        0x0
 .bss           0x00000000        0x0 output\ad.o

.data%z313      0x00000000        0x0
 .data          0x00000000        0x0 output\ad.o

.bss%z314       0x00000000        0x0
 .bss           0x00000000        0x0 output\app.o

.data%z315      0x00000000        0x0
 .data          0x00000000        0x0 output\app.o

.bss%z316       0x00000000        0x0
 .bss           0x00000000        0x0 output\bootloader_interface.o

.data%z317      0x00000000        0x0
 .data          0x00000000        0x0 output\bootloader_interface.o

.bss%z318       0x00000000        0x0
 .bss           0x00000000        0x0 output\main.o

.bss%z319       0x00000000        0x0
 .bss           0x00000000        0x0 c:/program files (x86)/microchip/xc32/v2.30/bin/bin/../../lib/gcc/pic32mx/4.8.3/../../../../pic32mx/lib\debug-exception-return.o

.data%z320      0x00000000        0x0
 .data          0x00000000        0x0 c:/program files (x86)/microchip/xc32/v2.30/bin/bin/../../lib/gcc/pic32mx/4.8.3/../../../../pic32mx/lib\debug-exception-return.o

_0742ed2060869fef
                0x9d030000     0x9000
 _0742ed2060869fef
                0x9d030000     0x9000 output\dee_page.o
                0x9d030000                dee_page

_075dc72060869fee
                0x9d010140       0x20
 _075dc72060869fee
                0x9d010140       0x20 output\main.o
                0x9d010140                VERSION_ID_FIX

_075dc66060869fee
                0x9d010120        0xc
 _075dc66060869fee
                0x9d010120        0xc output\main.o
                0x9d010120                VERSION_TIME

_075dc5a060869fee
                0x9d010100        0xc
 _075dc5a060869fee
                0x9d010100        0xc output\main.o
                0x9d010100                VERSION_DATE

.text           0x9d039000     0x531c
 .text          0x9d039000     0x3704 output\tcp.o
                0x9d039a7c                TCPInit
                0x9d039be4                TCPOpen
                0x9d039e30                TCPWasReset
                0x9d039e7c                TCPIsConnected
                0x9d039eb4                TCPDisconnect
                0x9d03a05c                TCPClose
                0x9d03a094                TCPGetRemoteInfo
                0x9d03a0f4                TCPFlush
                0x9d03a15c                TCPIsPutReady
                0x9d03a1dc                TCPPut
                0x9d03a35c                TCPPutArray
                0x9d03a544                TCPPutString
                0x9d03a58c                TCPGetTxFIFOFull
                0x9d03a5e8                TCPIsGetReady
                0x9d03a648                TCPDiscard
                0x9d03a69c                TCPGet
                0x9d03a7a4                TCPGetArray
                0x9d03a92c                TCPGetRxFIFOFree
                0x9d03a984                TCPPeekArray
                0x9d03aab8                TCPPeek
                0x9d03aae4                TCPFindArrayEx
                0x9d03ae14                TCPFindEx
                0x9d03ae4c                TCPTick
                0x9d03b674                TCPProcess
                0x9d03c4d8                TCPAdjustFIFOSize
 .text          0x9d03c704     0x1c18 output\http2.o
                0x9d03c978                HTTPPrint
                0x9d03ca18                HTTPPrint_
                0x9d03ca38                HTTPInit
                0x9d03cafc                HTTPURLDecode
                0x9d03cc18                HTTPServer
                0x9d03e054                HTTPGetArg
                0x9d03e0d4                HTTPReadPostName
                0x9d03e12c                HTTPReadPostValue
                0x9d03e1e0                HTTPIncFile

.text           0x9d03e31c     0x18cc
 .text          0x9d03e31c     0x18cc output\drv_wifi_pbkdf2.o
                0x9d03f49c                sha1_vector
                0x9d03f630                hmac_sha1_vector
                0x9d03f7b0                hmac_sha1
                0x9d03f7e8                sha1_prf
                0x9d03f908                sha1_t_prf
                0x9d03fa38                pbkdf2_sha1
                0x9d03fbe0                sha1_transform

.text           0x9d011490     0x1c90
 .text          0x9d011490      0xebc output\drv_wifi_mac.o
                0x9d0116d8                MACProcess
                0x9d011740                WFGetTCBSize
                0x9d011748                MACInit
                0x9d011750                RawInit
                0x9d0117c0                MACIsLinked
                0x9d0117c8                MACIsTxReady
                0x9d011840                WFisTxMgmtReady
                0x9d0118a0                WFFreeMgmtTx
                0x9d0118ac                SendRAWManagementFrame
                0x9d0118c8                RawGetMgmtRxBuffer
                0x9d011928                SetRawRxMgmtInProgress
                0x9d011938                isRawRxMgmtInProgress
                0x9d011940                MACDiscardRx
                0x9d01194c                MACGetFreeRxSize
                0x9d01197c                MACGetHeader
                0x9d011b28                MACFlush
                0x9d011be0                MACSetReadPtrInRx
                0x9d011bf0                MACSetWritePtr
                0x9d011c24                MACSetReadPtr
                0x9d011c58                MACMemCopyAsync
                0x9d011fdc                MACIsMemCopyDone
                0x9d011fe4                MACGet
                0x9d012030                MACGetArray
                0x9d0120c4                MACPut
                0x9d012110                MACPutArray
                0x9d01216c                MACPutHeader
                0x9d012204                CalcIPBufferChecksum
                0x9d0122d8                MACCalcRxChecksum
                0x9d01233c                MACPowerDown
                0x9d012344                MACPowerUp
 .text          0x9d01234c      0xdd4 output\dee.o
                0x9d01234c                deinit_dee
                0x9d012354                do_dee
                0x9d01237c                isr_dee_1ms
                0x9d01238c                GetIndexOfEmptyDataElement
                0x9d012470                ErasePage
                0x9d012548                MassErasePage
                0x9d0125d8                DataEERead
                0x9d0128b8                dee_read_eeprom
                0x9d012938                Dee_CloseCurrentPage
                0x9d0129dc                DataEEWrite
                0x9d012c88                dee_write_eeprom
                0x9d012ce0                PackEE
                0x9d012ed8                init_dee

.text           0x9d013120     0x19c4
 .text          0x9d013120      0xd64 output\dhcp_client.o
                0x9d013824                DHCPInit
                0x9d01389c                DHCPDisable
                0x9d0138e4                DHCPEnable
                0x9d013918                DHCPIsEnabled
                0x9d013928                DHCPIsBound
                0x9d013938                DHCPStateChanged
                0x9d013968                DHCPIsServerDetected
                0x9d013978                DHCPTempIPAddr
                0x9d013994                DHCPTask
 .text          0x9d013e84      0xc60 output\isr.o
                0x9d013e84                Timer1Handler
                0x9d013fc0                Timer2Handler
                0x9d0140fc                Timer3Handler
                0x9d014180                Timer4Handler
                0x9d0142bc                Timer5Handler
                0x9d014330                __SPI2Interrupt
                0x9d014390                __EINT3Interrupt
                0x9d0144a0                DmaHandler0
                0x9d014500                DmaHandler1
                0x9d014560                DmaHandler2
                0x9d0145c0                DmaHandler3
                0x9d014620                ChangeNotification
                0x9d0146a0                IntUart1Handler
                0x9d01477c                IntUart2Handler
                0x9d014830                IntUSBHandler
                0x9d0148b0                CoreTimerHandler
                0x9d014924                IntI2C1Handler
                0x9d0149e8                IntI2C2Handler
                0x9d014ab0                init_isr
                0x9d014ad8                deinit_isr

.text           0x9d014ae4     0x15e8
 .text          0x9d014ae4      0xb0c output\bme280.o
                0x9d014ae4                init_bme280
                0x9d014b10                deinit_bme280
                0x9d014b18                isr_bme280_1ms
                0x9d014b4c                BME280_compensate_T_int32
                0x9d014ba0                BME280_compensate_P_int64
                0x9d014e1c                bme280_compensate_H_int32
                0x9d014ed0                do_bme280
                0x9d01554c                getBME280Temp
                0x9d015554                getBME280Pressure
                0x9d01555c                getBME280Altitude
                0x9d015564                getBME280Humidity
                0x9d01556c                getBME280PressureAtSeeLevel
 .text          0x9d0155f0      0xadc output\eep_manager.o
                0x9d0155f0                deinit_eep_manager
                0x9d0155f8                isr_eep_manager_1ms
                0x9d015608                eep_manager_WriteAll_Trigger
                0x9d015630                eep_manager_WriteItem_Trigger
                0x9d015658                eep_manager_IsBusy
                0x9d01568c                eepManagerFindAddr
                0x9d0156d8                eepManagerReadVarBackup
                0x9d015840                eepManagerReadVar
                0x9d0159d4                eepManagerValid
                0x9d015a4c                eepManagerUpdate
                0x9d015aa4                eepManagerWriteVar_Asynch
                0x9d015d14                do_eep_manager
                0x9d015e00                eepManagerEmpty
                0x9d015eec                eep_manager_WriteAllDefault
                0x9d015ef4                eepManagerConfigPersistentValue
                0x9d015f70                eep_manager_ReadAll
                0x9d016078                init_eep_manager

.text._do_print_cdfFnopsuxX
                0x9d0160cc      0xab4
 .text._do_print_cdfFnopsuxX
                0x9d0160cc      0xab4 c:/program files (x86)/microchip/xc32/v2.30/bin/bin/../../lib/gcc/pic32mx/4.8.3/../../../../pic32mx/lib\liblega-c.a(_doprnt_cdfFnopsuxX.eo)
                0x9d0160cc                _do_print_cdfFnopsuxX
                0x9d0160cc                _do_print_cdfFnopuxX
                0x9d0160cc                _do_print_fF
                0x9d0160cc                _do_print_fFs

.text           0x9d016b80     0x13cc
 .text          0x9d016b80      0xa14 output\iic_master.o
                0x9d016f58                init_iic_master
                0x9d016fb4                deinit_iic_master
                0x9d016ff8                do_iic_master
                0x9d0174a4                isr_iic_master_1ms
                0x9d0174b4                isr_iic_master_100us
                0x9d0174c4                isr_iic_master_10us
                0x9d0174d4                isr_iic_master
                0x9d0174dc                iic_write_async
                0x9d017538                iic_read_async
                0x9d01758c                iic_getState_async
 .text          0x9d017594      0x9b8 output\mpfs2.o
                0x9d017594                MPFSClose
                0x9d0175c4                MPFSGet
                0x9d017630                MPFSGetArray
                0x9d0176f4                MPFSInit
                0x9d01780c                MPFSOpenID
                0x9d0178cc                MPFSOpen
                0x9d017ab0                MPFSGetLong
                0x9d017ad4                MPFSGetTimestamp
                0x9d017b2c                MPFSGetMicrotime
                0x9d017b84                MPFSGetFlags
                0x9d017bdc                MPFSGetSize
                0x9d017c34                MPFSGetBytesRem
                0x9d017c6c                MPFSGetStartAddr
                0x9d017cc4                MPFSGetEndAddr
                0x9d017d24                MPFSSeek
                0x9d017e64                MPFSGetFilename
                0x9d017ef4                MPFSGetPosition
                0x9d017f30                MPFSGetID

.text           0x9d017f4c     0x113c
 .text          0x9d017f4c      0x8c4 output\UDP.o
                0x9d017f4c                UDPOpenEx
                0x9d018088                UDPTask
                0x9d018218                UDPIsOpened
                0x9d01823c                UDPClose
                0x9d018270                UDPInit
                0x9d0182b0                UDPSetTxBuffer
                0x9d0182dc                UDPSetRxBuffer
                0x9d01830c                UDPIsPutReady
                0x9d01836c                UDPPut
                0x9d0183bc                UDPPutArray
                0x9d018424                UDPPutString
                0x9d018458                UDPFlush
                0x9d018500                UDPIsGetReady
                0x9d018554                UDPGet
                0x9d0185b4                UDPGetArray
                0x9d018618                UDPDiscard
                0x9d018660                UDPProcess
 .text          0x9d018810      0x878 output\dns_client.o
                0x9d01894c                DNSBeginUsage
                0x9d018978                DNSEndUsage
                0x9d0189c8                DNSInit
                0x9d018a04                DNSResolve
                0x9d018a74                DNSIsResolved

.text           0x9d019088      0x7b8
 .text          0x9d019088      0x7b8 output\ccs811.o
                0x9d019088                init_ccs811
                0x9d019094                isr_ccs811_1ms
                0x9d0190a0                ccs811_status_set
                0x9d0190c8                ccs811_meas_mode_get
                0x9d0190d4                ccs811_error_id_set
                0x9d01910c                ccs811_get_CO2
                0x9d019114                ccs811_get_TVOC
                0x9d01911c                ccs811_trigger_read_register
                0x9d01912c                ccs811_trigger_get_data
                0x9d01916c                do_ccs811
                0x9d0197e0                ccs811_set_TemperatureAndHumidity

.dinit          0x9d019840      0x790
 .dinit         0x9d019840      0x790 data_init

.text           0x9d019fd0      0xe64
 .text          0x9d019fd0      0x784 output\Helpers.o
                0x9d019fd0                LFSRRand
                0x9d01a00c                LFSRSeedRand
                0x9d01a048                GenerateRandomDWORD
                0x9d01a054                StringToIPAddress
                0x9d01a198                Base64Decode
                0x9d01a2e0                uitoa_my
                0x9d01a36c                ultoa_my
                0x9d01a3f0                hexatob
                0x9d01a454                btohexa_high
                0x9d01a46c                btohexa_low
                0x9d01a484                stricmppgm2ram
                0x9d01a4fc                swaps
                0x9d01a514                swapl
                0x9d01a554                CalcIPChecksum
                0x9d01a5bc                strupr
                0x9d01a5f8                FormatNetBIOSName
                0x9d01a664                strnchr
                0x9d01a69c                strncpy_m
 .text          0x9d01a754      0x6e0 output\drv_wifi_connection_algorithm.o
                0x9d01a834                WF_CASetElements
                0x9d01a924                WF_CASetElementsN
                0x9d01a998                WF_CAGetElements
                0x9d01a9fc                WF_CASetScanType
                0x9d01aa24                WF_CAGetScanType
                0x9d01aa38                WF_CASetMinChannelTime
                0x9d01aa64                WF_CAGetMinChannelTime
                0x9d01aaa4                WF_CASetMaxChannelTime
                0x9d01aad0                WF_CAGetMaxChannelTime
                0x9d01ab10                WF_CASetProbeDelay
                0x9d01ab3c                WF_CAGetProbeDelay
                0x9d01ab7c                WF_CASetScanCount
                0x9d01aba4                WF_CAGetScanCount
                0x9d01abb8                WF_CASetRssi
                0x9d01abe0                WF_CAGetRssi
                0x9d01abf4                WF_CASetConnectionProfileList
                0x9d01ac00                WF_CAGetConnectionProfileList
                0x9d01ac0c                WF_CASetListRetryCount
                0x9d01ac34                WF_CAGetListRetryCount
                0x9d01ac48                WF_CASetEventNotificationAction
                0x9d01ac50                WF_CAGetEventNotificationAction
                0x9d01ac5c                WF_CASetBeaconTimeoutAction
                0x9d01ac84                WF_CAGetBeaconTimeoutAction
                0x9d01ac98                WF_CASetDeauthAction
                0x9d01acc0                WF_CAGetDeauthAction
                0x9d01acd4                WF_CASetChannelList
                0x9d01ace8                WF_CAGetChannelList
                0x9d01ad5c                WF_CASetListenInterval
                0x9d01ad88                WF_CAGetListenInterval
                0x9d01adc8                WF_CASetBeaconTimeout
                0x9d01adf0                WF_CAGetBeaconTimeout
                0x9d01ae04                GetEventNotificationMask
                0x9d01ae0c                WF_DisableModuleConnectionManager

.text           0x9d01ae34      0xd4c
 .text          0x9d01ae34      0x6bc output\drv_wifi_com.o
                0x9d01ae34                WiFiTask
                0x9d01af00                SignalDHCPSuccessful
                0x9d01af10                SetDhcpProgressState
                0x9d01af40                SignalWiFiConnectionChanged
                0x9d01af50                Read8BitWFRegister
                0x9d01af90                Write8BitWFRegister
                0x9d01afc4                WFProcess
                0x9d01b10c                Read16BitWFRegister
                0x9d01b158                Write16BitWFRegister
                0x9d01b194                WriteWFArray
                0x9d01b1f0                ReadWFArray
                0x9d01b25c                WFEintHandler
                0x9d01b314                ReenablePowerSaveMode
                0x9d01b320                WFHardwareInit
 .text          0x9d01b4f0      0x690 output\custom_http_app.o
                0x9d01b4f0                HTTPNeedsAuth
                0x9d01b520                HTTPCheckAuth
                0x9d01b570                HTTPExecutePost

.text           0x9d01bb80      0xc58
 .text          0x9d01bb80      0x658 output\drv_wifi_connection_profile.o
                0x9d01bc50                WF_CPCreate
                0x9d01bcb0                WF_CPDelete
                0x9d01bcf8                WF_CPGetIds
                0x9d01bd50                WF_CPSetElements
                0x9d01bdb4                WF_CPGetElements
                0x9d01bde0                WF_CPSetSsidType
                0x9d01be08                WF_CPGetSsidType
                0x9d01be34                WF_CPSetSsid
                0x9d01be90                WF_CPGetSsid
                0x9d01bf04                WF_CPSetBssid
                0x9d01bf14                WF_CPGetBssid
                0x9d01bf40                WF_CPSetNetworkType
                0x9d01bf68                WF_CPGetNetworkType
                0x9d01bf94                WF_CPSetWepKeyType
                0x9d01bfbc                WF_CPGetWepKeyType
                0x9d01bfe8                WF_CPSetSecurity
                0x9d01c06c                WF_CPGetSecurity
                0x9d01c130                WF_CPSetDefaultWepKeyIndex
                0x9d01c158                WF_CPGetDefaultWepKeyIndex
                0x9d01c184                WF_CPSetAdHocBehavior
                0x9d01c1ac                WF_CPGetAdHocBehavior
 .text          0x9d01c1d8      0x600 output\app_thingspeak.o
                0x9d01c1d8                init_thingspeak
                0x9d01c220                do_app_thingspeak
                0x9d01c78c                isr_app_thingspeak_1ms
                0x9d01c79c                app_thingspeak_send_measurement

.text._fconvert
                0x9d01c7d8      0x5e0
 .text._fconvert
                0x9d01c7d8      0x5e0 c:/program files (x86)/microchip/xc32/v2.30/bin/bin/../../lib/gcc/pic32mx/4.8.3/../../../../pic32mx/lib\liblega-c.a(_doprnt_cdfFnopsuxX.eo)

.text           0x9d01cdb8      0x584
 .text          0x9d01cdb8      0x584 output\drv_wifi_raw.o
                0x9d01ced4                AllocateMgmtTxBuffer
                0x9d01cf40                DeallocateMgmtRxBuffer
                0x9d01cf74                AllocateDataTxBuffer
                0x9d01cfe4                DeallocateDataTxBuffer
                0x9d01d014                DeallocateDataRxBuffer
                0x9d01d028                RawSendTxBuffer
                0x9d01d058                RawMountRxBuffer
                0x9d01d090                RawToRawCopy
                0x9d01d0a0                PushRawWindow
                0x9d01d0b0                PopRawWindow
                0x9d01d0c0                ScratchMount
                0x9d01d108                ScratchUnmount
                0x9d01d144                RawSetIndex
                0x9d01d1c4                RawGetIndex
                0x9d01d1d8                RawGetByte
                0x9d01d258                RawRead
                0x9d01d298                RawSetByte
                0x9d01d2ac                RawWrite
                0x9d01d2ec                SendRAWDataFrame

.rodata         0x9d01d33c      0x530
 .rodata        0x9d01d33c      0x530 output\http2.o

.text           0x9d01d86c      0x9f8
 .text          0x9d01d86c      0x510 output\app.o
                0x9d01d86c                init_app
                0x9d01d8dc                isr_app_1ms
                0x9d01d940                isr_app_100us
                0x9d01d948                isr_app_custom
                0x9d01d950                backToSleep
                0x9d01d958                eepManager_NotifyUserFailedRead
                0x9d01d960                app_LiPoVoltage_To_Percentage
                0x9d01dc00                do_app
 .text          0x9d01dd7c      0x4e8 output\tmr.o
                0x9d01dd7c                init_tmr
                0x9d01de28                deinit_tmr
                0x9d01de74                do_tmr
                0x9d01de7c                delayms
                0x9d01deb4                add_timer
                0x9d01df2c                remove_timer
                0x9d01dfa4                read_timer
                0x9d01dff8                write_timer
                0x9d01e048                init_timer
                0x9d01e074                setTimer
                0x9d01e08c                getTimer
                0x9d01e0a4                isr_tmr4
                0x9d01e0ac                isr_tmr3
                0x9d01e0b4                isr_tmr2
                0x9d01e0c4                isr_tmr1
                0x9d01e1dc                getGlobalTime
                0x9d01e220                getGlobalTimeUs

.text           0x9d01e264      0x924
 .text          0x9d01e264      0x4b4 c:/program files (x86)/microchip/xc32/v2.30/bin/bin/../../lib/gcc/pic32mx/4.8.3\libgcc.a(_divdi3.o)
                0x9d01e264                __divdi3
 .text          0x9d01e718      0x470 output\dee_page.o
                0x9d01e718                GetEraseCounter
                0x9d01e734                dee_page_update_debug_status
                0x9d01e768                init_dee_page
                0x9d01e78c                do_dee_page
                0x9d01e794                dee_page_mass_erase_page
                0x9d01e7f4                dee_page_erase_page
                0x9d01e88c                dee_page_read
                0x9d01e8ac                dee_page_read_status
                0x9d01e8cc                dee_page_read_address
                0x9d01e8f0                dee_page_read_data
                0x9d01e910                dee_page_read_crc
                0x9d01e934                dee_page_write_status
                0x9d01e94c                dee_page_write_address
                0x9d01e978                dee_page_write_data
                0x9d01e9a0                dee_page_write_crc
                0x9d01e9c8                dee_page_read_element
                0x9d01ea60                dee_page_write_element

.text           0x9d01eb88      0x8bc
 .text          0x9d01eb88      0x464 c:/program files (x86)/microchip/xc32/v2.30/bin/bin/../../lib/gcc/pic32mx/4.8.3\libgcc.a(_umoddi3.o)
                0x9d01eb88                __umoddi3
 .text          0x9d01efec      0x458 c:/program files (x86)/microchip/xc32/v2.30/bin/bin/../../lib/gcc/pic32mx/4.8.3\libgcc.a(_udivdi3.o)
                0x9d01efec                __udivdi3

.text           0x9d01f444      0x884
 .text          0x9d01f444      0x444 output\hashes.o
                0x9d01f5a8                MD5Initialize
                0x9d01f5e4                MD5AddData
                0x9d01f6b4                HashAddData
                0x9d01f6d0                MD5Calculate
 .text          0x9d01f888      0x440 output\drv_wifi_param_msg.o
                0x9d01f888                WF_GetMultiCastFilter
                0x9d01f930                SendSetParamMsg
                0x9d01f980                WFEnableMRF24WB0MMode
                0x9d01f9ac                WF_SetLinkDownThreshold
                0x9d01f9d4                WFEnableDeferredPowerSave
                0x9d01fa00                WF_SetMacAddress
                0x9d01fa10                WF_SetMultiCastFilter
                0x9d01fabc                WF_SetTxDataConfirm
                0x9d01fae4                WF_SetRegionalDomain
                0x9d01fb0c                WF_SetRtsThreshold
                0x9d01fb58                SendGetParamMsg
                0x9d01fbc4                WF_GetDeviceInfo
                0x9d01fc0c                WF_GetMacAddress
                0x9d01fc1c                WF_GetTxDataConfirm
                0x9d01fc2c                WF_GetRegionalDomain
                0x9d01fc3c                WF_GetRtsThreshold
                0x9d01fc78                WF_GetMacStats

.text           0x9d03fbe8      0x408
 .text          0x9d03fbe8      0x408 output\wifi.o
                0x9d03fbe8                init_serial_wifi
                0x9d03fbf0                do_serial_wifi
                0x9d03fbf8                deinit_serial_wifi
                0x9d03fc00                deinit_wifi
                0x9d03fcb8                wifi_is_connected
                0x9d03fcc0                isr_wifi_1ms
                0x9d03fcc8                isr_eint_wifi
                0x9d03fcd0                WF_Connect
                0x9d03fde0                init_wifi
                0x9d03ff28                DisplayIPValue
                0x9d03ff70                do_wifi

.text.libm      0x9d01fcc8      0x408
 .text.libm     0x9d01fcc8      0x408 c:/program files (x86)/microchip/xc32/v2.30/bin/bin/../../lib/gcc/pic32mx/4.8.3/../../../../pic32mx/lib\libm.a(fppow32.o)
                0x9d01fcc8                fppow
                0x9d01fcc8                __mchp_powf

.text           0x9d0200d0      0x7a4
 .text          0x9d0200d0      0x3dc output\mal.o
                0x9d0200d8                mal_get_reset_reason
                0x9d0200f0                mal_reset
                0x9d020100                mal_reset_reason
                0x9d02025c                mal_DmaSuspend
                0x9d02028c                mal_DmaResume
                0x9d0202ac                mal_clockswitch_slowdown
                0x9d020368                mal_clockswitch
                0x9d020438                init_mal
 .text          0x9d0204ac      0x3c8 output\nbns.o
                0x9d0204ac                NBNSInit
                0x9d0204b4                NBNSTask

.text           0x9d020874      0x708
 .text          0x9d020874      0x39c output\ARP.o
                0x9d020874                ARPInit
                0x9d0208a4                ARPIsResolved
                0x9d02091c                SwapARPPacket
                0x9d020a20                ARPSendPkt
                0x9d020a68                ARPResolve
                0x9d020ae0                ARPProcess
 .text          0x9d020c10      0x36c output\iic_master_multi.o
                0x9d020c10                init_iic_master_multi
                0x9d020c28                deinit_iic_master_multi
                0x9d020c40                do_iic_master_multi
                0x9d020e40                isr_iic_master_multi_1ms
                0x9d020e50                isr_iic_master_multi_100us
                0x9d020e60                iic_write_async_multi
                0x9d020edc                iic_read_async_multi
                0x9d020f50                iic_getState_async_multi

.text           0x9d020f7c      0x6a0
 .text          0x9d020f7c      0x358 output\dee_page_helper.o
                0x9d020f7c                GetUnexpiredPage
                0x9d020fec                GetActiveCurrentPage
                0x9d021074                GetActiveCurrentPageCount
                0x9d0210dc                GetNextPage
                0x9d021104                GetPreviousPage
                0x9d021128                GetPageStatus
                0x9d0211a0                SetPageStatus
 .text          0x9d0212d4      0x348 output\stack_task.o
                0x9d0212d4                StackInit
                0x9d02139c                StackTask
                0x9d0215dc                StackApplications
                0x9d021610                RenewDhcp

.text           0x9d02161c      0x318
 .text          0x9d02161c      0x318 output\drv_wifi_mgmt_msg.o
                0x9d02161c                SendMgmtMsg
                0x9d021718                SignalMgmtConfirmReceivedEvent
                0x9d021728                WaitForMgmtResponse
                0x9d02183c                WaitForMgmtResponseAndReadData
                0x9d021910                WFSetFuncState

.rodata         0x9d021934      0x314
 .rodata        0x9d021934      0x314 output\mpfs_img2.o
                0x9d021934                MPFS_Start

.text           0x9d021c48      0x618
 .text          0x9d021c48      0x310 output\sleep.o
                0x9d021c48                init_sleep
                0x9d021c70                deinit_sleep
                0x9d021c78                isr_sleep_1ms
                0x9d021c88                sleepSetRequestRunApp
                0x9d021cb8                sleepClearRequestRunApp
                0x9d021cdc                sleepGetRequestRunApp
                0x9d021ce8                sleepSetRequestRunDriver
                0x9d021d10                sleepClearRequestRunDriver
                0x9d021d34                sleepGetRequestRunDriver
                0x9d021d40                sleepGetMainLoopRun
                0x9d021d48                idle_Request
                0x9d021d50                sleep_Request
                0x9d021d70                executeSleep
                0x9d021e6c                do_sleep
                0x9d021f50                sleepExecuteSleep
 .text          0x9d021f58      0x308 output\sht31d.o
                0x9d021f58                init_sht31d
                0x9d021f78                isr_sht31d_1ms
                0x9d021f84                sht31d_getTemp
                0x9d021f8c                sht31d_getHumidity
                0x9d021f94                sht3xd_calculate_temp_c
                0x9d021fe4                sht3xd_calculate_humid
                0x9d022024                sht31d_CRC8
                0x9d022074                do_sht31d

.text.libm      0x9d022260      0x2b4
 .text.libm     0x9d022260      0x2b4 c:/program files (x86)/microchip/xc32/v2.30/bin/bin/../../lib/gcc/pic32mx/4.8.3/../../../../pic32mx/lib\libm.a(fpexlog.o)
                0x9d022260                fpexlog

.text           0x9d022514      0x290
 .text          0x9d022514      0x290 output\announce.o
                0x9d022514                AnnounceInit
                0x9d02251c                AnnounceIP
                0x9d022614                DiscoveryTask

.text.strtol    0x9d0227a4      0x27c
 .text.strtol   0x9d0227a4      0x27c c:/program files (x86)/microchip/xc32/v2.30/bin/bin/../../lib/gcc/pic32mx/4.8.3/../../../../pic32mx/lib\liblega-c.a(strtol.o)
                0x9d0227a4                strtol

.text           0x9d022a20      0x278
 .text          0x9d022a20      0x278 output\noinitram.o
                0x9d022a90                noinitram_IsValid
                0x9d022b34                noinitram_getByte
                0x9d022ba0                noinitram_getByteArray
                0x9d022c28                noinitram_setByte
                0x9d022c50                noinitram_setByteArray

.text.fpsubadd  0x9d022c98      0x278
 .text.fpsubadd
                0x9d022c98      0x278 c:/program files (x86)/microchip/xc32/v2.30/bin/bin/../../lib/gcc/pic32mx/4.8.3/../../../../pic32mx/lib\libm.a(fp32subadd.o)
                0x9d022c98                fpsub
                0x9d022c98                __subsf3
                0x9d022ca0                __addsf3
                0x9d022ca0                fpadd

.text           0x9d022f10      0x4d0
 .text          0x9d022f10      0x270 output\sntp.o
                0x9d022f10                SNTPInit
                0x9d022f18                SNTPClient
                0x9d023130                SNTPGetUTCSeconds
 .text          0x9d023180      0x260 output\IP.o
                0x9d0231c4                IPGetHeader
                0x9d023308                IPPutHeader
                0x9d0233d0                IPSetRxBuffer

.text           0x9d0233e0      0x478
 .text          0x9d0233e0      0x240 output\drv_wifi_event_handler.o
                0x9d0233e0                WFProcessMgmtIndicateMsg
 .text          0x9d023620      0x238 output\drv_wifi_power_save.o
                0x9d023664                WFConfigureLowPowerMode
                0x9d0236cc                WF_PsPollEnable
                0x9d02374c                isSleepNeeded
                0x9d023754                ClearSleepNeeded
                0x9d02375c                SetSleepNeeded
                0x9d023768                SetAppPowerSaveMode
                0x9d023770                GetAppPowerSaveMode
                0x9d023778                WF_PsPollDisable
                0x9d0237b8                WF_GetPowerSaveState
                0x9d0237c4                WFisPsPollEnabled
                0x9d0237d8                WFIsPsPollActive
                0x9d0237e0                EnsureWFisAwake
                0x9d023828                WF_HibernateEnable
                0x9d023850                SetPowerSaveState

.text           0x9d023858      0x234
 .text          0x9d023858      0x234 output\drv_wifi_connection_manager.o
                0x9d023858                WF_CMConnect
                0x9d0238a4                WF_CMGetConnectionState
                0x9d023938                WFisConnected
                0x9d023940                SetLogicalConnectionState
                0x9d023948                WF_CMCheckConnectionState
                0x9d0239bc                WF_CMDisconnect
                0x9d023a2c                WF_ConvPassphraseToKey

.text.fp32div   0x9d023a8c      0x230
 .text.fp32div  0x9d023a8c      0x230 c:/program files (x86)/microchip/xc32/v2.30/bin/bin/../../lib/gcc/pic32mx/4.8.3/../../../../pic32mx/lib\libm.a(fp32div.o)
                0x9d023a8c                fpdiv
                0x9d023a8c                __divsf3

.text           0x9d023cbc      0x40c
 .text          0x9d023cbc      0x208 output\http_print.o
                0x9d023cbc                HTTPPrint_reboot
                0x9d023ccc                HTTPPrint_MyVariableTemperature
                0x9d023d14                HTTPPrint_MyVariablePressure
                0x9d023d5c                HTTPPrint_MyVariableHumidity
                0x9d023da4                HTTPPrint_MyVariableCO2
                0x9d023dec                HTTPPrint_MyVariableLiPoVoltage
                0x9d023e34                HTTPPrint_MyVariableLiPoPercentage
                0x9d023e7c                HTTPPrint_MyVariableBootloaderTrigger
 .text          0x9d023ec4      0x204 c:/program files (x86)/microchip/xc32/v2.30/bin/bin/../../lib/gcc/pic32mx/4.8.3/../../../../pic32mx/lib\libm.a(fpexp32.o)
                0x9d023ec4                fpexexp
                0x9d023fdc                fpexp
                0x9d023fdc                __mchp_expf

.text           0x9d0240c8      0x3ec
 .text          0x9d0240c8      0x200 output\main.o
                0x9d0240c8                main
                0x9d02420c                isr_main_1ms
                0x9d02429c                isr_main_100us
                0x9d0242b8                isr_main_custom
                0x9d0242c0                isr_main_10us
 .text          0x9d0242c8      0x1ec output\eeprom.o
                0x9d0242c8                write_eeprom_char
                0x9d02432c                read_eeprom_char
                0x9d024360                write_eeprom_float
                0x9d0243b4                read_eeprom_float
                0x9d02440c                write_eeprom_int
                0x9d024460                read_eeprom_int

.text           0x9d0244b4      0x1dc
 .text          0x9d0244b4      0x1dc output\ringBuffer.o
                0x9d0244b4                ringBuffer_initBuffer
                0x9d024514                ringBuffer_getFillness
                0x9d024544                ringBuffer_getEmptyness
                0x9d024580                ringBuffer_addItem
                0x9d0245c4                ringBuffer_getItem
                0x9d024628                ringBuffer_readItem

.text.fp32mul   0x9d024690      0x1bc
 .text.fp32mul  0x9d024690      0x1bc c:/program files (x86)/microchip/xc32/v2.30/bin/bin/../../lib/gcc/pic32mx/4.8.3/../../../../pic32mx/lib\libm.a(fp32mul.o)
                0x9d024690                fpmul
                0x9d024690                __mulsf3

.text           0x9d02484c      0x344
 .text          0x9d02484c      0x1a4 output\ad.o
                0x9d02484c                init_ad
                0x9d0248dc                do_ad
                0x9d0249a0                isr_ad_1ms
                0x9d0249cc                getAd
 .text          0x9d0249f0      0x1a0 c:/program files (x86)/microchip/xc32/v2.30/bin/bin/../../lib/gcc/pic32mx/4.8.3/../../../../pic32mx/lib\libpic32.a(strcpy.o)
                0x9d0249f0                strcpy

.text           0x9d024b90      0x2e8
 .text          0x9d024b90      0x180 output\drv_wifi_spi.o
                0x9d024b90                WF_SpiInit
                0x9d024bdc                WF_SpiEnableChipSelect
                0x9d024bf4                WF_SpiDisableChipSelect
                0x9d024c18                WFSpiTxRx
 .text          0x9d024d10      0x168 output\eep_manager_crc.o
                0x9d024d10                calculate_eep_manager_crc
                0x9d024d54                calculate_eep_manager_xor
                0x9d024d88                calculate_eep_manager_sum
                0x9d024dc0                calculate_eep_manager_crc32
                0x9d024e1c                calculate_eep_manager_crc32_special

.text           0x9d024e78      0x2d0
 .text          0x9d024e78      0x168 c:/program files (x86)/microchip/xc32/v2.30/bin/bin/../../lib/gcc/pic32mx/4.8.3/../../../../pic32mx/lib\libpic32.a(memcpy.o)
                0x9d024e78                memcpy
 .text          0x9d024fe0      0x168 c:/program files (x86)/microchip/xc32/v2.30/bin/bin/../../lib/gcc/pic32mx/4.8.3/../../../../pic32mx/lib\libpic32.a(strlen.o)
                0x9d024fe0                strlen

.text.powf      0x9d025148      0x148
 .text.powf     0x9d025148      0x148 c:/program files (x86)/microchip/xc32/v2.30/bin/bin/../../lib/gcc/pic32mx/4.8.3/../../../../pic32mx/lib\libm.a(w_powf.o)
                0x9d025148                powf

.rodata         0x9d025290      0x140
 .rodata        0x9d025290      0x140 output\hashes.o

.text           0x9d0253d0      0x13c
 .text          0x9d0253d0      0x13c output\Tick.o
                0x9d0253d0                TickInit
                0x9d0253d8                TickGet
                0x9d02541c                TickGetDiv256
                0x9d025460                TickGetDiv64K
                0x9d0254a4                isr_wifi_tick_1ms

.text._outcnvrt
                0x9d02550c      0x13c
 .text._outcnvrt
                0x9d02550c      0x13c c:/program files (x86)/microchip/xc32/v2.30/bin/bin/../../lib/gcc/pic32mx/4.8.3/../../../../pic32mx/lib\liblega-c.a(_doprnt_cdfFnopsuxX.eo)

.text           0x9d025648      0x138
 .text          0x9d025648      0x138 output\http_get.o
                0x9d025648                HTTPExecuteGet

.text.dpcmp     0x9d025780      0x12c
 .text.dpcmp    0x9d025780      0x12c c:/program files (x86)/microchip/xc32/v2.30/bin/bin/../../lib/gcc/pic32mx/4.8.3/../../../../pic32mx/lib\libm.a(dpcmp.o)
                0x9d025780                __gtdf2
                0x9d025780                __ltdf2
                0x9d025780                dpcmp
                0x9d025780                __ledf2
                0x9d025780                __nedf2
                0x9d025780                __gedf2
                0x9d025780                __eqdf2

.text           0x9d0258ac      0x23c
 .text          0x9d0258ac      0x120 c:/program files (x86)/microchip/xc32/v2.30/bin/bin/../../lib/gcc/pic32mx/4.8.3/../../../../pic32mx/lib\libpic32.a(strcmp.o)
                0x9d0258ac                strcmp
 .text          0x9d0259cc      0x11c output\exceptions.o
                0x9d0259cc                _general_exception_handler
                0x9d025ad0                do_exception_examples
                0x9d025ad8                exceptions_clearException
                0x9d025ae0                exceptions_getException

.text._NVMOperation
                0x9d025ae8      0x114
 .text._NVMOperation
                0x9d025ae8      0x114 c:/program files (x86)/microchip/xc32/v2.30/bin/bin/../../lib/gcc/pic32mx/4.8.3/../../../../pic32mx/lib\libmchp_peripheral_32MX440F256H.a(nvm_operation_lib.o)
                0x9d025ae8                _NVMOperation

.text.PowerSaveIdle
                0x9d025bfc      0x110
 .text.PowerSaveIdle
                0x9d025bfc      0x110 c:/program files (x86)/microchip/xc32/v2.30/bin/bin/../../lib/gcc/pic32mx/4.8.3/../../../../pic32mx/lib\libmchp_peripheral_32MX440F256H.a(power_idle_lib.o)
                0x9d025bfc                PowerSaveIdle

.text.PowerSaveSleep
                0x9d025d0c      0x110
 .text.PowerSaveSleep
                0x9d025d0c      0x110 c:/program files (x86)/microchip/xc32/v2.30/bin/bin/../../lib/gcc/pic32mx/4.8.3/../../../../pic32mx/lib\libmchp_peripheral_32MX440F256H.a(power_sleep_lib.o)
                0x9d025d0c                PowerSaveSleep

.text           0x9d025e1c      0x108
 .text          0x9d025e1c      0x108 output\drv_wifi_eint.o
                0x9d025e1c                WF_EintIsDisabled
                0x9d025e30                WF_EintIsPending
                0x9d025e58                wifi_eint_handler
                0x9d025e94                WF_EintEnable
                0x9d025ebc                WF_EintDisable
                0x9d025ed0                WF_EintInit

.rodata         0x9d025f24      0x204
 .rodata        0x9d025f24      0x104 c:/program files (x86)/microchip/xc32/v2.30/bin/bin/../../lib/gcc/pic32mx/4.8.3/../../../../pic32mx/lib\liblega-c.a(ctype.o)
                0x9d025f24                _ctype
 .rodata        0x9d026028      0x100 output\eep_manager_crc.o
                0x9d026028                crcTableEepManager

.text.strncpy   0x9d026128      0x100
 .text.strncpy  0x9d026128      0x100 c:/program files (x86)/microchip/xc32/v2.30/bin/bin/../../lib/gcc/pic32mx/4.8.3/../../../../pic32mx/lib\liblega-c.a(strncpy.o)
                0x9d026128                strncpy

.text.dptofp    0x9d026228      0x100
 .text.dptofp   0x9d026228      0x100 c:/program files (x86)/microchip/xc32/v2.30/bin/bin/../../lib/gcc/pic32mx/4.8.3/../../../../pic32mx/lib\libm.a(dptofp.o)
                0x9d026228                __truncdfsf2
                0x9d026228                dptofp

.text._flsbuf_simple
                0x9d026328       0xfc
 .text._flsbuf_simple
                0x9d026328       0xfc c:/program files (x86)/microchip/xc32/v2.30/bin/bin/../../lib/gcc/pic32mx/4.8.3/../../../../pic32mx/lib\liblega-c.a(_iobfuncs.o)
                0x9d026328                _flsbuf_simple

.text           0x9d026424      0x1dc
 .text          0x9d026424       0xf4 output\icmp.o
                0x9d026424                ICMPProcess
 .text          0x9d026518       0xe8 output\drv_wifi_init.o
                0x9d026518                WF_Init

.text           0x9d026600       0xe4
 .text          0x9d026600       0xe4 output\reboot.o
                0x9d026600                RebootTask

.text._mon_getc
                0x9d0266e4       0xe4
 .text._mon_getc
                0x9d0266e4       0xe4 c:/program files (x86)/microchip/xc32/v2.30/bin/bin/../../lib/gcc/pic32mx/4.8.3/../../../../pic32mx/lib\libpic32.a(_mon_getc.o)
                0x9d0266e4                _mon_getc

.text.general_exception
                0x9d0267c8       0xdc
 .text.general_exception
                0x9d0267c8       0xdc c:/program files (x86)/microchip/xc32/v2.30/bin/bin/../../lib/gcc/pic32mx/4.8.3/../../../../pic32mx/lib\libpic32.a(general-exception.o)
                0x9d0267c8                _general_exception_context

.text           0x9d0268a4       0xd8
 .text          0x9d0268a4       0xd8 output\drv_wifi_config.o
                0x9d0268a4                WF_ProcessEvent

.text.libm      0x9d02697c       0xd4
 .text.libm     0x9d02697c       0xd4 c:/program files (x86)/microchip/xc32/v2.30/bin/bin/../../lib/gcc/pic32mx/4.8.3/../../../../pic32mx/lib\libm.a(fpmodf.o)
                0x9d02697c                fpmodf
                0x9d02697c                modff

.text._mon_putc
                0x9d026a50       0xd4
 .text._mon_putc
                0x9d026a50       0xd4 c:/program files (x86)/microchip/xc32/v2.30/bin/bin/../../lib/gcc/pic32mx/4.8.3/../../../../pic32mx/lib\libpic32.a(_mon_putc.o)
                0x9d026a50                _mon_putc

.rodata         0x9d026b24      0x184
 .rodata        0x9d026b24       0xcc output\app.o
 .rodata        0x9d026bf0       0xb8 output\app_thingspeak.o

.text           0x9d026ca8       0xb0
 .text          0x9d026ca8       0xb0 output\bme280_conversion.o
                0x9d026ca8                convertPressureToAltitude
                0x9d026cfc                calculateSeeLevelPressure

.text.fputc     0x9d026d58       0xac
 .text.fputc    0x9d026d58       0xac c:/program files (x86)/microchip/xc32/v2.30/bin/bin/../../lib/gcc/pic32mx/4.8.3/../../../../pic32mx/lib\liblega-c.a(fputc.o)
                0x9d026d58                fputc

.text.fptodp    0x9d026e04       0xac
 .text.fptodp   0x9d026e04       0xac c:/program files (x86)/microchip/xc32/v2.30/bin/bin/../../lib/gcc/pic32mx/4.8.3/../../../../pic32mx/lib\libm.a(fptodp.o)
                0x9d026e04                fptodp
                0x9d026e04                __extendsfdf2

.text           0x9d026eb0       0xa8
 .text          0x9d026eb0       0xa8 c:/program files (x86)/microchip/xc32/v2.30/bin/bin/../../lib/gcc/pic32mx/4.8.3/../../../../pic32mx/lib\libpic32.a(memset.o)
                0x9d026eb0                memset

.rodata         0x9d026f58       0xa4
 .rodata        0x9d026f58       0xa4 output\custom_http_app.o

.text.repl      0x9d026ffc       0x9c
 .text.repl     0x9d026ffc       0x9c c:/program files (x86)/microchip/xc32/v2.30/bin/bin/../../lib/gcc/pic32mx/4.8.3/../../../../pic32mx/lib\liblega-c.a(_doprnt_cdfFnopsuxX.eo)

.text.fpcmp     0x9d027098       0x9c
 .text.fpcmp    0x9d027098       0x9c c:/program files (x86)/microchip/xc32/v2.30/bin/bin/../../lib/gcc/pic32mx/4.8.3/../../../../pic32mx/lib\libm.a(fpcmp.o)
                0x9d027098                __nesf2
                0x9d027098                __gtsf2
                0x9d027098                __eqsf2
                0x9d027098                __ltsf2
                0x9d027098                fpcmp
                0x9d027098                __gesf2
                0x9d027098                __lesf2

.text           0x9d027134      0x130
 .text          0x9d027134       0x98 output\stackmeasure.o
                0x9d027134                init_stackmeasure
                0x9d027160                do_stackmeasure
                0x9d0271b4                getStackFillnessMax
                0x9d0271bc                getStackSize
 .text          0x9d0271cc       0x98 c:/program files (x86)/microchip/xc32/v2.30/bin/bin/../../lib/gcc/pic32mx/4.8.3/../../../../pic32mx/lib\libpic32.a(memcmp.o)
                0x9d0271cc                memcmp

.text.isinf     0x9d027264       0x8c
 .text.isinf    0x9d027264       0x8c c:/program files (x86)/microchip/xc32/v2.30/bin/bin/../../lib/gcc/pic32mx/4.8.3/../../../../pic32mx/lib\libpic32.a(isinf.o)
                0x9d027264                isinf

.text.isinff    0x9d0272f0       0x8c
 .text.isinff   0x9d0272f0       0x8c c:/program files (x86)/microchip/xc32/v2.30/bin/bin/../../lib/gcc/pic32mx/4.8.3/../../../../pic32mx/lib\libpic32.a(isinf.o)
                0x9d0272f0                isinff

.text           0x9d02737c      0x108
 .text          0x9d02737c       0x84 output\Delay.o
                0x9d02737c                Delay10us
                0x9d0273b8                DelayMs
 .text          0x9d027400       0x84 c:/program files (x86)/microchip/xc32/v2.30/bin/bin/../../lib/gcc/pic32mx/4.8.3/../../../../pic32mx/lib\libpic32.a(pic32_data_init.o)
                0x9d027400                __pic32_data_init

.text._fflush_simple
                0x9d027484       0x80
 .text._fflush_simple
                0x9d027484       0x80 c:/program files (x86)/microchip/xc32/v2.30/bin/bin/../../lib/gcc/pic32mx/4.8.3/../../../../pic32mx/lib\liblega-c.a(_iobfuncs.o)
                0x9d027484                _fflush_simple

.text._fwrite_simple
                0x9d027504       0x80
 .text._fwrite_simple
                0x9d027504       0x80 c:/program files (x86)/microchip/xc32/v2.30/bin/bin/../../lib/gcc/pic32mx/4.8.3/../../../../pic32mx/lib\liblega-c.a(_iobfuncs.o)
                0x9d027504                _fwrite_simple

.text.fptoli    0x9d027584       0x80
 .text.fptoli   0x9d027584       0x80 c:/program files (x86)/microchip/xc32/v2.30/bin/bin/../../lib/gcc/pic32mx/4.8.3/../../../../pic32mx/lib\libm.a(fptoli.o)
                0x9d027584                fptoli
                0x9d027584                fptosi
                0x9d027584                __fixsfsi

.text.SoftReset
                0x9d027604       0x7c
 .text.SoftReset
                0x9d027604       0x7c c:/program files (x86)/microchip/xc32/v2.30/bin/bin/../../lib/gcc/pic32mx/4.8.3/../../../../pic32mx/lib\libmchp_peripheral_32MX440F256H.a(soft_reset_lib.o)
                0x9d027604                SoftReset

.text.fptoul    0x9d027680       0x7c
 .text.fptoul   0x9d027680       0x7c c:/program files (x86)/microchip/xc32/v2.30/bin/bin/../../lib/gcc/pic32mx/4.8.3/../../../../pic32mx/lib\libm.a(fptoul.o)
                0x9d027680                __fixunssfsi
                0x9d027680                fptoul
                0x9d027680                fptoui

.text           0x9d027700       0x70
 .text          0x9d027700       0x70 output\stackmeasure_helper.o
                0x9d027700                fill_stack
                0x9d02772c                stack_usage

.text._sprintf_cdfFnopsuxX
                0x9d027770       0x6c
 .text._sprintf_cdfFnopsuxX
                0x9d027770       0x6c c:/program files (x86)/microchip/xc32/v2.30/bin/bin/../../lib/gcc/pic32mx/4.8.3/../../../../pic32mx/lib\liblega-c.a(sprintf_cdfFnopsuxX.eo)
                0x9d027770                _sprintf_fFs
                0x9d027770                _sprintf_cdfFnopuxX
                0x9d027770                _sprintf_fF
                0x9d027770                _sprintf_cdfFnopsuxX

.text           0x9d0277dc       0x68
 .text          0x9d0277dc       0x68 output\bootloader_interface.o
                0x9d0277dc                bootloader_interface_clearRequest
                0x9d0277f4                bootloader_interface_setRequest
                0x9d027818                bootloader_get_bootloader_was_reset_called
                0x9d02782c                bootloader_reset

.text.__sputn   0x9d027844       0x68
 .text.__sputn  0x9d027844       0x68 c:/program files (x86)/microchip/xc32/v2.30/bin/bin/../../lib/gcc/pic32mx/4.8.3/../../../../pic32mx/lib\liblega-c.a(_doprnt_cdfFnopsuxX.eo)

.rodata         0x9d0278ac       0x68
 .rodata        0x9d0278ac       0x68 c:/program files (x86)/microchip/xc32/v2.30/bin/bin/../../lib/gcc/pic32mx/4.8.3/../../../../pic32mx/lib\liblega-c.a(_doprnt_cdfFnopsuxX.eo)

.text.__unorddf2
                0x9d027914       0x64
 .text.__unorddf2
                0x9d027914       0x64 c:/program files (x86)/microchip/xc32/v2.30/bin/bin/../../lib/gcc/pic32mx/4.8.3/../../../../pic32mx/lib\libe.a(_unorddf2.o)
                0x9d027914                __unorddf2

.text.sitofp    0x9d027978       0x60
 .text.sitofp   0x9d027978       0x60 c:/program files (x86)/microchip/xc32/v2.30/bin/bin/../../lib/gcc/pic32mx/4.8.3/../../../../pic32mx/lib\libm.a(sitofp.o)
                0x9d027978                __floatsisf
                0x9d027978                litofp
                0x9d027978                sitofp

.text.main_entry
                0x9d0279d8       0x54
 .text.main_entry
                0x9d0279d8       0x54 C:\Users\kyrk\AppData\Local\Temp\cc2qO3z7.o
                0x9d027a0c                __crt0_exit

.text           0x9d027a2c       0x4c
 .text          0x9d027a2c       0x4c c:/program files (x86)/microchip/xc32/v2.30/bin/bin/../../lib/gcc/pic32mx/4.8.3\libgcc.a(floatunsisf.o)
                0x9d027a2c                __floatunsisf

.text._mon_write
                0x9d027a78       0x4c
 .text._mon_write
                0x9d027a78       0x4c c:/program files (x86)/microchip/xc32/v2.30/bin/bin/../../lib/gcc/pic32mx/4.8.3/../../../../pic32mx/lib\libpic32.a(_mon_write.o)
                0x9d027a78                _mon_write

.text._bootstrap_exception_handler
                0x9d027ac4       0x48
 .text._bootstrap_exception_handler
                0x9d027ac4       0x48 c:/program files (x86)/microchip/xc32/v2.30/bin/bin/../../lib/gcc/pic32mx/4.8.3/../../../../pic32mx/lib\libpic32.a(default-bootstrap-exception-handler.o)
                0x9d027ac4                _bootstrap_exception_handler

.vector_default
                0x9d027b0c       0x48
 .vector_default
                0x9d027b0c       0x48 c:/program files (x86)/microchip/xc32/v2.30/bin/bin/../../lib/gcc/pic32mx/4.8.3/../../../../pic32mx/lib\libpic32.a(defaultinterrupt.o)
                0x9d027b0c                _DefaultInterrupt

.text           0x9d027b54       0x44
 .text          0x9d027b54       0x44 c:/program files (x86)/microchip/xc32/v2.30/bin/bin/../../lib/gcc/pic32mx/4.8.3/../../../../pic32mx/lib\pic32_software_reset.o
                0x9d027b54                __pic32_software_reset

.text.NVMWriteWord
                0x9d027b98       0x34
 .text.NVMWriteWord
                0x9d027b98       0x34 c:/program files (x86)/microchip/xc32/v2.30/bin/bin/../../lib/gcc/pic32mx/4.8.3/../../../../pic32mx/lib\libmchp_peripheral_32MX440F256H.a(nvm_write_word_lib.o)
                0x9d027b98                NVMWriteWord

.text._filbuf_simple
                0x9d027bcc       0x34
 .text._filbuf_simple
                0x9d027bcc       0x34 c:/program files (x86)/microchip/xc32/v2.30/bin/bin/../../lib/gcc/pic32mx/4.8.3/../../../../pic32mx/lib\liblega-c.a(_iobfuncs.o)
                0x9d027bcc                _filbuf_simple

.text.isnan     0x9d027c00       0x34
 .text.isnan    0x9d027c00       0x34 c:/program files (x86)/microchip/xc32/v2.30/bin/bin/../../lib/gcc/pic32mx/4.8.3/../../../../pic32mx/lib\libpic32.a(isinf.o)
                0x9d027c00                isnan

.text.isnanf    0x9d027c34       0x34
 .text.isnanf   0x9d027c34       0x34 c:/program files (x86)/microchip/xc32/v2.30/bin/bin/../../lib/gcc/pic32mx/4.8.3/../../../../pic32mx/lib\libpic32.a(isinf.o)
                0x9d027c34                isnanf

.text._fsync_simple
                0x9d027c68       0x30
 .text._fsync_simple
                0x9d027c68       0x30 c:/program files (x86)/microchip/xc32/v2.30/bin/bin/../../lib/gcc/pic32mx/4.8.3/../../../../pic32mx/lib\liblega-c.a(_iobfuncs.o)
                0x9d027c68                _fsync_simple

.text.NVMErasePage
                0x9d027c98       0x2c
 .text.NVMErasePage
                0x9d027c98       0x2c c:/program files (x86)/microchip/xc32/v2.30/bin/bin/../../lib/gcc/pic32mx/4.8.3/../../../../pic32mx/lib\libmchp_peripheral_32MX440F256H.a(nvm_erase_page_lib.o)
                0x9d027c98                NVMErasePage

.text.isnanl    0x9d027cc4       0x28
 .text.isnanl   0x9d027cc4       0x28 c:/program files (x86)/microchip/xc32/v2.30/bin/bin/../../lib/gcc/pic32mx/4.8.3/../../../../pic32mx/lib\libpic32.a(isinf.o)
                0x9d027cc4                isnanl

.text.isinfl    0x9d027cec       0x28
 .text.isinfl   0x9d027cec       0x28 c:/program files (x86)/microchip/xc32/v2.30/bin/bin/../../lib/gcc/pic32mx/4.8.3/../../../../pic32mx/lib\libpic32.a(isinf.o)
                0x9d027cec                isinfl

.text.putchar   0x9d027d14       0x24
 .text.putchar  0x9d027d14       0x24 c:/program files (x86)/microchip/xc32/v2.30/bin/bin/../../lib/gcc/pic32mx/4.8.3/../../../../pic32mx/lib\liblega-c.a(fputc.o)
                0x9d027d14                putchar

.rodata         0x9d027d38       0x40
 .rodata        0x9d027d38       0x20 output\wifi.o
 .rodata        0x9d027d58       0x20 output\http_get.o

.text.atol      0x9d027d78       0x20
 .text.atol     0x9d027d78       0x20 c:/program files (x86)/microchip/xc32/v2.30/bin/bin/../../lib/gcc/pic32mx/4.8.3/../../../../pic32mx/lib\liblega-c.a(atol.o)
                0x9d027d78                atol

.rodata         0x9d027d98       0x38
 .rodata        0x9d027d98       0x1c output\bme280.o
 .rodata        0x9d027db4       0x1c output\announce.o

.text.INTRestoreInterrupts
                0x9d027dd0       0x1c
 .text.INTRestoreInterrupts
                0x9d027dd0       0x1c c:/program files (x86)/microchip/xc32/v2.30/bin/bin/../../lib/gcc/pic32mx/4.8.3/../../../../pic32mx/lib\libmchp_peripheral_32MX440F256H.a(int_restore_interrupts_lib.o)
                0x9d027dd0                INTRestoreInterrupts

.text._vfprintf_cdfFnopsuxX
                0x9d027dec       0x1c
 .text._vfprintf_cdfFnopsuxX
                0x9d027dec       0x1c c:/program files (x86)/microchip/xc32/v2.30/bin/bin/../../lib/gcc/pic32mx/4.8.3/../../../../pic32mx/lib\liblega-c.a(_doprnt_cdfFnopsuxX.eo)
                0x9d027dec                _vfprintf_cdfFnopsuxX

.text.putc      0x9d027e08       0x1c
 .text.putc     0x9d027e08       0x1c c:/program files (x86)/microchip/xc32/v2.30/bin/bin/../../lib/gcc/pic32mx/4.8.3/../../../../pic32mx/lib\liblega-c.a(fputc.o)
                0x9d027e08                putc

.text.CheKseg0CacheOff
                0x9d027e24       0x18
 .text.CheKseg0CacheOff
                0x9d027e24       0x18 c:/program files (x86)/microchip/xc32/v2.30/bin/bin/../../lib/gcc/pic32mx/4.8.3/../../../../pic32mx/lib\libmchp_peripheral_32MX440F256H.a(pcache.o)
                0x9d027e24                CheKseg0CacheOff

.text.CheKseg0CacheOn
                0x9d027e3c       0x18
 .text.CheKseg0CacheOn
                0x9d027e3c       0x18 c:/program files (x86)/microchip/xc32/v2.30/bin/bin/../../lib/gcc/pic32mx/4.8.3/../../../../pic32mx/lib\libmchp_peripheral_32MX440F256H.a(pcache.o)
                0x9d027e3c                CheKseg0CacheOn

.text           0x9d027e54       0x18
 .text          0x9d027e54       0x18 c:/program files (x86)/microchip/xc32/v2.30/bin/bin/../../lib/gcc/pic32mx/4.8.3/../../../../pic32mx/lib\libpic32.a(default-nmi-handler.o)
                0x9d027e54                _nmi_handler

.rodata         0x9d027e6c       0x14
 .rodata        0x9d027e6c       0x14 output\tcp.o
                0x9d027e6c                TCPSocketInitializer

.text._io_exit  0x9d027e80       0x14
 .text._io_exit
                0x9d027e80       0x14 c:/program files (x86)/microchip/xc32/v2.30/bin/bin/../../lib/gcc/pic32mx/4.8.3/../../../../pic32mx/lib\liblega-c.a(_doprnt_cdfFnopsuxX.eo)
                0x9d027e80                _io_exit

.rodata         0x9d027e94       0x14
 .rodata        0x9d027e94       0x14 c:/program files (x86)/microchip/xc32/v2.30/bin/bin/../../lib/gcc/pic32mx/4.8.3/../../../../pic32mx/lib\liblega-c.a(_iobdata.o)
                0x9d027e94                _io_funcs

.text._io_exit  0x9d027ea8       0x14
 .text._io_exit
                0x9d027ea8       0x14 c:/program files (x86)/microchip/xc32/v2.30/bin/bin/../../lib/gcc/pic32mx/4.8.3/../../../../pic32mx/lib\liblega-c.a(_iobfuncs.o)

.rodata         0x9d027ebc       0x14
 .rodata        0x9d027ebc       0x14 c:/program files (x86)/microchip/xc32/v2.30/bin/bin/../../lib/gcc/pic32mx/4.8.3/../../../../pic32mx/lib\liblega-c.a(_iobstring.o)
                0x9d027ebc                _io_strfuncs

.rodata         0x9d03fff0       0x10
 .rodata        0x9d03fff0       0x10 output\exceptions.o

.rodata         0x9d027ed0       0x20
 .rodata        0x9d027ed0       0x10 output\bme280_conversion.o
 .rodata        0x9d027ee0       0x10 output\sntp.o

.rodata         0x9d027ef0       0x1c
 .rodata        0x9d027ef0       0x10 output\sht31d.o
 .rodata        0x9d027f00        0xc output\http_print.o

.rodata         0x9d027f0c       0x10
 .rodata        0x9d027f0c        0x8 output\mpfs2.o
 .rodata        0x9d027f14        0x8 output\drv_wifi_pbkdf2.o

.rodata         0x9d027f1c        0x8
 .rodata        0x9d027f1c        0x8 output\drv_wifi_init.o

.text           0x9d027f24        0x8
 .text          0x9d027f24        0x8 output\drv_wifi_debug_strings.o
                0x9d027f24                WF_AssertionFailed

.text.INTDisableInterrupts
                0x9d027f2c        0x8
 .text.INTDisableInterrupts
                0x9d027f2c        0x8 c:/program files (x86)/microchip/xc32/v2.30/bin/bin/../../lib/gcc/pic32mx/4.8.3/../../../../pic32mx/lib\libmchp_peripheral_32MX440F256H.a(int_disable_interrupts_lib.o)
                0x9d027f2c                INTDisableInterrupts

.text._on_reset
                0x9d027f34        0x8
 .text._on_reset
                0x9d027f34        0x8 c:/program files (x86)/microchip/xc32/v2.30/bin/bin/../../lib/gcc/pic32mx/4.8.3/../../../../pic32mx/lib\libpic32.a(default-on-reset.o)
                0x9d027f34                _on_reset

.text._on_bootstrap
                0x9d027f3c        0x8
 .text._on_bootstrap
                0x9d027f3c        0x8 c:/program files (x86)/microchip/xc32/v2.30/bin/bin/../../lib/gcc/pic32mx/4.8.3/../../../../pic32mx/lib\libpic32.a(default-on-bootstrap.o)
                0x9d027f3c                _on_bootstrap

.text._filbuf_string
                0x9d027f44        0x8
 .text._filbuf_string
                0x9d027f44        0x8 c:/program files (x86)/microchip/xc32/v2.30/bin/bin/../../lib/gcc/pic32mx/4.8.3/../../../../pic32mx/lib\liblega-c.a(_iobstring.o)

.text._flsbuf_string
                0x9d027f4c        0x8
 .text._flsbuf_string
                0x9d027f4c        0x8 c:/program files (x86)/microchip/xc32/v2.30/bin/bin/../../lib/gcc/pic32mx/4.8.3/../../../../pic32mx/lib\liblega-c.a(_iobstring.o)

.text._fflush_string
                0x9d027f54        0x8
 .text._fflush_string
                0x9d027f54        0x8 c:/program files (x86)/microchip/xc32/v2.30/bin/bin/../../lib/gcc/pic32mx/4.8.3/../../../../pic32mx/lib\liblega-c.a(_iobstring.o)

.text._fwrite_string
                0x9d027f5c        0x8
 .text._fwrite_string
                0x9d027f5c        0x8 c:/program files (x86)/microchip/xc32/v2.30/bin/bin/../../lib/gcc/pic32mx/4.8.3/../../../../pic32mx/lib\liblega-c.a(_iobstring.o)

.text._fsync_string
                0x9d027f64        0x8
 .text._fsync_string
                0x9d027f64        0x8 c:/program files (x86)/microchip/xc32/v2.30/bin/bin/../../lib/gcc/pic32mx/4.8.3/../../../../pic32mx/lib\liblega-c.a(_iobstring.o)

.rodata         0x9d027f70        0x8
 .rodata        0x9d027f70        0x8 c:/program files (x86)/microchip/xc32/v2.30/bin/bin/../../lib/gcc/pic32mx/4.8.3/../../../../pic32mx/lib\libpic32.a(isinf.o)

.rodata         0x9d0276fc        0x4
 .rodata        0x9d0276fc        0x4 output\c_eep_manager.o
                0x9d0276fc                default2Variable
                0x9d0276fe                defaultVariable

.rodata         0x9d027f6c        0x4
 .rodata        0x9d027f6c        0x4 output\ccs811.o

.rodata         0x9d027f78        0x8
 .rodata        0x9d027f78        0x4 output\drv_wifi_raw.o
 .rodata        0x9d027f7c        0x4 c:/program files (x86)/microchip/xc32/v2.30/bin/bin/../../lib/gcc/pic32mx/4.8.3/../../../../pic32mx/lib\libm.a(w_powf.o)

.text%z321      0x00000000        0x0
 .text          0x00000000        0x0 c:/program files (x86)/microchip/xc32/v2.30/bin/bin/../../lib/gcc/pic32mx/4.8.3/../../../../pic32mx/lib\libe.a(_unorddf2.o)

.text%z322      0x00000000        0x0
 .text          0x00000000        0x0 c:/program files (x86)/microchip/xc32/v2.30/bin/bin/../../lib/gcc/pic32mx/4.8.3/../../../../pic32mx/lib\libm.a(dpcmp.o)

.text%z323      0x00000000        0x0
 .text          0x00000000        0x0 c:/program files (x86)/microchip/xc32/v2.30/bin/bin/../../lib/gcc/pic32mx/4.8.3/../../../../pic32mx/lib\libpic32.a(_mon_putc.o)

.text%z324      0x00000000        0x0
 .text          0x00000000        0x0 c:/program files (x86)/microchip/xc32/v2.30/bin/bin/../../lib/gcc/pic32mx/4.8.3/../../../../pic32mx/lib\libpic32.a(isinf.o)

.text%z325      0x00000000        0x0
 .text          0x00000000        0x0 c:/program files (x86)/microchip/xc32/v2.30/bin/bin/../../lib/gcc/pic32mx/4.8.3/../../../../pic32mx/lib\libpic32.a(xc32_uart.o)

.text%z326      0x00000000        0x0
 .text          0x00000000        0x0 c:/program files (x86)/microchip/xc32/v2.30/bin/bin/../../lib/gcc/pic32mx/4.8.3/../../../../pic32mx/lib\libpic32.a(_mon_write.o)

.text%z327      0x00000000        0x0
 .text          0x00000000        0x0 c:/program files (x86)/microchip/xc32/v2.30/bin/bin/../../lib/gcc/pic32mx/4.8.3/../../../../pic32mx/lib\libpic32.a(_mon_getc.o)

.text.libm%z328
                0x00000000        0x0
 .text.libm     0x00000000        0x0 c:/program files (x86)/microchip/xc32/v2.30/bin/bin/../../lib/gcc/pic32mx/4.8.3/../../../../pic32mx/lib\libm.a(fpexp32.o)

.text%z329      0x00000000        0x0
 .text          0x00000000        0x0 c:/program files (x86)/microchip/xc32/v2.30/bin/bin/../../lib/gcc/pic32mx/4.8.3/../../../../pic32mx/lib\libm.a(fpexlog.o)

.text%z330      0x00000000        0x0
 .text          0x00000000        0x0 c:/program files (x86)/microchip/xc32/v2.30/bin/bin/../../lib/gcc/pic32mx/4.8.3/../../../../pic32mx/lib\libm.a(s_lib_ver.o)

.text%z331      0x00000000        0x0
 .text          0x00000000        0x0 c:/program files (x86)/microchip/xc32/v2.30/bin/bin/../../lib/gcc/pic32mx/4.8.3/../../../../pic32mx/lib\libm.a(fptodp.o)

.text%z332      0x00000000        0x0
 .text          0x00000000        0x0 c:/program files (x86)/microchip/xc32/v2.30/bin/bin/../../lib/gcc/pic32mx/4.8.3/../../../../pic32mx/lib\libm.a(fppow32.o)

.text%z333      0x00000000        0x0
 .text          0x00000000        0x0 c:/program files (x86)/microchip/xc32/v2.30/bin/bin/../../lib/gcc/pic32mx/4.8.3/../../../../pic32mx/lib\libm.a(w_powf.o)

.text%z334      0x00000000        0x0
 .text          0x00000000        0x0 c:/program files (x86)/microchip/xc32/v2.30/bin/bin/../../lib/gcc/pic32mx/4.8.3/../../../../pic32mx/lib\libm.a(sitofp.o)

.text%z335      0x00000000        0x0
 .text          0x00000000        0x0 c:/program files (x86)/microchip/xc32/v2.30/bin/bin/../../lib/gcc/pic32mx/4.8.3/../../../../pic32mx/lib\libm.a(fptoul.o)

.text%z336      0x00000000        0x0
 .text          0x00000000        0x0 c:/program files (x86)/microchip/xc32/v2.30/bin/bin/../../lib/gcc/pic32mx/4.8.3/../../../../pic32mx/lib\libm.a(fptoli.o)

.text%z337      0x00000000        0x0
 .text          0x00000000        0x0 c:/program files (x86)/microchip/xc32/v2.30/bin/bin/../../lib/gcc/pic32mx/4.8.3/../../../../pic32mx/lib\libm.a(fpmodf.o)

.text%z338      0x00000000        0x0
 .text          0x00000000        0x0 c:/program files (x86)/microchip/xc32/v2.30/bin/bin/../../lib/gcc/pic32mx/4.8.3/../../../../pic32mx/lib\libm.a(fpcmp.o)

.text%z339      0x00000000        0x0
 .text          0x00000000        0x0 c:/program files (x86)/microchip/xc32/v2.30/bin/bin/../../lib/gcc/pic32mx/4.8.3/../../../../pic32mx/lib\libm.a(fp32subadd.o)

.text%z340      0x00000000        0x0
 .text          0x00000000        0x0 c:/program files (x86)/microchip/xc32/v2.30/bin/bin/../../lib/gcc/pic32mx/4.8.3/../../../../pic32mx/lib\libm.a(fp32mul.o)

.text%z341      0x00000000        0x0
 .text          0x00000000        0x0 c:/program files (x86)/microchip/xc32/v2.30/bin/bin/../../lib/gcc/pic32mx/4.8.3/../../../../pic32mx/lib\libm.a(fp32div.o)

.text%z342      0x00000000        0x0
 .text          0x00000000        0x0 c:/program files (x86)/microchip/xc32/v2.30/bin/bin/../../lib/gcc/pic32mx/4.8.3/../../../../pic32mx/lib\libm.a(dptofp.o)

.text%z343      0x00000000        0x0
 .text          0x00000000        0x0 c:/program files (x86)/microchip/xc32/v2.30/bin/bin/../../lib/gcc/pic32mx/4.8.3/../../../../pic32mx/lib\liblega-c.a(fputc.o)

.text%z344      0x00000000        0x0
 .text          0x00000000        0x0 c:/program files (x86)/microchip/xc32/v2.30/bin/bin/../../lib/gcc/pic32mx/4.8.3/../../../../pic32mx/lib\liblega-c.a(_iobstring.o)

.text%z345      0x00000000        0x0
 .text          0x00000000        0x0 c:/program files (x86)/microchip/xc32/v2.30/bin/bin/../../lib/gcc/pic32mx/4.8.3/../../../../pic32mx/lib\liblega-c.a(_iobfuncs.o)

.text%z346      0x00000000        0x0
 .text          0x00000000        0x0 c:/program files (x86)/microchip/xc32/v2.30/bin/bin/../../lib/gcc/pic32mx/4.8.3/../../../../pic32mx/lib\liblega-c.a(_iobdata.o)

.text%z347      0x00000000        0x0
 .text          0x00000000        0x0 c:/program files (x86)/microchip/xc32/v2.30/bin/bin/../../lib/gcc/pic32mx/4.8.3/../../../../pic32mx/lib\liblega-c.a(_doprnt_cdfFnopsuxX.eo)

.text%z348      0x00000000        0x0
 .text          0x00000000        0x0 c:/program files (x86)/microchip/xc32/v2.30/bin/bin/../../lib/gcc/pic32mx/4.8.3/../../../../pic32mx/lib\liblega-c.a(errno.o)

.text%z349      0x00000000        0x0
 .text          0x00000000        0x0 c:/program files (x86)/microchip/xc32/v2.30/bin/bin/../../lib/gcc/pic32mx/4.8.3/../../../../pic32mx/lib\liblega-c.a(ctype.o)

.text%z350      0x00000000        0x0
 .text          0x00000000        0x0 c:/program files (x86)/microchip/xc32/v2.30/bin/bin/../../lib/gcc/pic32mx/4.8.3/../../../../pic32mx/lib\liblega-c.a(sprintf_cdfFnopsuxX.eo)

.text%z351      0x00000000        0x0
 .text          0x00000000        0x0 c:/program files (x86)/microchip/xc32/v2.30/bin/bin/../../lib/gcc/pic32mx/4.8.3/../../../../pic32mx/lib\liblega-c.a(strtol.o)

.text%z352      0x00000000        0x0
 .text          0x00000000        0x0 c:/program files (x86)/microchip/xc32/v2.30/bin/bin/../../lib/gcc/pic32mx/4.8.3/../../../../pic32mx/lib\liblega-c.a(atol.o)

.text%z353      0x00000000        0x0
 .text          0x00000000        0x0 c:/program files (x86)/microchip/xc32/v2.30/bin/bin/../../lib/gcc/pic32mx/4.8.3/../../../../pic32mx/lib\liblega-c.a(strncpy.o)

.text%z354      0x00000000        0x0
 .text          0x00000000        0x0 c:/program files (x86)/microchip/xc32/v2.30/bin/bin/../../lib/gcc/pic32mx/4.8.3/../../../../pic32mx/lib\libpic32.a(defaultinterrupt.o)

.text%z355      0x00000000        0x0
 .text          0x00000000        0x0 c:/program files (x86)/microchip/xc32/v2.30/bin/bin/../../lib/gcc/pic32mx/4.8.3/../../../../pic32mx/lib\libpic32.a(vector44.o)

.text%z356      0x00000000        0x0
 .text          0x00000000        0x0 c:/program files (x86)/microchip/xc32/v2.30/bin/bin/../../lib/gcc/pic32mx/4.8.3/../../../../pic32mx/lib\libpic32.a(vector43.o)

.text%z357      0x00000000        0x0
 .text          0x00000000        0x0 c:/program files (x86)/microchip/xc32/v2.30/bin/bin/../../lib/gcc/pic32mx/4.8.3/../../../../pic32mx/lib\libpic32.a(vector42.o)

.text%z358      0x00000000        0x0
 .text          0x00000000        0x0 c:/program files (x86)/microchip/xc32/v2.30/bin/bin/../../lib/gcc/pic32mx/4.8.3/../../../../pic32mx/lib\libpic32.a(vector41.o)

.text%z359      0x00000000        0x0
 .text          0x00000000        0x0 c:/program files (x86)/microchip/xc32/v2.30/bin/bin/../../lib/gcc/pic32mx/4.8.3/../../../../pic32mx/lib\libpic32.a(vector40.o)

.text%z360      0x00000000        0x0
 .text          0x00000000        0x0 c:/program files (x86)/microchip/xc32/v2.30/bin/bin/../../lib/gcc/pic32mx/4.8.3/../../../../pic32mx/lib\libpic32.a(vector35.o)

.text%z361      0x00000000        0x0
 .text          0x00000000        0x0 c:/program files (x86)/microchip/xc32/v2.30/bin/bin/../../lib/gcc/pic32mx/4.8.3/../../../../pic32mx/lib\libpic32.a(vector34.o)

.text%z362      0x00000000        0x0
 .text          0x00000000        0x0 c:/program files (x86)/microchip/xc32/v2.30/bin/bin/../../lib/gcc/pic32mx/4.8.3/../../../../pic32mx/lib\libpic32.a(vector30.o)

.text%z363      0x00000000        0x0
 .text          0x00000000        0x0 c:/program files (x86)/microchip/xc32/v2.30/bin/bin/../../lib/gcc/pic32mx/4.8.3/../../../../pic32mx/lib\libpic32.a(vector29.o)

.text%z364      0x00000000        0x0
 .text          0x00000000        0x0 c:/program files (x86)/microchip/xc32/v2.30/bin/bin/../../lib/gcc/pic32mx/4.8.3/../../../../pic32mx/lib\libpic32.a(vector28.o)

.text%z365      0x00000000        0x0
 .text          0x00000000        0x0 c:/program files (x86)/microchip/xc32/v2.30/bin/bin/../../lib/gcc/pic32mx/4.8.3/../../../../pic32mx/lib\libpic32.a(vector27.o)

.text%z366      0x00000000        0x0
 .text          0x00000000        0x0 c:/program files (x86)/microchip/xc32/v2.30/bin/bin/../../lib/gcc/pic32mx/4.8.3/../../../../pic32mx/lib\libpic32.a(vector23.o)

.text%z367      0x00000000        0x0
 .text          0x00000000        0x0 c:/program files (x86)/microchip/xc32/v2.30/bin/bin/../../lib/gcc/pic32mx/4.8.3/../../../../pic32mx/lib\libpic32.a(vector22.o)

.text%z368      0x00000000        0x0
 .text          0x00000000        0x0 c:/program files (x86)/microchip/xc32/v2.30/bin/bin/../../lib/gcc/pic32mx/4.8.3/../../../../pic32mx/lib\libpic32.a(vector21.o)

.text%z369      0x00000000        0x0
 .text          0x00000000        0x0 c:/program files (x86)/microchip/xc32/v2.30/bin/bin/../../lib/gcc/pic32mx/4.8.3/../../../../pic32mx/lib\libpic32.a(vector19.o)

.text%z370      0x00000000        0x0
 .text          0x00000000        0x0 c:/program files (x86)/microchip/xc32/v2.30/bin/bin/../../lib/gcc/pic32mx/4.8.3/../../../../pic32mx/lib\libpic32.a(vector18.o)

.text%z371      0x00000000        0x0
 .text          0x00000000        0x0 c:/program files (x86)/microchip/xc32/v2.30/bin/bin/../../lib/gcc/pic32mx/4.8.3/../../../../pic32mx/lib\libpic32.a(vector17.o)

.text%z372      0x00000000        0x0
 .text          0x00000000        0x0 c:/program files (x86)/microchip/xc32/v2.30/bin/bin/../../lib/gcc/pic32mx/4.8.3/../../../../pic32mx/lib\libpic32.a(vector14.o)

.text%z373      0x00000000        0x0
 .text          0x00000000        0x0 c:/program files (x86)/microchip/xc32/v2.30/bin/bin/../../lib/gcc/pic32mx/4.8.3/../../../../pic32mx/lib\libpic32.a(vector13.o)

.text%z374      0x00000000        0x0
 .text          0x00000000        0x0 c:/program files (x86)/microchip/xc32/v2.30/bin/bin/../../lib/gcc/pic32mx/4.8.3/../../../../pic32mx/lib\libpic32.a(vector11.o)

.text%z375      0x00000000        0x0
 .text          0x00000000        0x0 c:/program files (x86)/microchip/xc32/v2.30/bin/bin/../../lib/gcc/pic32mx/4.8.3/../../../../pic32mx/lib\libpic32.a(vector10.o)

.text%z376      0x00000000        0x0
 .text          0x00000000        0x0 c:/program files (x86)/microchip/xc32/v2.30/bin/bin/../../lib/gcc/pic32mx/4.8.3/../../../../pic32mx/lib\libpic32.a(vector9.o)

.text%z377      0x00000000        0x0
 .text          0x00000000        0x0 c:/program files (x86)/microchip/xc32/v2.30/bin/bin/../../lib/gcc/pic32mx/4.8.3/../../../../pic32mx/lib\libpic32.a(vector7.o)

.text%z378      0x00000000        0x0
 .text          0x00000000        0x0 c:/program files (x86)/microchip/xc32/v2.30/bin/bin/../../lib/gcc/pic32mx/4.8.3/../../../../pic32mx/lib\libpic32.a(vector6.o)

.text%z379      0x00000000        0x0
 .text          0x00000000        0x0 c:/program files (x86)/microchip/xc32/v2.30/bin/bin/../../lib/gcc/pic32mx/4.8.3/../../../../pic32mx/lib\libpic32.a(vector5.o)

.text%z380      0x00000000        0x0
 .text          0x00000000        0x0 c:/program files (x86)/microchip/xc32/v2.30/bin/bin/../../lib/gcc/pic32mx/4.8.3/../../../../pic32mx/lib\libpic32.a(vector3.o)

.text%z381      0x00000000        0x0
 .text          0x00000000        0x0 c:/program files (x86)/microchip/xc32/v2.30/bin/bin/../../lib/gcc/pic32mx/4.8.3/../../../../pic32mx/lib\libpic32.a(vector2.o)

.text%z382      0x00000000        0x0
 .text          0x00000000        0x0 c:/program files (x86)/microchip/xc32/v2.30/bin/bin/../../lib/gcc/pic32mx/4.8.3/../../../../pic32mx/lib\libpic32.a(vector1.o)

.text%z383      0x00000000        0x0
 .text          0x00000000        0x0 c:/program files (x86)/microchip/xc32/v2.30/bin/bin/../../lib/gcc/pic32mx/4.8.3/../../../../pic32mx/lib\libpic32.a(general-exception.o)

.text%z384      0x00000000        0x0
 .text          0x00000000        0x0 c:/program files (x86)/microchip/xc32/v2.30/bin/bin/../../lib/gcc/pic32mx/4.8.3/../../../../pic32mx/lib\libpic32.a(default-on-bootstrap.o)

.text%z385      0x00000000        0x0
 .text          0x00000000        0x0 c:/program files (x86)/microchip/xc32/v2.30/bin/bin/../../lib/gcc/pic32mx/4.8.3/../../../../pic32mx/lib\libpic32.a(default-on-reset.o)

.text%z386      0x00000000        0x0
 .text          0x00000000        0x0 c:/program files (x86)/microchip/xc32/v2.30/bin/bin/../../lib/gcc/pic32mx/4.8.3/../../../../pic32mx/lib\libpic32.a(default-bootstrap-exception-handler.o)

.text%z387      0x00000000        0x0
 .text          0x00000000        0x0 c:/program files (x86)/microchip/xc32/v2.30/bin/bin/../../lib/gcc/pic32mx/4.8.3/../../../../pic32mx/lib/./proc/32MX440F256H\default_isr_vectors.o

.text%z388      0x00000000        0x0
 .text          0x00000000        0x0 C:\Users\kyrk\AppData\Local\Temp\ccKOqrbg.o

.text%z389      0x00000000        0x0
 .text          0x00000000        0x0 C:\Users\kyrk\AppData\Local\Temp\ccjKzsZ9.o

.text%z390      0x00000000        0x0
 .text          0x00000000        0x0 C:\Users\kyrk\AppData\Local\Temp\cc2qO3z7.o

.text%z391      0x00000000        0x0
 .text          0x00000000        0x0 c:/program files (x86)/microchip/xc32/v2.30/bin/bin/../../lib/gcc/pic32mx/4.8.3/../../../../pic32mx/lib\libmchp_peripheral_32MX440F256H.a(int_restore_interrupts_lib.o)

.text%z392      0x00000000        0x0
 .text          0x00000000        0x0 c:/program files (x86)/microchip/xc32/v2.30/bin/bin/../../lib/gcc/pic32mx/4.8.3/../../../../pic32mx/lib\libmchp_peripheral_32MX440F256H.a(nvm_write_word_lib.o)

.text%z393      0x00000000        0x0
 .text          0x00000000        0x0 c:/program files (x86)/microchip/xc32/v2.30/bin/bin/../../lib/gcc/pic32mx/4.8.3/../../../../pic32mx/lib\libmchp_peripheral_32MX440F256H.a(nvm_operation_lib.o)

.text%z394      0x00000000        0x0
 .text          0x00000000        0x0 c:/program files (x86)/microchip/xc32/v2.30/bin/bin/../../lib/gcc/pic32mx/4.8.3/../../../../pic32mx/lib\libmchp_peripheral_32MX440F256H.a(nvm_erase_page_lib.o)

.text%z395      0x00000000        0x0
 .text          0x00000000        0x0 c:/program files (x86)/microchip/xc32/v2.30/bin/bin/../../lib/gcc/pic32mx/4.8.3/../../../../pic32mx/lib\libmchp_peripheral_32MX440F256H.a(power_sleep_lib.o)

.text%z396      0x00000000        0x0
 .text          0x00000000        0x0 c:/program files (x86)/microchip/xc32/v2.30/bin/bin/../../lib/gcc/pic32mx/4.8.3/../../../../pic32mx/lib\libmchp_peripheral_32MX440F256H.a(power_idle_lib.o)

.text%z397      0x00000000        0x0
 .text          0x00000000        0x0 c:/program files (x86)/microchip/xc32/v2.30/bin/bin/../../lib/gcc/pic32mx/4.8.3/../../../../pic32mx/lib\libmchp_peripheral_32MX440F256H.a(int_disable_interrupts_lib.o)

.text%z398      0x00000000        0x0
 .text          0x00000000        0x0 c:/program files (x86)/microchip/xc32/v2.30/bin/bin/../../lib/gcc/pic32mx/4.8.3/../../../../pic32mx/lib\libmchp_peripheral_32MX440F256H.a(pcache.o)

.text%z399      0x00000000        0x0
 .text          0x00000000        0x0 c:/program files (x86)/microchip/xc32/v2.30/bin/bin/../../lib/gcc/pic32mx/4.8.3/../../../../pic32mx/lib\libmchp_peripheral_32MX440F256H.a(soft_reset_lib.o)

.text%z400      0x00000000        0x0
 .text          0x00000000        0x0 c:/program files (x86)/microchip/xc32/v2.30/bin/bin/../../lib/gcc/pic32mx/4.8.3/../../../../pic32mx/lib/./proc/32MX440F256H\processor.o

.text%z401      0x00000000        0x0
 .text          0x00000000        0x0 output\mpfs_img2.o

.text%z402      0x00000000        0x0
 .text          0x00000000        0x0 output\arc4.o

.text%z403      0x00000000        0x0
 .text          0x00000000        0x0 output\big_int.o

.text%z404      0x00000000        0x0
 .text          0x00000000        0x0 output\custom_ssl_cert.o

.text%z405      0x00000000        0x0
 .text          0x00000000        0x0 output\random.o

.text%z406      0x00000000        0x0
 .text          0x00000000        0x0 output\rsa.o

.text%z407      0x00000000        0x0
 .text          0x00000000        0x0 output\smtp.o

.text%z408      0x00000000        0x0
 .text          0x00000000        0x0 output\smtp_demo.o

.text%z409      0x00000000        0x0
 .text          0x00000000        0x0 output\ssl.o

.text%z410      0x00000000        0x0
 .text          0x00000000        0x0 output\c_eep_manager.o

.text%z411      0x00000000        0x0
 .text          0x00000000        0x0 c:/program files (x86)/microchip/xc32/v2.30/bin/bin/../../lib/gcc/pic32mx/4.8.3/../../../../pic32mx/lib\debug-exception-return.o
