Archive member included because of file (symbol)

c:/program files (x86)/microchip/xc32/v2.30/bin/bin/../../lib/gcc/pic32mx/4.8.3/../../../../pic32mx/lib\libmchp_peripheral.a(read_core_timer_lib.o)
                              build/default/production/_ext/1360937237/NVMem.o (ReadCoreTimer)
c:/program files (x86)/microchip/xc32/v2.30/bin/bin/../../lib/gcc/pic32mx/4.8.3/../../../../pic32mx/lib\libmchp_peripheral.a(write_core_timer_lib.o)
                              build/default/production/_ext/1360937237/NVMem.o (WriteCoreTimer)
c:/program files (x86)/microchip/xc32/v2.30/bin/bin/../../lib/gcc/pic32mx/4.8.3/../../../../pic32mx/lib\libmchp_peripheral_32MX440F256H.a(pcache.o)
                              build/default/production/_ext/1360937237/BootLoader.o (CheKseg0CacheOn)
c:/program files (x86)/microchip/xc32/v2.30/bin/bin/../../lib/gcc/pic32mx/4.8.3/../../../../pic32mx/lib\libmchp_peripheral_32MX440F256H.a(int_disable_interrupts_lib.o)
                              build/default/production/_ext/1360937237/BootLoader.o (INTDisableInterrupts)
c:/program files (x86)/microchip/xc32/v2.30/bin/bin/../../lib/gcc/pic32mx/4.8.3/../../../../pic32mx/lib\libmchp_peripheral_32MX440F256H.a(int_restore_interrupts_lib.o)
                              build/default/production/_ext/1360937237/BootLoader.o (INTRestoreInterrupts)
c:/program files (x86)/microchip/xc32/v2.30/bin/bin/../../lib/gcc/pic32mx/4.8.3/../../../../pic32mx/lib\libmchp_peripheral_32MX440F256H.a(int_enable_mv_int_lib.o)
                              build/default/production/_ext/1360937237/EthernetTasks.o (INTEnableSystemMultiVectoredInt)
c:/program files (x86)/microchip/xc32/v2.30/bin/bin/../../lib/gcc/pic32mx/4.8.3/../../../../pic32mx/lib\libmchp_peripheral_32MX440F256H.a(puts_uartx_lib_legacy.o)
                              build/default/production/_ext/1360937237/EthernetTasks.o (putsUART1)
c:/program files (x86)/microchip/xc32/v2.30/bin/bin/../../lib/gcc/pic32mx/4.8.3/../../../../pic32mx/lib\libmchp_peripheral_32MX440F256H.a(int_enable_interrupts_lib.o)
                              c:/program files (x86)/microchip/xc32/v2.30/bin/bin/../../lib/gcc/pic32mx/4.8.3/../../../../pic32mx/lib\libmchp_peripheral_32MX440F256H.a(int_enable_mv_int_lib.o) (INTEnableInterrupts)
c:/program files (x86)/microchip/xc32/v2.30/bin/bin/../../lib/gcc/pic32mx/4.8.3\libgcc.a(_udivdi3.o)
                              build/default/production/_ext/1360937237/Tick.o (__udivdi3)
c:/program files (x86)/microchip/xc32/v2.30/bin/bin/../../lib/gcc/pic32mx/4.8.3\libgcc.a(_umoddi3.o)
                              build/default/production/_ext/1360937237/dhcp_client.o (__umoddi3)
c:/program files (x86)/microchip/xc32/v2.30/bin/bin/../../lib/gcc/pic32mx/4.8.3/../../../../pic32mx/lib\libpic32.a(memcmp.o)
                              build/default/production/_ext/1360937237/stack_task.o (memcmp)
c:/program files (x86)/microchip/xc32/v2.30/bin/bin/../../lib/gcc/pic32mx/4.8.3/../../../../pic32mx/lib\libpic32.a(memcpy.o)
                              build/default/production/_ext/659867239/rtc.o (memcpy)
c:/program files (x86)/microchip/xc32/v2.30/bin/bin/../../lib/gcc/pic32mx/4.8.3/../../../../pic32mx/lib\libpic32.a(memset.o)
                              build/default/production/_ext/1360937237/EthernetTasks.o (memset)
c:/program files (x86)/microchip/xc32/v2.30/bin/bin/../../lib/gcc/pic32mx/4.8.3/../../../../pic32mx/lib\libpic32.a(strcpy.o)
                              build/default/production/_ext/1360937237/drv_wifi_debug_strings.o (strcpy)
c:/program files (x86)/microchip/xc32/v2.30/bin/bin/../../lib/gcc/pic32mx/4.8.3/../../../../pic32mx/lib\libpic32.a(strlen.o)
                              build/default/production/_ext/1360937237/UDP.o (strlen)
c:/program files (x86)/microchip/xc32/v2.30/bin/bin/../../lib/gcc/pic32mx/4.8.3/../../../../pic32mx/lib\libpic32.a(default-bootstrap-exception-handler.o)
                              C:\Users\kyrk\AppData\Local\Temp\cciFSByj.o (_bootstrap_exception_handler)
c:/program files (x86)/microchip/xc32/v2.30/bin/bin/../../lib/gcc/pic32mx/4.8.3/../../../../pic32mx/lib\libpic32.a(default-on-reset.o)
                              C:\Users\kyrk\AppData\Local\Temp\cciFSByj.o (_on_reset)
c:/program files (x86)/microchip/xc32/v2.30/bin/bin/../../lib/gcc/pic32mx/4.8.3/../../../../pic32mx/lib\libpic32.a(default-on-bootstrap.o)
                              C:\Users\kyrk\AppData\Local\Temp\cciFSByj.o (_on_bootstrap)
c:/program files (x86)/microchip/xc32/v2.30/bin/bin/../../lib/gcc/pic32mx/4.8.3/../../../../pic32mx/lib\libpic32.a(default-nmi-handler.o)
                              C:\Users\kyrk\AppData\Local\Temp\cciFSByj.o (_nmi_handler)
c:/program files (x86)/microchip/xc32/v2.30/bin/bin/../../lib/gcc/pic32mx/4.8.3/../../../../pic32mx/lib\libpic32.a(pic32_data_init.o)
                              C:\Users\kyrk\AppData\Local\Temp\cciFSByj.o (__pic32_data_init)
c:/program files (x86)/microchip/xc32/v2.30/bin/bin/../../lib/gcc/pic32mx/4.8.3/../../../../pic32mx/lib\libpic32.a(general-exception.o)
                              C:\Users\kyrk\AppData\Local\Temp\cciFSByj.o (_general_exception_context)
c:/program files (x86)/microchip/xc32/v2.30/bin/bin/../../lib/gcc/pic32mx/4.8.3/../../../../pic32mx/lib\libpic32.a(vector0.o)
                              C:\Users\kyrk\AppData\Local\Temp\ccmCSEZY.o (__vector_dispatch_0)
c:/program files (x86)/microchip/xc32/v2.30/bin/bin/../../lib/gcc/pic32mx/4.8.3/../../../../pic32mx/lib\libpic32.a(vector1.o)
                              C:\Users\kyrk\AppData\Local\Temp\ccmCSEZY.o (__vector_dispatch_1)
c:/program files (x86)/microchip/xc32/v2.30/bin/bin/../../lib/gcc/pic32mx/4.8.3/../../../../pic32mx/lib\libpic32.a(vector2.o)
                              C:\Users\kyrk\AppData\Local\Temp\ccmCSEZY.o (__vector_dispatch_2)
c:/program files (x86)/microchip/xc32/v2.30/bin/bin/../../lib/gcc/pic32mx/4.8.3/../../../../pic32mx/lib\libpic32.a(vector3.o)
                              C:\Users\kyrk\AppData\Local\Temp\ccmCSEZY.o (__vector_dispatch_3)
c:/program files (x86)/microchip/xc32/v2.30/bin/bin/../../lib/gcc/pic32mx/4.8.3/../../../../pic32mx/lib\libpic32.a(vector5.o)
                              C:\Users\kyrk\AppData\Local\Temp\ccmCSEZY.o (__vector_dispatch_5)
c:/program files (x86)/microchip/xc32/v2.30/bin/bin/../../lib/gcc/pic32mx/4.8.3/../../../../pic32mx/lib\libpic32.a(vector6.o)
                              C:\Users\kyrk\AppData\Local\Temp\ccmCSEZY.o (__vector_dispatch_6)
c:/program files (x86)/microchip/xc32/v2.30/bin/bin/../../lib/gcc/pic32mx/4.8.3/../../../../pic32mx/lib\libpic32.a(vector7.o)
                              C:\Users\kyrk\AppData\Local\Temp\ccmCSEZY.o (__vector_dispatch_7)
c:/program files (x86)/microchip/xc32/v2.30/bin/bin/../../lib/gcc/pic32mx/4.8.3/../../../../pic32mx/lib\libpic32.a(vector8.o)
                              C:\Users\kyrk\AppData\Local\Temp\ccmCSEZY.o (__vector_dispatch_8)
c:/program files (x86)/microchip/xc32/v2.30/bin/bin/../../lib/gcc/pic32mx/4.8.3/../../../../pic32mx/lib\libpic32.a(vector9.o)
                              C:\Users\kyrk\AppData\Local\Temp\ccmCSEZY.o (__vector_dispatch_9)
c:/program files (x86)/microchip/xc32/v2.30/bin/bin/../../lib/gcc/pic32mx/4.8.3/../../../../pic32mx/lib\libpic32.a(vector10.o)
                              C:\Users\kyrk\AppData\Local\Temp\ccmCSEZY.o (__vector_dispatch_10)
c:/program files (x86)/microchip/xc32/v2.30/bin/bin/../../lib/gcc/pic32mx/4.8.3/../../../../pic32mx/lib\libpic32.a(vector11.o)
                              C:\Users\kyrk\AppData\Local\Temp\ccmCSEZY.o (__vector_dispatch_11)
c:/program files (x86)/microchip/xc32/v2.30/bin/bin/../../lib/gcc/pic32mx/4.8.3/../../../../pic32mx/lib\libpic32.a(vector12.o)
                              C:\Users\kyrk\AppData\Local\Temp\ccmCSEZY.o (__vector_dispatch_12)
c:/program files (x86)/microchip/xc32/v2.30/bin/bin/../../lib/gcc/pic32mx/4.8.3/../../../../pic32mx/lib\libpic32.a(vector13.o)
                              C:\Users\kyrk\AppData\Local\Temp\ccmCSEZY.o (__vector_dispatch_13)
c:/program files (x86)/microchip/xc32/v2.30/bin/bin/../../lib/gcc/pic32mx/4.8.3/../../../../pic32mx/lib\libpic32.a(vector14.o)
                              C:\Users\kyrk\AppData\Local\Temp\ccmCSEZY.o (__vector_dispatch_14)
c:/program files (x86)/microchip/xc32/v2.30/bin/bin/../../lib/gcc/pic32mx/4.8.3/../../../../pic32mx/lib\libpic32.a(vector16.o)
                              C:\Users\kyrk\AppData\Local\Temp\ccmCSEZY.o (__vector_dispatch_16)
c:/program files (x86)/microchip/xc32/v2.30/bin/bin/../../lib/gcc/pic32mx/4.8.3/../../../../pic32mx/lib\libpic32.a(vector17.o)
                              C:\Users\kyrk\AppData\Local\Temp\ccmCSEZY.o (__vector_dispatch_17)
c:/program files (x86)/microchip/xc32/v2.30/bin/bin/../../lib/gcc/pic32mx/4.8.3/../../../../pic32mx/lib\libpic32.a(vector18.o)
                              C:\Users\kyrk\AppData\Local\Temp\ccmCSEZY.o (__vector_dispatch_18)
c:/program files (x86)/microchip/xc32/v2.30/bin/bin/../../lib/gcc/pic32mx/4.8.3/../../../../pic32mx/lib\libpic32.a(vector19.o)
                              C:\Users\kyrk\AppData\Local\Temp\ccmCSEZY.o (__vector_dispatch_19)
c:/program files (x86)/microchip/xc32/v2.30/bin/bin/../../lib/gcc/pic32mx/4.8.3/../../../../pic32mx/lib\libpic32.a(vector20.o)
                              C:\Users\kyrk\AppData\Local\Temp\ccmCSEZY.o (__vector_dispatch_20)
c:/program files (x86)/microchip/xc32/v2.30/bin/bin/../../lib/gcc/pic32mx/4.8.3/../../../../pic32mx/lib\libpic32.a(vector21.o)
                              C:\Users\kyrk\AppData\Local\Temp\ccmCSEZY.o (__vector_dispatch_21)
c:/program files (x86)/microchip/xc32/v2.30/bin/bin/../../lib/gcc/pic32mx/4.8.3/../../../../pic32mx/lib\libpic32.a(vector22.o)
                              C:\Users\kyrk\AppData\Local\Temp\ccmCSEZY.o (__vector_dispatch_22)
c:/program files (x86)/microchip/xc32/v2.30/bin/bin/../../lib/gcc/pic32mx/4.8.3/../../../../pic32mx/lib\libpic32.a(vector23.o)
                              C:\Users\kyrk\AppData\Local\Temp\ccmCSEZY.o (__vector_dispatch_23)
c:/program files (x86)/microchip/xc32/v2.30/bin/bin/../../lib/gcc/pic32mx/4.8.3/../../../../pic32mx/lib\libpic32.a(vector24.o)
                              C:\Users\kyrk\AppData\Local\Temp\ccmCSEZY.o (__vector_dispatch_24)
c:/program files (x86)/microchip/xc32/v2.30/bin/bin/../../lib/gcc/pic32mx/4.8.3/../../../../pic32mx/lib\libpic32.a(vector25.o)
                              C:\Users\kyrk\AppData\Local\Temp\ccmCSEZY.o (__vector_dispatch_25)
c:/program files (x86)/microchip/xc32/v2.30/bin/bin/../../lib/gcc/pic32mx/4.8.3/../../../../pic32mx/lib\libpic32.a(vector26.o)
                              C:\Users\kyrk\AppData\Local\Temp\ccmCSEZY.o (__vector_dispatch_26)
c:/program files (x86)/microchip/xc32/v2.30/bin/bin/../../lib/gcc/pic32mx/4.8.3/../../../../pic32mx/lib\libpic32.a(vector27.o)
                              C:\Users\kyrk\AppData\Local\Temp\ccmCSEZY.o (__vector_dispatch_27)
c:/program files (x86)/microchip/xc32/v2.30/bin/bin/../../lib/gcc/pic32mx/4.8.3/../../../../pic32mx/lib\libpic32.a(vector28.o)
                              C:\Users\kyrk\AppData\Local\Temp\ccmCSEZY.o (__vector_dispatch_28)
c:/program files (x86)/microchip/xc32/v2.30/bin/bin/../../lib/gcc/pic32mx/4.8.3/../../../../pic32mx/lib\libpic32.a(vector29.o)
                              C:\Users\kyrk\AppData\Local\Temp\ccmCSEZY.o (__vector_dispatch_29)
c:/program files (x86)/microchip/xc32/v2.30/bin/bin/../../lib/gcc/pic32mx/4.8.3/../../../../pic32mx/lib\libpic32.a(vector30.o)
                              C:\Users\kyrk\AppData\Local\Temp\ccmCSEZY.o (__vector_dispatch_30)
c:/program files (x86)/microchip/xc32/v2.30/bin/bin/../../lib/gcc/pic32mx/4.8.3/../../../../pic32mx/lib\libpic32.a(vector31.o)
                              C:\Users\kyrk\AppData\Local\Temp\ccmCSEZY.o (__vector_dispatch_31)
c:/program files (x86)/microchip/xc32/v2.30/bin/bin/../../lib/gcc/pic32mx/4.8.3/../../../../pic32mx/lib\libpic32.a(vector32.o)
                              C:\Users\kyrk\AppData\Local\Temp\ccmCSEZY.o (__vector_dispatch_32)
c:/program files (x86)/microchip/xc32/v2.30/bin/bin/../../lib/gcc/pic32mx/4.8.3/../../../../pic32mx/lib\libpic32.a(vector33.o)
                              C:\Users\kyrk\AppData\Local\Temp\ccmCSEZY.o (__vector_dispatch_33)
c:/program files (x86)/microchip/xc32/v2.30/bin/bin/../../lib/gcc/pic32mx/4.8.3/../../../../pic32mx/lib\libpic32.a(vector34.o)
                              C:\Users\kyrk\AppData\Local\Temp\ccmCSEZY.o (__vector_dispatch_34)
c:/program files (x86)/microchip/xc32/v2.30/bin/bin/../../lib/gcc/pic32mx/4.8.3/../../../../pic32mx/lib\libpic32.a(vector35.o)
                              C:\Users\kyrk\AppData\Local\Temp\ccmCSEZY.o (__vector_dispatch_35)
c:/program files (x86)/microchip/xc32/v2.30/bin/bin/../../lib/gcc/pic32mx/4.8.3/../../../../pic32mx/lib\libpic32.a(vector36.o)
                              C:\Users\kyrk\AppData\Local\Temp\ccmCSEZY.o (__vector_dispatch_36)
c:/program files (x86)/microchip/xc32/v2.30/bin/bin/../../lib/gcc/pic32mx/4.8.3/../../../../pic32mx/lib\libpic32.a(vector37.o)
                              C:\Users\kyrk\AppData\Local\Temp\ccmCSEZY.o (__vector_dispatch_37)
c:/program files (x86)/microchip/xc32/v2.30/bin/bin/../../lib/gcc/pic32mx/4.8.3/../../../../pic32mx/lib\libpic32.a(vector38.o)
                              C:\Users\kyrk\AppData\Local\Temp\ccmCSEZY.o (__vector_dispatch_38)
c:/program files (x86)/microchip/xc32/v2.30/bin/bin/../../lib/gcc/pic32mx/4.8.3/../../../../pic32mx/lib\libpic32.a(vector39.o)
                              C:\Users\kyrk\AppData\Local\Temp\ccmCSEZY.o (__vector_dispatch_39)
c:/program files (x86)/microchip/xc32/v2.30/bin/bin/../../lib/gcc/pic32mx/4.8.3/../../../../pic32mx/lib\libpic32.a(vector40.o)
                              C:\Users\kyrk\AppData\Local\Temp\ccmCSEZY.o (__vector_dispatch_40)
c:/program files (x86)/microchip/xc32/v2.30/bin/bin/../../lib/gcc/pic32mx/4.8.3/../../../../pic32mx/lib\libpic32.a(vector41.o)
                              C:\Users\kyrk\AppData\Local\Temp\ccmCSEZY.o (__vector_dispatch_41)
c:/program files (x86)/microchip/xc32/v2.30/bin/bin/../../lib/gcc/pic32mx/4.8.3/../../../../pic32mx/lib\libpic32.a(vector42.o)
                              C:\Users\kyrk\AppData\Local\Temp\ccmCSEZY.o (__vector_dispatch_42)
c:/program files (x86)/microchip/xc32/v2.30/bin/bin/../../lib/gcc/pic32mx/4.8.3/../../../../pic32mx/lib\libpic32.a(vector43.o)
                              C:\Users\kyrk\AppData\Local\Temp\ccmCSEZY.o (__vector_dispatch_43)
c:/program files (x86)/microchip/xc32/v2.30/bin/bin/../../lib/gcc/pic32mx/4.8.3/../../../../pic32mx/lib\libpic32.a(vector44.o)
                              C:\Users\kyrk\AppData\Local\Temp\ccmCSEZY.o (__vector_dispatch_44)
c:/program files (x86)/microchip/xc32/v2.30/bin/bin/../../lib/gcc/pic32mx/4.8.3/../../../../pic32mx/lib\libpic32.a(vector45.o)
                              C:\Users\kyrk\AppData\Local\Temp\ccmCSEZY.o (__vector_dispatch_45)
c:/program files (x86)/microchip/xc32/v2.30/bin/bin/../../lib/gcc/pic32mx/4.8.3/../../../../pic32mx/lib\libpic32.a(default-general-exception-handler.o)
                              c:/program files (x86)/microchip/xc32/v2.30/bin/bin/../../lib/gcc/pic32mx/4.8.3/../../../../pic32mx/lib\libpic32.a(general-exception.o) (_general_exception_handler)
c:/program files (x86)/microchip/xc32/v2.30/bin/bin/../../lib/gcc/pic32mx/4.8.3/../../../../pic32mx/lib\libpic32.a(defaultinterrupt.o)
                              c:/program files (x86)/microchip/xc32/v2.30/bin/bin/../../lib/gcc/pic32mx/4.8.3/../../../../pic32mx/lib\libpic32.a(vector0.o) (_DefaultInterrupt)
c:/program files (x86)/microchip/xc32/v2.30/bin/bin/../../lib/gcc/pic32mx/4.8.3/../../../../pic32mx/lib\libc.a(strncpy.o)
                              build/default/production/_ext/1360937237/Helpers.o (strncpy)
c:/program files (x86)/microchip/xc32/v2.30/bin/bin/../../lib/gcc/pic32mx/4.8.3/../../../../pic32mx/lib\libc.a(sprintf_cdnopsuxX.eo)
                              build/default/production/_ext/1360937237/drv_wifi_debug_strings.o (_sprintf_cdnopsuxX)
c:/program files (x86)/microchip/xc32/v2.30/bin/bin/../../lib/gcc/pic32mx/4.8.3/../../../../pic32mx/lib\libc.a(sprintf_cdnopuxX.eo)
                              build/default/production/_ext/1360937237/drv_wifi_debug_strings.o (_sprintf_cdnopuxX)
c:/program files (x86)/microchip/xc32/v2.30/bin/bin/../../lib/gcc/pic32mx/4.8.3/../../../../pic32mx/lib\libc.a(doprnt_cdnopsuxX.eo)
                              c:/program files (x86)/microchip/xc32/v2.30/bin/bin/../../lib/gcc/pic32mx/4.8.3/../../../../pic32mx/lib\libc.a(sprintf_cdnopsuxX.eo) (_vfprintf_cdnopsuxX)
c:/program files (x86)/microchip/xc32/v2.30/bin/bin/../../lib/gcc/pic32mx/4.8.3/../../../../pic32mx/lib\libc.a(doprnt_cdnopuxX.eo)
                              c:/program files (x86)/microchip/xc32/v2.30/bin/bin/../../lib/gcc/pic32mx/4.8.3/../../../../pic32mx/lib\libc.a(sprintf_cdnopuxX.eo) (_vfprintf_cdnopuxX)
c:/program files (x86)/microchip/xc32/v2.30/bin/bin/../../lib/gcc/pic32mx/4.8.3/../../../../pic32mx/lib\libc.a(_fputc_simple.o)
                              c:/program files (x86)/microchip/xc32/v2.30/bin/bin/../../lib/gcc/pic32mx/4.8.3/../../../../pic32mx/lib\libc.a(doprnt_cdnopsuxX.eo) (fputc)
c:/program files (x86)/microchip/xc32/v2.30/bin/bin/../../lib/gcc/pic32mx/4.8.3/../../../../pic32mx/lib\libc.a(ctype.o)
                              c:/program files (x86)/microchip/xc32/v2.30/bin/bin/../../lib/gcc/pic32mx/4.8.3/../../../../pic32mx/lib\libc.a(doprnt_cdnopsuxX.eo) (_ctype)
c:/program files (x86)/microchip/xc32/v2.30/bin/bin/../../lib/gcc/pic32mx/4.8.3/../../../../pic32mx/lib\libc.a(_iob.o)
                              c:/program files (x86)/microchip/xc32/v2.30/bin/bin/../../lib/gcc/pic32mx/4.8.3/../../../../pic32mx/lib\libc.a(_fputc_simple.o) (_outdone)
c:/program files (x86)/microchip/xc32/v2.30/bin/bin/../../lib/gcc/pic32mx/4.8.3/../../../../pic32mx/lib\libc.a(_flsbuf_simple.o)
                              c:/program files (x86)/microchip/xc32/v2.30/bin/bin/../../lib/gcc/pic32mx/4.8.3/../../../../pic32mx/lib\libc.a(_fputc_simple.o) (_flsbuf)
c:/program files (x86)/microchip/xc32/v2.30/bin/bin/../../lib/gcc/pic32mx/4.8.3/../../../../pic32mx/lib\libpic32.a(write.o)
                              c:/program files (x86)/microchip/xc32/v2.30/bin/bin/../../lib/gcc/pic32mx/4.8.3/../../../../pic32mx/lib\libc.a(_fputc_simple.o) (write)
c:/program files (x86)/microchip/xc32/v2.30/bin/bin/../../lib/gcc/pic32mx/4.8.3/../../../../pic32mx/lib\libpic32.a(_mon_putc.o)
                              c:/program files (x86)/microchip/xc32/v2.30/bin/bin/../../lib/gcc/pic32mx/4.8.3/../../../../pic32mx/lib\libpic32.a(write.o) (_mon_putc)
c:/program files (x86)/microchip/xc32/v2.30/bin/bin/../../lib/gcc/pic32mx/4.8.3/../../../../pic32mx/lib\libpic32.a(xc32_uart.o)
                              c:/program files (x86)/microchip/xc32/v2.30/bin/bin/../../lib/gcc/pic32mx/4.8.3/../../../../pic32mx/lib\libpic32.a(_mon_putc.o) (__XC_UART)

Allocating common symbols
Common symbol       size              file

rxData              0x3e8             build/default/production/_ext/1360937237/EthernetTasks.o
UDPTxCount          0x2               build/default/production/_ext/1360937237/UDP.o
txData              0xc8              build/default/production/_ext/1360937237/EthernetTasks.o
RawWindowState      0x2               build/default/production/_ext/1360937237/drv_wifi_raw.o
udpSkt              0x1               build/default/production/_ext/1360937237/EthernetTasks.o
activeUDPSocket     0x1               build/default/production/_ext/1360937237/UDP.o
remoteNode          0xa               build/default/production/_ext/1360937237/stack_task.o
RawMoveState        0x2               build/default/production/_ext/1360937237/drv_wifi_com.o
AppConfig           0x9b              build/default/production/_ext/1360937237/EthernetTasks.o
g_WpsPassphrase     0x63              build/default/production/_ext/1360937237/EthernetTasks.o
RawWindowReady      0x2               build/default/production/_ext/1360937237/drv_wifi_raw.o
g_rxIndexSetBeyondBuffer
                    0x1               build/default/production/_ext/1360937237/drv_wifi_mac.o
UDPRxCount          0x2               build/default/production/_ext/1360937237/UDP.o
UDPSocketInfo       0xe0              build/default/production/_ext/1360937237/UDP.o
ConnectionProfileID
                    0x1               build/default/production/_ext/1360937237/EthernetTasks.o
g_rxDtim            0x1               build/default/production/_ext/1360937237/drv_wifi_power_save.o

Microchip PIC32 Memory-Usage Report

kseg0 Program-Memory Usage
section                    address  length [bytes]      (dec)  Description
-------                 ----------  -------------------------  -----------
.text                   0x9d000000         0x278c       10124  App's exec code 
.text                   0x9d00278c          0xda4        3492  App's exec code 
.text._vfprintf_cdnopsu 0x9d003530          0xc8c        3212   
.text                   0x9d0041bc         0x1150        4432  App's exec code 
.text                   0x9d00530c         0x1024        4132  App's exec code 
.rodata                 0x9d006330          0x704        1796  Read-only const 
.text                   0x9d006a34          0xdac        3500  App's exec code 
.text                   0x9d0077e0          0xc10        3088  App's exec code 
.text                   0x9d0083f0          0xaec        2796  App's exec code 
.text                   0x9d008edc          0x8bc        2236  App's exec code 
.text                   0x9d009798          0x898        2200  App's exec code 
.text                   0x9d00a030          0x7c8        1992  App's exec code 
.dinit                  0x9d00a7f8          0x3a0         928   
.text                   0x9d00ab98          0x6d8        1752  App's exec code 
.text                   0x9d00b270          0x59c        1436  App's exec code 
.text                   0x9d00b80c          0x4ec        1260  App's exec code 
.text                   0x9d00bcf8          0x4a0        1184  App's exec code 
.text                   0x9d00c198          0x46c        1132  App's exec code 
.text                   0x9d00c604          0x420        1056  App's exec code 
.text                   0x9d00ca24          0x358         856  App's exec code 
.text                   0x9d00cd7c          0x2e8         744  App's exec code 
.text                   0x9d00d064          0x2ac         684  App's exec code 
.text.fputc             0x9d00d310          0x144         324   
.text                   0x9d00d454          0x140         320  App's exec code 
.text._flsbuf           0x9d00d594          0x12c         300   
.rodata                 0x9d00d6c0          0x104         260  Read-only const 
.text                   0x9d00d7c4          0x1dc         476  App's exec code 
.text.general_exception 0x9d00d9a0           0xdc         220   
.text._mon_putc         0x9d00da7c           0xd4         212   
.rodata                 0x9d00db50           0xd0         208  Read-only const 
.text                   0x9d00dc20          0x174         372  App's exec code 
.text.write             0x9d00dd94           0x9c         156   
.text                   0x9d00de30           0x98         152  App's exec code 
.rodata                 0x9d00dec8           0x90         144  Read-only const 
.text                   0x9d00df58          0x108         264  App's exec code 
.text.strncpy           0x9d00e060           0x74         116   
.rodata                 0x9d00e0d4           0x70         112  Read-only const 
.text._sprintf_cdnopsux 0x9d00e144           0x68         104   
.text                   0x9d00e1ac           0x5c          92  App's exec code 
.rodata                 0x9d00e208           0x54          84  Read-only const 
.text.main_entry        0x9d00e25c           0x54          84   
.text.putsUART1         0x9d00e2b0           0x4c          76   
.text.putsUART2         0x9d00e2fc           0x4c          76   
.text._bootstrap_except 0x9d00e348           0x48          72   
.text._general_exceptio 0x9d00e390           0x48          72   
.vector_default         0x9d00e3d8           0x48          72   
.text                   0x9d00e420           0x44          68  App's exec code 
.text.INTEnableSystemMu 0x9d00e464           0x34          52   
.rodata                 0x9d00e498           0x40          64  Read-only const 
.text.INTRestoreInterru 0x9d00e4d8           0x1c          28   
.rodata                 0x9d00e4f4           0x18          24  Read-only const 
.text.CheKseg0CacheOff  0x9d00e50c           0x18          24   
.text.CheKseg0CacheOn   0x9d00e524           0x18          24   
.text                   0x9d00e53c           0x18          24  App's exec code 
.rodata                 0x9d00e554           0x20          32  Read-only const 
.rodata                 0x9d00e574           0x10          16  Read-only const 
.text.ReadCoreTimer     0x9d00e584            0x8           8   
.text.WriteCoreTimer    0x9d00e58c            0x8           8   
.text.INTDisableInterru 0x9d00e594            0x8           8   
.text.INTEnableInterrup 0x9d00e59c            0x8           8   
.text._on_reset         0x9d00e5a4            0x8           8   
.text._on_bootstrap     0x9d00e5ac            0x8           8   
.rodata                 0x9d00e5b4            0x8           8  Read-only const 
      Total kseg0_program_mem used  :      0xe5bc       58812  89.7% of 0x10000

kseg0 Boot-Memory Usage
section                    address  length [bytes]      (dec)  Description
-------                 ----------  -------------------------  -----------
         Total kseg0_boot_mem used  :           0           0  

Exception-Memory Usage 
section                    address  length [bytes]      (dec)  Description
-------                 ----------  -------------------------  -----------
.app_excpt              0x9fc01180           0x10          16  General-Exception 
.vector_0               0x9fc01200            0x8           8  Interrupt Vector 0 
.vector_1               0x9fc01220            0x8           8  Interrupt Vector 1 
.vector_2               0x9fc01240            0x8           8  Interrupt Vector 2 
.vector_3               0x9fc01260            0x8           8  Interrupt Vector 3 
.vector_4               0x9fc01280            0x8           8  Interrupt Vector 4 
.vector_5               0x9fc012a0            0x8           8  Interrupt Vector 5 
.vector_6               0x9fc012c0            0x8           8  Interrupt Vector 6 
.vector_7               0x9fc012e0            0x8           8  Interrupt Vector 7 
.vector_8               0x9fc01300            0x8           8  Interrupt Vector 8 
.vector_9               0x9fc01320            0x8           8  Interrupt Vector 9 
.vector_10              0x9fc01340            0x8           8  Interrupt Vector 10 
.vector_11              0x9fc01360            0x8           8  Interrupt Vector 11 
.vector_12              0x9fc01380            0x8           8  Interrupt Vector 12 
.vector_13              0x9fc013a0            0x8           8  Interrupt Vector 13 
.vector_14              0x9fc013c0            0x8           8  Interrupt Vector 14 
.vector_15              0x9fc013e0            0x8           8  Interrupt Vector 15 
.vector_16              0x9fc01400            0x8           8  Interrupt Vector 16 
.vector_17              0x9fc01420            0x8           8  Interrupt Vector 17 
.vector_18              0x9fc01440            0x8           8  Interrupt Vector 18 
.vector_19              0x9fc01460            0x8           8  Interrupt Vector 19 
.vector_20              0x9fc01480            0x8           8  Interrupt Vector 20 
.vector_21              0x9fc014a0            0x8           8  Interrupt Vector 21 
.vector_22              0x9fc014c0            0x8           8  Interrupt Vector 22 
.vector_23              0x9fc014e0            0x8           8  Interrupt Vector 23 
.vector_24              0x9fc01500            0x8           8  Interrupt Vector 24 
.vector_25              0x9fc01520            0x8           8  Interrupt Vector 25 
.vector_26              0x9fc01540            0x8           8  Interrupt Vector 26 
.vector_27              0x9fc01560            0x8           8  Interrupt Vector 27 
.vector_28              0x9fc01580            0x8           8  Interrupt Vector 28 
.vector_29              0x9fc015a0            0x8           8  Interrupt Vector 29 
.vector_30              0x9fc015c0            0x8           8  Interrupt Vector 30 
.vector_31              0x9fc015e0            0x8           8  Interrupt Vector 31 
.vector_32              0x9fc01600            0x8           8  Interrupt Vector 32 
.vector_33              0x9fc01620            0x8           8  Interrupt Vector 33 
.vector_34              0x9fc01640            0x8           8  Interrupt Vector 34 
.vector_35              0x9fc01660            0x8           8  Interrupt Vector 35 
.vector_36              0x9fc01680            0x8           8  Interrupt Vector 36 
.vector_37              0x9fc016a0            0x8           8  Interrupt Vector 37 
.vector_38              0x9fc016c0            0x8           8  Interrupt Vector 38 
.vector_39              0x9fc016e0            0x8           8  Interrupt Vector 39 
.vector_40              0x9fc01700            0x8           8  Interrupt Vector 40 
.vector_41              0x9fc01720            0x8           8  Interrupt Vector 41 
.vector_42              0x9fc01740            0x8           8  Interrupt Vector 42 
.vector_43              0x9fc01760            0x8           8  Interrupt Vector 43 
.vector_44              0x9fc01780            0x8           8  Interrupt Vector 44 
.vector_45              0x9fc017a0            0x8           8  Interrupt Vector 45 
          Total exception_mem used  :       0x180         384  9.4% of 0x1000

kseg1 Boot-Memory Usage
section                    address  length [bytes]      (dec)  Description
-------                 ----------  -------------------------  -----------
.reset                  0xbfc00000          0x19c         412  Reset handler 
.bev_excpt              0xbfc00380           0x10          16  BEV-Exception 
         Total kseg1_boot_mem used  :       0x1ac         428  36.6% of 0x490
        --------------------------------------------------------------------------
         Total Program Memory used  :      0xe8e8       59624  84.2% of 0x11490
        --------------------------------------------------------------------------


kseg1 Data-Memory Usage
section                    address  length [bytes]      (dec)  Description
-------                 ----------  -------------------------  -----------
.sdata                  0xa0000008           0x20          32  Small init data 
.sbss                   0xa0000028           0xe0         224  Small uninit data 
.bss                    0xa0000108          0x69c        1692  Uninitialized data 
.bss                    0xa00007a4          0x7f4        2036  Uninitialized data 
.data                   0xa0000f98          0x168         360  Initialized data 
.bss                    0xa0001100           0x78         120  Uninitialized data 
.bss                    0xa0001180           0x38          56  Uninitialized data 
.data                   0xa00011b8           0x10          16  Initialized data 
.bss                    0xa00011c8            0xc          12  Uninitialized data 
         Total kseg1_data_mem used  :      0x11c4        4548  13.9% of 0x8000
        --------------------------------------------------------------------------
            Total Data Memory used  :      0x11c4        4548  13.9% of 0x8000
        --------------------------------------------------------------------------


Dynamic Data-Memory Reservation
section                    address  length [bytes]      (dec)  Description
-------                 ----------  -------------------------  -----------
heap                    0xa00011d8           0x10          16  Reserved for heap 
stack                   0xa0001200         0x6df0       28144  Reserved for stack 

        --------------------------------------------------------------------------

Discarded input sections

 .reginfo       0x00000000       0x18 build/default/production/_ext/659867239/daylight.o
 .reginfo       0x00000000       0x18 build/default/production/_ext/659867239/rtc.o
 .reginfo       0x00000000       0x18 build/default/production/_ext/659867239/rtcconverter.o
 .reginfo       0x00000000       0x18 build/default/production/_ext/1360937237/BootLoader.o
 .reginfo       0x00000000       0x18 build/default/production/_ext/1360937237/Framework.o
 .reginfo       0x00000000       0x18 build/default/production/_ext/1360937237/NVMem.o
 .reginfo       0x00000000       0x18 build/default/production/_ext/1360937237/EthernetTasks.o
 .reginfo       0x00000000       0x18 build/default/production/_ext/1360937237/Tick.o
 .reginfo       0x00000000       0x18 build/default/production/_ext/1360937237/stack_task.o
 .reginfo       0x00000000       0x18 build/default/production/_ext/1360937237/UDP.o
 .reginfo       0x00000000       0x18 build/default/production/_ext/1360937237/dhcp_client.o
 .reginfo       0x00000000       0x18 build/default/production/_ext/1360937237/ARP.o
 .reginfo       0x00000000       0x18 build/default/production/_ext/1360937237/Helpers.o
 .reginfo       0x00000000       0x18 build/default/production/_ext/1360937237/dns_client.o
 .reginfo       0x00000000       0x18 build/default/production/_ext/1360937237/nbns.o
 .reginfo       0x00000000       0x18 build/default/production/_ext/1360937237/drv_wifi_mac.o
 .reginfo       0x00000000       0x18 build/default/production/_ext/1360937237/drv_wifi_raw.o
 .reginfo       0x00000000       0x18 build/default/production/_ext/1360937237/drv_wifi_com.o
 .reginfo       0x00000000       0x18 build/default/production/_ext/1360937237/Delay.o
 .reginfo       0x00000000       0x18 build/default/production/_ext/1360937237/drv_wifi_eint.o
 .reginfo       0x00000000       0x18 build/default/production/_ext/1360937237/drv_wifi_debug_strings.o
 .reginfo       0x00000000       0x18 build/default/production/_ext/1360937237/drv_wifi_spi.o
 .reginfo       0x00000000       0x18 build/default/production/_ext/1360937237/drv_wifi_power_save.o
 .reginfo       0x00000000       0x18 build/default/production/_ext/1360937237/announce.o
 .reginfo       0x00000000       0x18 build/default/production/_ext/1360937237/drv_wifi_mgmt_msg.o
 .reginfo       0x00000000       0x18 build/default/production/_ext/1360937237/drv_wifi_event_handler.o
 .reginfo       0x00000000       0x18 build/default/production/_ext/1360937237/drv_wifi_config.o
 .reginfo       0x00000000       0x18 build/default/production/_ext/1360937237/drv_wifi_connection_algorithm.o
 .reginfo       0x00000000       0x18 build/default/production/_ext/1360937237/drv_wifi_connection_manager.o
 .reginfo       0x00000000       0x18 build/default/production/_ext/1360937237/drv_wifi_pbkdf2.o
 .reginfo       0x00000000       0x18 build/default/production/_ext/1360937237/drv_wifi_init.o
 .reginfo       0x00000000       0x18 build/default/production/_ext/1360937237/drv_wifi_param_msg.o
 .reginfo       0x00000000       0x18 build/default/production/_ext/1360937237/IP.o
 .reginfo       0x00000000       0x18 build/default/production/_ext/1360937237/icmp.o
 .reginfo       0x00000000       0x18 build/default/production/_ext/1360937237/tcp.o
 .reginfo       0x00000000       0x18 build/default/production/_ext/1360937237/uart.o
 .reginfo       0x00000000       0x18 build/default/production/_ext/1360937237/drv_wifi_connection_profile.o
 .reginfo       0x00000000       0x18 build/default/production/_ext/252762716/sntp.o
 .reginfo       0x00000000       0x18 build/default/production/_ext/252762716/ssl.o
 .reginfo       0x00000000       0x18 build/default/production/_ext/252762716/random.o
 .reginfo       0x00000000       0x18 build/default/production/_ext/252762716/hashes.o
 .reginfo       0x00000000       0x18 build/default/production/_ext/252762716/rsa.o
 .reginfo       0x00000000       0x18 build/default/production/_ext/252762716/big_int.o
 .reginfo       0x00000000       0x18 build/default/production/_ext/1360937237/big_int_helper_pic32.o
 .reginfo       0x00000000       0x18 build/default/production/_ext/252762716/custom_ssl_cert.o
 .reginfo       0x00000000       0x18 build/default/production/_ext/252762716/arc4.o
 .reginfo       0x00000000       0x18 build/default/production/_ext/1360937237/smtp.o
 .reginfo       0x00000000       0x18 build/default/production/_ext/1360937237/smtp_demo.o
 .reginfo       0x00000000       0x18 build/default/production/_ext/252762716/http2.o
 .reginfo       0x00000000       0x18 build/default/production/_ext/252762716/mpfs2.o
 .reginfo       0x00000000       0x18 build/default/production/_ext/252762716/custom_http_app.o
 .reginfo       0x00000000       0x18 build/default/production/_ext/252762716/mpfs_img2.o
 .reginfo       0x00000000       0x18 c:/program files (x86)/microchip/xc32/v2.30/bin/bin/../../lib/gcc/pic32mx/4.8.3/../../../../pic32mx/lib/./proc/32MX440F256H\processor.o
 .reginfo       0x00000000       0x18 c:/program files (x86)/microchip/xc32/v2.30/bin/bin/../../lib/gcc/pic32mx/4.8.3/../../../../pic32mx/lib\libmchp_peripheral.a(read_core_timer_lib.o)
 .reginfo       0x00000000       0x18 c:/program files (x86)/microchip/xc32/v2.30/bin/bin/../../lib/gcc/pic32mx/4.8.3/../../../../pic32mx/lib\libmchp_peripheral.a(write_core_timer_lib.o)
 .reginfo       0x00000000       0x18 c:/program files (x86)/microchip/xc32/v2.30/bin/bin/../../lib/gcc/pic32mx/4.8.3/../../../../pic32mx/lib\libmchp_peripheral_32MX440F256H.a(pcache.o)
 .reginfo       0x00000000       0x18 c:/program files (x86)/microchip/xc32/v2.30/bin/bin/../../lib/gcc/pic32mx/4.8.3/../../../../pic32mx/lib\libmchp_peripheral_32MX440F256H.a(int_disable_interrupts_lib.o)
 .reginfo       0x00000000       0x18 c:/program files (x86)/microchip/xc32/v2.30/bin/bin/../../lib/gcc/pic32mx/4.8.3/../../../../pic32mx/lib\libmchp_peripheral_32MX440F256H.a(int_restore_interrupts_lib.o)
 .reginfo       0x00000000       0x18 c:/program files (x86)/microchip/xc32/v2.30/bin/bin/../../lib/gcc/pic32mx/4.8.3/../../../../pic32mx/lib\libmchp_peripheral_32MX440F256H.a(int_enable_mv_int_lib.o)
 .reginfo       0x00000000       0x18 c:/program files (x86)/microchip/xc32/v2.30/bin/bin/../../lib/gcc/pic32mx/4.8.3/../../../../pic32mx/lib\libmchp_peripheral_32MX440F256H.a(puts_uartx_lib_legacy.o)
 .reginfo       0x00000000       0x18 c:/program files (x86)/microchip/xc32/v2.30/bin/bin/../../lib/gcc/pic32mx/4.8.3/../../../../pic32mx/lib\libmchp_peripheral_32MX440F256H.a(int_enable_interrupts_lib.o)
 .reginfo       0x00000000       0x18 C:\Users\kyrk\AppData\Local\Temp\cciFSByj.o
 .reginfo       0x00000000       0x18 C:\Users\kyrk\AppData\Local\Temp\ccz1PUY4.o
 .reginfo       0x00000000       0x18 C:\Users\kyrk\AppData\Local\Temp\ccmCSEZY.o
 .discard       0x00000000       0xb8 C:\Users\kyrk\AppData\Local\Temp\ccmCSEZY.o
 .reginfo       0x00000000       0x18 c:/program files (x86)/microchip/xc32/v2.30/bin/bin/../../lib/gcc/pic32mx/4.8.3/../../../../pic32mx/lib/./proc/32MX440F256H\default_isr_vectors.o
 .discard       0x00000000       0xb8 c:/program files (x86)/microchip/xc32/v2.30/bin/bin/../../lib/gcc/pic32mx/4.8.3/../../../../pic32mx/lib/./proc/32MX440F256H\default_isr_vectors.o
 .reginfo       0x00000000       0x18 c:/program files (x86)/microchip/xc32/v2.30/bin/bin/../../lib/gcc/pic32mx/4.8.3/../../../../pic32mx/lib\pic32_software_reset.o
 .reginfo       0x00000000       0x18 c:/program files (x86)/microchip/xc32/v2.30/bin/bin/../../lib/gcc/pic32mx/4.8.3\libgcc.a(_udivdi3.o)
 .reginfo       0x00000000       0x18 c:/program files (x86)/microchip/xc32/v2.30/bin/bin/../../lib/gcc/pic32mx/4.8.3\libgcc.a(_umoddi3.o)
 .reginfo       0x00000000       0x18 c:/program files (x86)/microchip/xc32/v2.30/bin/bin/../../lib/gcc/pic32mx/4.8.3/../../../../pic32mx/lib\libpic32.a(memcmp.o)
 .reginfo       0x00000000       0x18 c:/program files (x86)/microchip/xc32/v2.30/bin/bin/../../lib/gcc/pic32mx/4.8.3/../../../../pic32mx/lib\libpic32.a(memcpy.o)
 .reginfo       0x00000000       0x18 c:/program files (x86)/microchip/xc32/v2.30/bin/bin/../../lib/gcc/pic32mx/4.8.3/../../../../pic32mx/lib\libpic32.a(memset.o)
 .reginfo       0x00000000       0x18 c:/program files (x86)/microchip/xc32/v2.30/bin/bin/../../lib/gcc/pic32mx/4.8.3/../../../../pic32mx/lib\libpic32.a(strcpy.o)
 .reginfo       0x00000000       0x18 c:/program files (x86)/microchip/xc32/v2.30/bin/bin/../../lib/gcc/pic32mx/4.8.3/../../../../pic32mx/lib\libpic32.a(strlen.o)
 .reginfo       0x00000000       0x18 c:/program files (x86)/microchip/xc32/v2.30/bin/bin/../../lib/gcc/pic32mx/4.8.3/../../../../pic32mx/lib\libpic32.a(default-bootstrap-exception-handler.o)
 .reginfo       0x00000000       0x18 c:/program files (x86)/microchip/xc32/v2.30/bin/bin/../../lib/gcc/pic32mx/4.8.3/../../../../pic32mx/lib\libpic32.a(default-on-reset.o)
 .reginfo       0x00000000       0x18 c:/program files (x86)/microchip/xc32/v2.30/bin/bin/../../lib/gcc/pic32mx/4.8.3/../../../../pic32mx/lib\libpic32.a(default-on-bootstrap.o)
 .reginfo       0x00000000       0x18 c:/program files (x86)/microchip/xc32/v2.30/bin/bin/../../lib/gcc/pic32mx/4.8.3/../../../../pic32mx/lib\libpic32.a(default-nmi-handler.o)
 .reginfo       0x00000000       0x18 c:/program files (x86)/microchip/xc32/v2.30/bin/bin/../../lib/gcc/pic32mx/4.8.3/../../../../pic32mx/lib\libpic32.a(pic32_data_init.o)
 .reginfo       0x00000000       0x18 c:/program files (x86)/microchip/xc32/v2.30/bin/bin/../../lib/gcc/pic32mx/4.8.3/../../../../pic32mx/lib\libpic32.a(general-exception.o)
 .reginfo       0x00000000       0x18 c:/program files (x86)/microchip/xc32/v2.30/bin/bin/../../lib/gcc/pic32mx/4.8.3/../../../../pic32mx/lib\libpic32.a(vector0.o)
 .reginfo       0x00000000       0x18 c:/program files (x86)/microchip/xc32/v2.30/bin/bin/../../lib/gcc/pic32mx/4.8.3/../../../../pic32mx/lib\libpic32.a(vector1.o)
 .reginfo       0x00000000       0x18 c:/program files (x86)/microchip/xc32/v2.30/bin/bin/../../lib/gcc/pic32mx/4.8.3/../../../../pic32mx/lib\libpic32.a(vector2.o)
 .reginfo       0x00000000       0x18 c:/program files (x86)/microchip/xc32/v2.30/bin/bin/../../lib/gcc/pic32mx/4.8.3/../../../../pic32mx/lib\libpic32.a(vector3.o)
 .reginfo       0x00000000       0x18 c:/program files (x86)/microchip/xc32/v2.30/bin/bin/../../lib/gcc/pic32mx/4.8.3/../../../../pic32mx/lib\libpic32.a(vector5.o)
 .reginfo       0x00000000       0x18 c:/program files (x86)/microchip/xc32/v2.30/bin/bin/../../lib/gcc/pic32mx/4.8.3/../../../../pic32mx/lib\libpic32.a(vector6.o)
 .reginfo       0x00000000       0x18 c:/program files (x86)/microchip/xc32/v2.30/bin/bin/../../lib/gcc/pic32mx/4.8.3/../../../../pic32mx/lib\libpic32.a(vector7.o)
 .reginfo       0x00000000       0x18 c:/program files (x86)/microchip/xc32/v2.30/bin/bin/../../lib/gcc/pic32mx/4.8.3/../../../../pic32mx/lib\libpic32.a(vector8.o)
 .reginfo       0x00000000       0x18 c:/program files (x86)/microchip/xc32/v2.30/bin/bin/../../lib/gcc/pic32mx/4.8.3/../../../../pic32mx/lib\libpic32.a(vector9.o)
 .reginfo       0x00000000       0x18 c:/program files (x86)/microchip/xc32/v2.30/bin/bin/../../lib/gcc/pic32mx/4.8.3/../../../../pic32mx/lib\libpic32.a(vector10.o)
 .reginfo       0x00000000       0x18 c:/program files (x86)/microchip/xc32/v2.30/bin/bin/../../lib/gcc/pic32mx/4.8.3/../../../../pic32mx/lib\libpic32.a(vector11.o)
 .reginfo       0x00000000       0x18 c:/program files (x86)/microchip/xc32/v2.30/bin/bin/../../lib/gcc/pic32mx/4.8.3/../../../../pic32mx/lib\libpic32.a(vector12.o)
 .reginfo       0x00000000       0x18 c:/program files (x86)/microchip/xc32/v2.30/bin/bin/../../lib/gcc/pic32mx/4.8.3/../../../../pic32mx/lib\libpic32.a(vector13.o)
 .reginfo       0x00000000       0x18 c:/program files (x86)/microchip/xc32/v2.30/bin/bin/../../lib/gcc/pic32mx/4.8.3/../../../../pic32mx/lib\libpic32.a(vector14.o)
 .reginfo       0x00000000       0x18 c:/program files (x86)/microchip/xc32/v2.30/bin/bin/../../lib/gcc/pic32mx/4.8.3/../../../../pic32mx/lib\libpic32.a(vector16.o)
 .reginfo       0x00000000       0x18 c:/program files (x86)/microchip/xc32/v2.30/bin/bin/../../lib/gcc/pic32mx/4.8.3/../../../../pic32mx/lib\libpic32.a(vector17.o)
 .reginfo       0x00000000       0x18 c:/program files (x86)/microchip/xc32/v2.30/bin/bin/../../lib/gcc/pic32mx/4.8.3/../../../../pic32mx/lib\libpic32.a(vector18.o)
 .reginfo       0x00000000       0x18 c:/program files (x86)/microchip/xc32/v2.30/bin/bin/../../lib/gcc/pic32mx/4.8.3/../../../../pic32mx/lib\libpic32.a(vector19.o)
 .reginfo       0x00000000       0x18 c:/program files (x86)/microchip/xc32/v2.30/bin/bin/../../lib/gcc/pic32mx/4.8.3/../../../../pic32mx/lib\libpic32.a(vector20.o)
 .reginfo       0x00000000       0x18 c:/program files (x86)/microchip/xc32/v2.30/bin/bin/../../lib/gcc/pic32mx/4.8.3/../../../../pic32mx/lib\libpic32.a(vector21.o)
 .reginfo       0x00000000       0x18 c:/program files (x86)/microchip/xc32/v2.30/bin/bin/../../lib/gcc/pic32mx/4.8.3/../../../../pic32mx/lib\libpic32.a(vector22.o)
 .reginfo       0x00000000       0x18 c:/program files (x86)/microchip/xc32/v2.30/bin/bin/../../lib/gcc/pic32mx/4.8.3/../../../../pic32mx/lib\libpic32.a(vector23.o)
 .reginfo       0x00000000       0x18 c:/program files (x86)/microchip/xc32/v2.30/bin/bin/../../lib/gcc/pic32mx/4.8.3/../../../../pic32mx/lib\libpic32.a(vector24.o)
 .reginfo       0x00000000       0x18 c:/program files (x86)/microchip/xc32/v2.30/bin/bin/../../lib/gcc/pic32mx/4.8.3/../../../../pic32mx/lib\libpic32.a(vector25.o)
 .reginfo       0x00000000       0x18 c:/program files (x86)/microchip/xc32/v2.30/bin/bin/../../lib/gcc/pic32mx/4.8.3/../../../../pic32mx/lib\libpic32.a(vector26.o)
 .reginfo       0x00000000       0x18 c:/program files (x86)/microchip/xc32/v2.30/bin/bin/../../lib/gcc/pic32mx/4.8.3/../../../../pic32mx/lib\libpic32.a(vector27.o)
 .reginfo       0x00000000       0x18 c:/program files (x86)/microchip/xc32/v2.30/bin/bin/../../lib/gcc/pic32mx/4.8.3/../../../../pic32mx/lib\libpic32.a(vector28.o)
 .reginfo       0x00000000       0x18 c:/program files (x86)/microchip/xc32/v2.30/bin/bin/../../lib/gcc/pic32mx/4.8.3/../../../../pic32mx/lib\libpic32.a(vector29.o)
 .reginfo       0x00000000       0x18 c:/program files (x86)/microchip/xc32/v2.30/bin/bin/../../lib/gcc/pic32mx/4.8.3/../../../../pic32mx/lib\libpic32.a(vector30.o)
 .reginfo       0x00000000       0x18 c:/program files (x86)/microchip/xc32/v2.30/bin/bin/../../lib/gcc/pic32mx/4.8.3/../../../../pic32mx/lib\libpic32.a(vector31.o)
 .reginfo       0x00000000       0x18 c:/program files (x86)/microchip/xc32/v2.30/bin/bin/../../lib/gcc/pic32mx/4.8.3/../../../../pic32mx/lib\libpic32.a(vector32.o)
 .reginfo       0x00000000       0x18 c:/program files (x86)/microchip/xc32/v2.30/bin/bin/../../lib/gcc/pic32mx/4.8.3/../../../../pic32mx/lib\libpic32.a(vector33.o)
 .reginfo       0x00000000       0x18 c:/program files (x86)/microchip/xc32/v2.30/bin/bin/../../lib/gcc/pic32mx/4.8.3/../../../../pic32mx/lib\libpic32.a(vector34.o)
 .reginfo       0x00000000       0x18 c:/program files (x86)/microchip/xc32/v2.30/bin/bin/../../lib/gcc/pic32mx/4.8.3/../../../../pic32mx/lib\libpic32.a(vector35.o)
 .reginfo       0x00000000       0x18 c:/program files (x86)/microchip/xc32/v2.30/bin/bin/../../lib/gcc/pic32mx/4.8.3/../../../../pic32mx/lib\libpic32.a(vector36.o)
 .reginfo       0x00000000       0x18 c:/program files (x86)/microchip/xc32/v2.30/bin/bin/../../lib/gcc/pic32mx/4.8.3/../../../../pic32mx/lib\libpic32.a(vector37.o)
 .reginfo       0x00000000       0x18 c:/program files (x86)/microchip/xc32/v2.30/bin/bin/../../lib/gcc/pic32mx/4.8.3/../../../../pic32mx/lib\libpic32.a(vector38.o)
 .reginfo       0x00000000       0x18 c:/program files (x86)/microchip/xc32/v2.30/bin/bin/../../lib/gcc/pic32mx/4.8.3/../../../../pic32mx/lib\libpic32.a(vector39.o)
 .reginfo       0x00000000       0x18 c:/program files (x86)/microchip/xc32/v2.30/bin/bin/../../lib/gcc/pic32mx/4.8.3/../../../../pic32mx/lib\libpic32.a(vector40.o)
 .reginfo       0x00000000       0x18 c:/program files (x86)/microchip/xc32/v2.30/bin/bin/../../lib/gcc/pic32mx/4.8.3/../../../../pic32mx/lib\libpic32.a(vector41.o)
 .reginfo       0x00000000       0x18 c:/program files (x86)/microchip/xc32/v2.30/bin/bin/../../lib/gcc/pic32mx/4.8.3/../../../../pic32mx/lib\libpic32.a(vector42.o)
 .reginfo       0x00000000       0x18 c:/program files (x86)/microchip/xc32/v2.30/bin/bin/../../lib/gcc/pic32mx/4.8.3/../../../../pic32mx/lib\libpic32.a(vector43.o)
 .reginfo       0x00000000       0x18 c:/program files (x86)/microchip/xc32/v2.30/bin/bin/../../lib/gcc/pic32mx/4.8.3/../../../../pic32mx/lib\libpic32.a(vector44.o)
 .reginfo       0x00000000       0x18 c:/program files (x86)/microchip/xc32/v2.30/bin/bin/../../lib/gcc/pic32mx/4.8.3/../../../../pic32mx/lib\libpic32.a(vector45.o)
 .reginfo       0x00000000       0x18 c:/program files (x86)/microchip/xc32/v2.30/bin/bin/../../lib/gcc/pic32mx/4.8.3/../../../../pic32mx/lib\libpic32.a(default-general-exception-handler.o)
 .reginfo       0x00000000       0x18 c:/program files (x86)/microchip/xc32/v2.30/bin/bin/../../lib/gcc/pic32mx/4.8.3/../../../../pic32mx/lib\libpic32.a(defaultinterrupt.o)
 .reginfo       0x00000000       0x18 c:/program files (x86)/microchip/xc32/v2.30/bin/bin/../../lib/gcc/pic32mx/4.8.3/../../../../pic32mx/lib\libc.a(strncpy.o)
 .reginfo       0x00000000       0x18 c:/program files (x86)/microchip/xc32/v2.30/bin/bin/../../lib/gcc/pic32mx/4.8.3/../../../../pic32mx/lib\libc.a(sprintf_cdnopsuxX.eo)
 .reginfo       0x00000000       0x18 c:/program files (x86)/microchip/xc32/v2.30/bin/bin/../../lib/gcc/pic32mx/4.8.3/../../../../pic32mx/lib\libc.a(doprnt_cdnopsuxX.eo)
 .reginfo       0x00000000       0x18 c:/program files (x86)/microchip/xc32/v2.30/bin/bin/../../lib/gcc/pic32mx/4.8.3/../../../../pic32mx/lib\libc.a(_fputc_simple.o)
 .reginfo       0x00000000       0x18 c:/program files (x86)/microchip/xc32/v2.30/bin/bin/../../lib/gcc/pic32mx/4.8.3/../../../../pic32mx/lib\libc.a(ctype.o)
 .reginfo       0x00000000       0x18 c:/program files (x86)/microchip/xc32/v2.30/bin/bin/../../lib/gcc/pic32mx/4.8.3/../../../../pic32mx/lib\libc.a(_iob.o)
 .reginfo       0x00000000       0x18 c:/program files (x86)/microchip/xc32/v2.30/bin/bin/../../lib/gcc/pic32mx/4.8.3/../../../../pic32mx/lib\libc.a(_flsbuf_simple.o)
 .reginfo       0x00000000       0x18 c:/program files (x86)/microchip/xc32/v2.30/bin/bin/../../lib/gcc/pic32mx/4.8.3/../../../../pic32mx/lib\libpic32.a(write.o)
 .reginfo       0x00000000       0x18 c:/program files (x86)/microchip/xc32/v2.30/bin/bin/../../lib/gcc/pic32mx/4.8.3/../../../../pic32mx/lib\libpic32.a(_mon_putc.o)
 .reginfo       0x00000000       0x18 c:/program files (x86)/microchip/xc32/v2.30/bin/bin/../../lib/gcc/pic32mx/4.8.3/../../../../pic32mx/lib\libpic32.a(xc32_uart.o)

Memory Configuration

Name             Origin             Length             Attributes
kseg0_program_mem 0x9d000000         0x00010000         xr
kseg0_boot_mem   0x9fc00490         0x00000000
exception_mem    0x9fc01000         0x00001000
kseg1_boot_mem   0xbfc00000         0x00000490
debug_exec_mem   0xbfc02000         0x00000ff0
config3          0xbfc02ff0         0x00000004
config2          0xbfc02ff4         0x00000004
config1          0xbfc02ff8         0x00000004
config0          0xbfc02ffc         0x00000004
kseg1_data_mem   0xa0000000         0x00008000         w !x
sfrs             0xbf800000         0x00100000
configsfrs       0xbfc02ff0         0x00000010
*default*        0x00000000         0xffffffff

Linker script and memory map

LOAD c:/program files (x86)/microchip/xc32/v2.30/bin/bin/../../lib/gcc/pic32mx/4.8.3/../../../../pic32mx/lib\debug-exception-return.o
LOAD build/default/production/_ext/659867239/daylight.o
LOAD build/default/production/_ext/659867239/rtc.o
LOAD build/default/production/_ext/659867239/rtcconverter.o
LOAD build/default/production/_ext/1360937237/BootLoader.o
LOAD build/default/production/_ext/1360937237/Framework.o
LOAD build/default/production/_ext/1360937237/NVMem.o
LOAD build/default/production/_ext/1360937237/EthernetTasks.o
LOAD build/default/production/_ext/1360937237/Tick.o
LOAD build/default/production/_ext/1360937237/stack_task.o
LOAD build/default/production/_ext/1360937237/UDP.o
LOAD build/default/production/_ext/1360937237/dhcp_client.o
LOAD build/default/production/_ext/1360937237/ARP.o
LOAD build/default/production/_ext/1360937237/Helpers.o
LOAD build/default/production/_ext/1360937237/dns_client.o
LOAD build/default/production/_ext/1360937237/nbns.o
LOAD build/default/production/_ext/1360937237/drv_wifi_mac.o
LOAD build/default/production/_ext/1360937237/drv_wifi_raw.o
LOAD build/default/production/_ext/1360937237/drv_wifi_com.o
LOAD build/default/production/_ext/1360937237/Delay.o
LOAD build/default/production/_ext/1360937237/drv_wifi_eint.o
LOAD build/default/production/_ext/1360937237/drv_wifi_debug_strings.o
LOAD build/default/production/_ext/1360937237/drv_wifi_spi.o
LOAD build/default/production/_ext/1360937237/drv_wifi_power_save.o
LOAD build/default/production/_ext/1360937237/announce.o
LOAD build/default/production/_ext/1360937237/drv_wifi_mgmt_msg.o
LOAD build/default/production/_ext/1360937237/drv_wifi_event_handler.o
LOAD build/default/production/_ext/1360937237/drv_wifi_config.o
LOAD build/default/production/_ext/1360937237/drv_wifi_connection_algorithm.o
LOAD build/default/production/_ext/1360937237/drv_wifi_connection_manager.o
LOAD build/default/production/_ext/1360937237/drv_wifi_pbkdf2.o
LOAD build/default/production/_ext/1360937237/drv_wifi_init.o
LOAD build/default/production/_ext/1360937237/drv_wifi_param_msg.o
LOAD build/default/production/_ext/1360937237/IP.o
LOAD build/default/production/_ext/1360937237/icmp.o
LOAD build/default/production/_ext/1360937237/tcp.o
LOAD build/default/production/_ext/1360937237/uart.o
LOAD build/default/production/_ext/1360937237/drv_wifi_connection_profile.o
LOAD build/default/production/_ext/252762716/sntp.o
LOAD build/default/production/_ext/252762716/ssl.o
LOAD build/default/production/_ext/252762716/random.o
LOAD build/default/production/_ext/252762716/hashes.o
LOAD build/default/production/_ext/252762716/rsa.o
LOAD build/default/production/_ext/252762716/big_int.o
LOAD build/default/production/_ext/1360937237/big_int_helper_pic32.o
LOAD build/default/production/_ext/252762716/custom_ssl_cert.o
LOAD build/default/production/_ext/252762716/arc4.o
LOAD build/default/production/_ext/1360937237/smtp.o
LOAD build/default/production/_ext/1360937237/smtp_demo.o
LOAD build/default/production/_ext/252762716/http2.o
LOAD build/default/production/_ext/252762716/mpfs2.o
LOAD build/default/production/_ext/252762716/custom_http_app.o
LOAD build/default/production/_ext/252762716/mpfs_img2.o
                0x00000001                __MPLAB_BUILD = 0x1
                0x00000400                PROVIDE (_min_stack_size, 0x400)
LOAD c:/program files (x86)/microchip/xc32/v2.30/bin/bin/../../lib/gcc/pic32mx/4.8.3/../../../../pic32mx/lib/./proc/32MX440F256H\processor.o
START GROUP
LOAD c:/program files (x86)/microchip/xc32/v2.30/bin/bin/../../lib/gcc/pic32mx/4.8.3/../../../../pic32mx/lib\libmchp_peripheral.a
END GROUP
START GROUP
LOAD c:/program files (x86)/microchip/xc32/v2.30/bin/bin/../../lib/gcc/pic32mx/4.8.3/../../../../pic32mx/lib\libmchp_peripheral_32MX440F256H.a
END GROUP
                0x00000001                PROVIDE (_vector_spacing, 0x1)
                0x9fc01000                _ebase_address = 0x9fc01000
                0xbfc00000                _RESET_ADDR = 0xbfc00000
                0xbfc00380                _BEV_EXCPT_ADDR = 0xbfc00380
                0xbfc00480                _DBG_EXCPT_ADDR = 0xbfc00480
                0xbfc02000                _DBG_CODE_ADDR = 0xbfc02000
                0x00000ff0                _DBG_CODE_SIZE = 0xff0
                0x9fc01180                _GEN_EXCPT_ADDR = (_ebase_address + 0x180)

.config_BFC02FF0
 *(.config_BFC02FF0)

.config_BFC02FF4
                0xbfc02ff4        0x4
 *(.config_BFC02FF4)
 .config_BFC02FF4
                0xbfc02ff4        0x4 build/default/production/_ext/1360937237/BootLoader.o

.config_BFC02FF8
                0xbfc02ff8        0x4
 *(.config_BFC02FF8)
 .config_BFC02FF8
                0xbfc02ff8        0x4 build/default/production/_ext/1360937237/BootLoader.o

.config_BFC02FFC
                0xbfc02ffc        0x4
 *(.config_BFC02FFC)
 .config_BFC02FFC
                0xbfc02ffc        0x4 build/default/production/_ext/1360937237/BootLoader.o
                0xbfc02000                PROVIDE (_DBG_CODE_ADDR, 0xbfc02000)
                0x00000ff0                PROVIDE (_DBG_CODE_SIZE, 0xff0)

.reset          0xbfc00000      0x19c
 *(.reset)
 .reset         0xbfc00000        0x8 C:\Users\kyrk\AppData\Local\Temp\cciFSByj.o
                0xbfc00000                _reset
 *(.reset.startup)
 .reset.startup
                0xbfc00008      0x194 C:\Users\kyrk\AppData\Local\Temp\cciFSByj.o
                0xbfc00008                _startup

.bev_excpt      0xbfc00380       0x10
 *(.bev_handler)
 .bev_handler   0xbfc00380       0x10 C:\Users\kyrk\AppData\Local\Temp\cciFSByj.o

.dbg_excpt      0xbfc00480        0x0
                0xbfc00480                . = (. + DEFINED (_DEBUGGER)?0x8:0x0)

.dbg_code       0xbfc02000        0x0
                0xbfc02000                . = (. + DEFINED (_DEBUGGER)?_DBG_CODE_SIZE:0x0)

.app_excpt      0x9fc01180       0x10
 *(.gen_handler)
 .gen_handler   0x9fc01180       0x10 C:\Users\kyrk\AppData\Local\Temp\cciFSByj.o

.vector_0       0x9fc01200        0x8
 *(.vector_0)
 .vector_0      0x9fc01200        0x8 c:/program files (x86)/microchip/xc32/v2.30/bin/bin/../../lib/gcc/pic32mx/4.8.3/../../../../pic32mx/lib\libpic32.a(vector0.o)
                0x9fc01200                __vector_dispatch_0
                0x00000001                ASSERT (((_vector_spacing == 0x0) || (SIZEOF (.vector_0) <= (_vector_spacing << 0x5))), function at exception vector 0 too large)

.vector_1       0x9fc01220        0x8
 *(.vector_1)
 .vector_1      0x9fc01220        0x8 c:/program files (x86)/microchip/xc32/v2.30/bin/bin/../../lib/gcc/pic32mx/4.8.3/../../../../pic32mx/lib\libpic32.a(vector1.o)
                0x9fc01220                __vector_dispatch_1
                0x00000001                ASSERT (((_vector_spacing == 0x0) || (SIZEOF (.vector_1) <= (_vector_spacing << 0x5))), function at exception vector 1 too large)

.vector_2       0x9fc01240        0x8
 *(.vector_2)
 .vector_2      0x9fc01240        0x8 c:/program files (x86)/microchip/xc32/v2.30/bin/bin/../../lib/gcc/pic32mx/4.8.3/../../../../pic32mx/lib\libpic32.a(vector2.o)
                0x9fc01240                __vector_dispatch_2
                0x00000001                ASSERT (((_vector_spacing == 0x0) || (SIZEOF (.vector_2) <= (_vector_spacing << 0x5))), function at exception vector 2 too large)

.vector_3       0x9fc01260        0x8
 *(.vector_3)
 .vector_3      0x9fc01260        0x8 c:/program files (x86)/microchip/xc32/v2.30/bin/bin/../../lib/gcc/pic32mx/4.8.3/../../../../pic32mx/lib\libpic32.a(vector3.o)
                0x9fc01260                __vector_dispatch_3
                0x00000001                ASSERT (((_vector_spacing == 0x0) || (SIZEOF (.vector_3) <= (_vector_spacing << 0x5))), function at exception vector 3 too large)

.vector_4       0x9fc01280        0x8
 *(.vector_4)
 .vector_4      0x9fc01280        0x8 build/default/production/_ext/1360937237/Tick.o
                0x9fc01280                __vector_dispatch_4
                0x00000001                ASSERT (((_vector_spacing == 0x0) || (SIZEOF (.vector_4) <= (_vector_spacing << 0x5))), function at exception vector 4 too large)

.vector_5       0x9fc012a0        0x8
 *(.vector_5)
 .vector_5      0x9fc012a0        0x8 c:/program files (x86)/microchip/xc32/v2.30/bin/bin/../../lib/gcc/pic32mx/4.8.3/../../../../pic32mx/lib\libpic32.a(vector5.o)
                0x9fc012a0                __vector_dispatch_5
                0x00000001                ASSERT (((_vector_spacing == 0x0) || (SIZEOF (.vector_5) <= (_vector_spacing << 0x5))), function at exception vector 5 too large)

.vector_6       0x9fc012c0        0x8
 *(.vector_6)
 .vector_6      0x9fc012c0        0x8 c:/program files (x86)/microchip/xc32/v2.30/bin/bin/../../lib/gcc/pic32mx/4.8.3/../../../../pic32mx/lib\libpic32.a(vector6.o)
                0x9fc012c0                __vector_dispatch_6
                0x00000001                ASSERT (((_vector_spacing == 0x0) || (SIZEOF (.vector_6) <= (_vector_spacing << 0x5))), function at exception vector 6 too large)

.vector_7       0x9fc012e0        0x8
 *(.vector_7)
 .vector_7      0x9fc012e0        0x8 c:/program files (x86)/microchip/xc32/v2.30/bin/bin/../../lib/gcc/pic32mx/4.8.3/../../../../pic32mx/lib\libpic32.a(vector7.o)
                0x9fc012e0                __vector_dispatch_7
                0x00000001                ASSERT (((_vector_spacing == 0x0) || (SIZEOF (.vector_7) <= (_vector_spacing << 0x5))), function at exception vector 7 too large)

.vector_8       0x9fc01300        0x8
 *(.vector_8)
 .vector_8      0x9fc01300        0x8 c:/program files (x86)/microchip/xc32/v2.30/bin/bin/../../lib/gcc/pic32mx/4.8.3/../../../../pic32mx/lib\libpic32.a(vector8.o)
                0x9fc01300                __vector_dispatch_8
                0x00000001                ASSERT (((_vector_spacing == 0x0) || (SIZEOF (.vector_8) <= (_vector_spacing << 0x5))), function at exception vector 8 too large)

.vector_9       0x9fc01320        0x8
 *(.vector_9)
 .vector_9      0x9fc01320        0x8 c:/program files (x86)/microchip/xc32/v2.30/bin/bin/../../lib/gcc/pic32mx/4.8.3/../../../../pic32mx/lib\libpic32.a(vector9.o)
                0x9fc01320                __vector_dispatch_9
                0x00000001                ASSERT (((_vector_spacing == 0x0) || (SIZEOF (.vector_9) <= (_vector_spacing << 0x5))), function at exception vector 9 too large)

.vector_10      0x9fc01340        0x8
 *(.vector_10)
 .vector_10     0x9fc01340        0x8 c:/program files (x86)/microchip/xc32/v2.30/bin/bin/../../lib/gcc/pic32mx/4.8.3/../../../../pic32mx/lib\libpic32.a(vector10.o)
                0x9fc01340                __vector_dispatch_10
                0x00000001                ASSERT (((_vector_spacing == 0x0) || (SIZEOF (.vector_10) <= (_vector_spacing << 0x5))), function at exception vector 10 too large)

.vector_11      0x9fc01360        0x8
 *(.vector_11)
 .vector_11     0x9fc01360        0x8 c:/program files (x86)/microchip/xc32/v2.30/bin/bin/../../lib/gcc/pic32mx/4.8.3/../../../../pic32mx/lib\libpic32.a(vector11.o)
                0x9fc01360                __vector_dispatch_11
                0x00000001                ASSERT (((_vector_spacing == 0x0) || (SIZEOF (.vector_11) <= (_vector_spacing << 0x5))), function at exception vector 11 too large)

.vector_12      0x9fc01380        0x8
 *(.vector_12)
 .vector_12     0x9fc01380        0x8 c:/program files (x86)/microchip/xc32/v2.30/bin/bin/../../lib/gcc/pic32mx/4.8.3/../../../../pic32mx/lib\libpic32.a(vector12.o)
                0x9fc01380                __vector_dispatch_12
                0x00000001                ASSERT (((_vector_spacing == 0x0) || (SIZEOF (.vector_12) <= (_vector_spacing << 0x5))), function at exception vector 12 too large)

.vector_13      0x9fc013a0        0x8
 *(.vector_13)
 .vector_13     0x9fc013a0        0x8 c:/program files (x86)/microchip/xc32/v2.30/bin/bin/../../lib/gcc/pic32mx/4.8.3/../../../../pic32mx/lib\libpic32.a(vector13.o)
                0x9fc013a0                __vector_dispatch_13
                0x00000001                ASSERT (((_vector_spacing == 0x0) || (SIZEOF (.vector_13) <= (_vector_spacing << 0x5))), function at exception vector 13 too large)

.vector_14      0x9fc013c0        0x8
 *(.vector_14)
 .vector_14     0x9fc013c0        0x8 c:/program files (x86)/microchip/xc32/v2.30/bin/bin/../../lib/gcc/pic32mx/4.8.3/../../../../pic32mx/lib\libpic32.a(vector14.o)
                0x9fc013c0                __vector_dispatch_14
                0x00000001                ASSERT (((_vector_spacing == 0x0) || (SIZEOF (.vector_14) <= (_vector_spacing << 0x5))), function at exception vector 14 too large)

.vector_15      0x9fc013e0        0x8
 *(.vector_15)
 .vector_15     0x9fc013e0        0x8 build/default/production/_ext/1360937237/drv_wifi_eint.o
                0x9fc013e0                __vector_dispatch_15
                0x00000001                ASSERT (((_vector_spacing == 0x0) || (SIZEOF (.vector_15) <= (_vector_spacing << 0x5))), function at exception vector 15 too large)

.vector_16      0x9fc01400        0x8
 *(.vector_16)
 .vector_16     0x9fc01400        0x8 c:/program files (x86)/microchip/xc32/v2.30/bin/bin/../../lib/gcc/pic32mx/4.8.3/../../../../pic32mx/lib\libpic32.a(vector16.o)
                0x9fc01400                __vector_dispatch_16
                0x00000001                ASSERT (((_vector_spacing == 0x0) || (SIZEOF (.vector_16) <= (_vector_spacing << 0x5))), function at exception vector 16 too large)

.vector_17      0x9fc01420        0x8
 *(.vector_17)
 .vector_17     0x9fc01420        0x8 c:/program files (x86)/microchip/xc32/v2.30/bin/bin/../../lib/gcc/pic32mx/4.8.3/../../../../pic32mx/lib\libpic32.a(vector17.o)
                0x9fc01420                __vector_dispatch_17
                0x00000001                ASSERT (((_vector_spacing == 0x0) || (SIZEOF (.vector_17) <= (_vector_spacing << 0x5))), function at exception vector 17 too large)

.vector_18      0x9fc01440        0x8
 *(.vector_18)
 .vector_18     0x9fc01440        0x8 c:/program files (x86)/microchip/xc32/v2.30/bin/bin/../../lib/gcc/pic32mx/4.8.3/../../../../pic32mx/lib\libpic32.a(vector18.o)
                0x9fc01440                __vector_dispatch_18
                0x00000001                ASSERT (((_vector_spacing == 0x0) || (SIZEOF (.vector_18) <= (_vector_spacing << 0x5))), function at exception vector 18 too large)

.vector_19      0x9fc01460        0x8
 *(.vector_19)
 .vector_19     0x9fc01460        0x8 c:/program files (x86)/microchip/xc32/v2.30/bin/bin/../../lib/gcc/pic32mx/4.8.3/../../../../pic32mx/lib\libpic32.a(vector19.o)
                0x9fc01460                __vector_dispatch_19
                0x00000001                ASSERT (((_vector_spacing == 0x0) || (SIZEOF (.vector_19) <= (_vector_spacing << 0x5))), function at exception vector 19 too large)

.vector_20      0x9fc01480        0x8
 *(.vector_20)
 .vector_20     0x9fc01480        0x8 c:/program files (x86)/microchip/xc32/v2.30/bin/bin/../../lib/gcc/pic32mx/4.8.3/../../../../pic32mx/lib\libpic32.a(vector20.o)
                0x9fc01480                __vector_dispatch_20
                0x00000001                ASSERT (((_vector_spacing == 0x0) || (SIZEOF (.vector_20) <= (_vector_spacing << 0x5))), function at exception vector 20 too large)

.vector_21      0x9fc014a0        0x8
 *(.vector_21)
 .vector_21     0x9fc014a0        0x8 c:/program files (x86)/microchip/xc32/v2.30/bin/bin/../../lib/gcc/pic32mx/4.8.3/../../../../pic32mx/lib\libpic32.a(vector21.o)
                0x9fc014a0                __vector_dispatch_21
                0x00000001                ASSERT (((_vector_spacing == 0x0) || (SIZEOF (.vector_21) <= (_vector_spacing << 0x5))), function at exception vector 21 too large)

.vector_22      0x9fc014c0        0x8
 *(.vector_22)
 .vector_22     0x9fc014c0        0x8 c:/program files (x86)/microchip/xc32/v2.30/bin/bin/../../lib/gcc/pic32mx/4.8.3/../../../../pic32mx/lib\libpic32.a(vector22.o)
                0x9fc014c0                __vector_dispatch_22
                0x00000001                ASSERT (((_vector_spacing == 0x0) || (SIZEOF (.vector_22) <= (_vector_spacing << 0x5))), function at exception vector 22 too large)

.vector_23      0x9fc014e0        0x8
 *(.vector_23)
 .vector_23     0x9fc014e0        0x8 c:/program files (x86)/microchip/xc32/v2.30/bin/bin/../../lib/gcc/pic32mx/4.8.3/../../../../pic32mx/lib\libpic32.a(vector23.o)
                0x9fc014e0                __vector_dispatch_23
                0x00000001                ASSERT (((_vector_spacing == 0x0) || (SIZEOF (.vector_23) <= (_vector_spacing << 0x5))), function at exception vector 23 too large)

.vector_24      0x9fc01500        0x8
 *(.vector_24)
 .vector_24     0x9fc01500        0x8 c:/program files (x86)/microchip/xc32/v2.30/bin/bin/../../lib/gcc/pic32mx/4.8.3/../../../../pic32mx/lib\libpic32.a(vector24.o)
                0x9fc01500                __vector_dispatch_24
                0x00000001                ASSERT (((_vector_spacing == 0x0) || (SIZEOF (.vector_24) <= (_vector_spacing << 0x5))), function at exception vector 24 too large)

.vector_25      0x9fc01520        0x8
 *(.vector_25)
 .vector_25     0x9fc01520        0x8 c:/program files (x86)/microchip/xc32/v2.30/bin/bin/../../lib/gcc/pic32mx/4.8.3/../../../../pic32mx/lib\libpic32.a(vector25.o)
                0x9fc01520                __vector_dispatch_25
                0x00000001                ASSERT (((_vector_spacing == 0x0) || (SIZEOF (.vector_25) <= (_vector_spacing << 0x5))), function at exception vector 25 too large)

.vector_26      0x9fc01540        0x8
 *(.vector_26)
 .vector_26     0x9fc01540        0x8 c:/program files (x86)/microchip/xc32/v2.30/bin/bin/../../lib/gcc/pic32mx/4.8.3/../../../../pic32mx/lib\libpic32.a(vector26.o)
                0x9fc01540                __vector_dispatch_26
                0x00000001                ASSERT (((_vector_spacing == 0x0) || (SIZEOF (.vector_26) <= (_vector_spacing << 0x5))), function at exception vector 26 too large)

.vector_27      0x9fc01560        0x8
 *(.vector_27)
 .vector_27     0x9fc01560        0x8 c:/program files (x86)/microchip/xc32/v2.30/bin/bin/../../lib/gcc/pic32mx/4.8.3/../../../../pic32mx/lib\libpic32.a(vector27.o)
                0x9fc01560                __vector_dispatch_27
                0x00000001                ASSERT (((_vector_spacing == 0x0) || (SIZEOF (.vector_27) <= (_vector_spacing << 0x5))), function at exception vector 27 too large)

.vector_28      0x9fc01580        0x8
 *(.vector_28)
 .vector_28     0x9fc01580        0x8 c:/program files (x86)/microchip/xc32/v2.30/bin/bin/../../lib/gcc/pic32mx/4.8.3/../../../../pic32mx/lib\libpic32.a(vector28.o)
                0x9fc01580                __vector_dispatch_28
                0x00000001                ASSERT (((_vector_spacing == 0x0) || (SIZEOF (.vector_28) <= (_vector_spacing << 0x5))), function at exception vector 28 too large)

.vector_29      0x9fc015a0        0x8
 *(.vector_29)
 .vector_29     0x9fc015a0        0x8 c:/program files (x86)/microchip/xc32/v2.30/bin/bin/../../lib/gcc/pic32mx/4.8.3/../../../../pic32mx/lib\libpic32.a(vector29.o)
                0x9fc015a0                __vector_dispatch_29
                0x00000001                ASSERT (((_vector_spacing == 0x0) || (SIZEOF (.vector_29) <= (_vector_spacing << 0x5))), function at exception vector 29 too large)

.vector_30      0x9fc015c0        0x8
 *(.vector_30)
 .vector_30     0x9fc015c0        0x8 c:/program files (x86)/microchip/xc32/v2.30/bin/bin/../../lib/gcc/pic32mx/4.8.3/../../../../pic32mx/lib\libpic32.a(vector30.o)
                0x9fc015c0                __vector_dispatch_30
                0x00000001                ASSERT (((_vector_spacing == 0x0) || (SIZEOF (.vector_30) <= (_vector_spacing << 0x5))), function at exception vector 30 too large)

.vector_31      0x9fc015e0        0x8
 *(.vector_31)
 .vector_31     0x9fc015e0        0x8 c:/program files (x86)/microchip/xc32/v2.30/bin/bin/../../lib/gcc/pic32mx/4.8.3/../../../../pic32mx/lib\libpic32.a(vector31.o)
                0x9fc015e0                __vector_dispatch_31
                0x00000001                ASSERT (((_vector_spacing == 0x0) || (SIZEOF (.vector_31) <= (_vector_spacing << 0x5))), function at exception vector 31 too large)

.vector_32      0x9fc01600        0x8
 *(.vector_32)
 .vector_32     0x9fc01600        0x8 c:/program files (x86)/microchip/xc32/v2.30/bin/bin/../../lib/gcc/pic32mx/4.8.3/../../../../pic32mx/lib\libpic32.a(vector32.o)
                0x9fc01600                __vector_dispatch_32
                0x00000001                ASSERT (((_vector_spacing == 0x0) || (SIZEOF (.vector_32) <= (_vector_spacing << 0x5))), function at exception vector 32 too large)

.vector_33      0x9fc01620        0x8
 *(.vector_33)
 .vector_33     0x9fc01620        0x8 c:/program files (x86)/microchip/xc32/v2.30/bin/bin/../../lib/gcc/pic32mx/4.8.3/../../../../pic32mx/lib\libpic32.a(vector33.o)
                0x9fc01620                __vector_dispatch_33
                0x00000001                ASSERT (((_vector_spacing == 0x0) || (SIZEOF (.vector_33) <= (_vector_spacing << 0x5))), function at exception vector 33 too large)

.vector_34      0x9fc01640        0x8
 *(.vector_34)
 .vector_34     0x9fc01640        0x8 c:/program files (x86)/microchip/xc32/v2.30/bin/bin/../../lib/gcc/pic32mx/4.8.3/../../../../pic32mx/lib\libpic32.a(vector34.o)
                0x9fc01640                __vector_dispatch_34
                0x00000001                ASSERT (((_vector_spacing == 0x0) || (SIZEOF (.vector_34) <= (_vector_spacing << 0x5))), function at exception vector 34 too large)

.vector_35      0x9fc01660        0x8
 *(.vector_35)
 .vector_35     0x9fc01660        0x8 c:/program files (x86)/microchip/xc32/v2.30/bin/bin/../../lib/gcc/pic32mx/4.8.3/../../../../pic32mx/lib\libpic32.a(vector35.o)
                0x9fc01660                __vector_dispatch_35
                0x00000001                ASSERT (((_vector_spacing == 0x0) || (SIZEOF (.vector_35) <= (_vector_spacing << 0x5))), function at exception vector 35 too large)

.vector_36      0x9fc01680        0x8
 *(.vector_36)
 .vector_36     0x9fc01680        0x8 c:/program files (x86)/microchip/xc32/v2.30/bin/bin/../../lib/gcc/pic32mx/4.8.3/../../../../pic32mx/lib\libpic32.a(vector36.o)
                0x9fc01680                __vector_dispatch_36
                0x00000001                ASSERT (((_vector_spacing == 0x0) || (SIZEOF (.vector_36) <= (_vector_spacing << 0x5))), function at exception vector 36 too large)

.vector_37      0x9fc016a0        0x8
 *(.vector_37)
 .vector_37     0x9fc016a0        0x8 c:/program files (x86)/microchip/xc32/v2.30/bin/bin/../../lib/gcc/pic32mx/4.8.3/../../../../pic32mx/lib\libpic32.a(vector37.o)
                0x9fc016a0                __vector_dispatch_37
                0x00000001                ASSERT (((_vector_spacing == 0x0) || (SIZEOF (.vector_37) <= (_vector_spacing << 0x5))), function at exception vector 37 too large)

.vector_38      0x9fc016c0        0x8
 *(.vector_38)
 .vector_38     0x9fc016c0        0x8 c:/program files (x86)/microchip/xc32/v2.30/bin/bin/../../lib/gcc/pic32mx/4.8.3/../../../../pic32mx/lib\libpic32.a(vector38.o)
                0x9fc016c0                __vector_dispatch_38
                0x00000001                ASSERT (((_vector_spacing == 0x0) || (SIZEOF (.vector_38) <= (_vector_spacing << 0x5))), function at exception vector 38 too large)

.vector_39      0x9fc016e0        0x8
 *(.vector_39)
 .vector_39     0x9fc016e0        0x8 c:/program files (x86)/microchip/xc32/v2.30/bin/bin/../../lib/gcc/pic32mx/4.8.3/../../../../pic32mx/lib\libpic32.a(vector39.o)
                0x9fc016e0                __vector_dispatch_39
                0x00000001                ASSERT (((_vector_spacing == 0x0) || (SIZEOF (.vector_39) <= (_vector_spacing << 0x5))), function at exception vector 39 too large)

.vector_40      0x9fc01700        0x8
 *(.vector_40)
 .vector_40     0x9fc01700        0x8 c:/program files (x86)/microchip/xc32/v2.30/bin/bin/../../lib/gcc/pic32mx/4.8.3/../../../../pic32mx/lib\libpic32.a(vector40.o)
                0x9fc01700                __vector_dispatch_40
                0x00000001                ASSERT (((_vector_spacing == 0x0) || (SIZEOF (.vector_40) <= (_vector_spacing << 0x5))), function at exception vector 40 too large)

.vector_41      0x9fc01720        0x8
 *(.vector_41)
 .vector_41     0x9fc01720        0x8 c:/program files (x86)/microchip/xc32/v2.30/bin/bin/../../lib/gcc/pic32mx/4.8.3/../../../../pic32mx/lib\libpic32.a(vector41.o)
                0x9fc01720                __vector_dispatch_41
                0x00000001                ASSERT (((_vector_spacing == 0x0) || (SIZEOF (.vector_41) <= (_vector_spacing << 0x5))), function at exception vector 41 too large)

.vector_42      0x9fc01740        0x8
 *(.vector_42)
 .vector_42     0x9fc01740        0x8 c:/program files (x86)/microchip/xc32/v2.30/bin/bin/../../lib/gcc/pic32mx/4.8.3/../../../../pic32mx/lib\libpic32.a(vector42.o)
                0x9fc01740                __vector_dispatch_42
                0x00000001                ASSERT (((_vector_spacing == 0x0) || (SIZEOF (.vector_42) <= (_vector_spacing << 0x5))), function at exception vector 42 too large)

.vector_43      0x9fc01760        0x8
 *(.vector_43)
 .vector_43     0x9fc01760        0x8 c:/program files (x86)/microchip/xc32/v2.30/bin/bin/../../lib/gcc/pic32mx/4.8.3/../../../../pic32mx/lib\libpic32.a(vector43.o)
                0x9fc01760                __vector_dispatch_43
                0x00000001                ASSERT (((_vector_spacing == 0x0) || (SIZEOF (.vector_43) <= (_vector_spacing << 0x5))), function at exception vector 43 too large)

.vector_44      0x9fc01780        0x8
 *(.vector_44)
 .vector_44     0x9fc01780        0x8 c:/program files (x86)/microchip/xc32/v2.30/bin/bin/../../lib/gcc/pic32mx/4.8.3/../../../../pic32mx/lib\libpic32.a(vector44.o)
                0x9fc01780                __vector_dispatch_44
                0x00000001                ASSERT (((_vector_spacing == 0x0) || (SIZEOF (.vector_44) <= (_vector_spacing << 0x5))), function at exception vector 44 too large)

.vector_45      0x9fc017a0        0x8
 *(.vector_45)
 .vector_45     0x9fc017a0        0x8 c:/program files (x86)/microchip/xc32/v2.30/bin/bin/../../lib/gcc/pic32mx/4.8.3/../../../../pic32mx/lib\libpic32.a(vector45.o)
                0x9fc017a0                __vector_dispatch_45
                0x00000001                ASSERT (((_vector_spacing == 0x0) || (SIZEOF (.vector_45) <= (_vector_spacing << 0x5))), function at exception vector 45 too large)

.vector_46      0x9fc017c0        0x0
 *(.vector_46)
                0x00000001                ASSERT (((_vector_spacing == 0x0) || (SIZEOF (.vector_46) <= (_vector_spacing << 0x5))), function at exception vector 46 too large)

.vector_47      0x9fc017e0        0x0
 *(.vector_47)
                0x00000001                ASSERT (((_vector_spacing == 0x0) || (SIZEOF (.vector_47) <= (_vector_spacing << 0x5))), function at exception vector 47 too large)

.vector_48      0x9fc01800        0x0
 *(.vector_48)
                0x00000001                ASSERT (((_vector_spacing == 0x0) || (SIZEOF (.vector_48) <= (_vector_spacing << 0x5))), function at exception vector 48 too large)

.vector_49      0x9fc01820        0x0
 *(.vector_49)
                0x00000001                ASSERT (((_vector_spacing == 0x0) || (SIZEOF (.vector_49) <= (_vector_spacing << 0x5))), function at exception vector 49 too large)

.vector_50      0x9fc01840        0x0
 *(.vector_50)
                0x00000001                ASSERT (((_vector_spacing == 0x0) || (SIZEOF (.vector_50) <= (_vector_spacing << 0x5))), function at exception vector 50 too large)

.vector_51      0x9fc01860        0x0
 *(.vector_51)
                0x00000001                ASSERT (((_vector_spacing == 0x0) || (SIZEOF (.vector_51) <= (_vector_spacing << 0x5))), function at exception vector 51 too large)

.vector_52      0x9fc01880        0x0
 *(.vector_52)
                0x00000001                ASSERT (((_vector_spacing == 0x0) || (SIZEOF (.vector_52) <= (_vector_spacing << 0x5))), function at exception vector 52 too large)

.vector_53      0x9fc018a0        0x0
 *(.vector_53)
                0x00000001                ASSERT (((_vector_spacing == 0x0) || (SIZEOF (.vector_53) <= (_vector_spacing << 0x5))), function at exception vector 53 too large)

.vector_54      0x9fc018c0        0x0
 *(.vector_54)
                0x00000001                ASSERT (((_vector_spacing == 0x0) || (SIZEOF (.vector_54) <= (_vector_spacing << 0x5))), function at exception vector 54 too large)

.vector_55      0x9fc018e0        0x0
 *(.vector_55)
                0x00000001                ASSERT (((_vector_spacing == 0x0) || (SIZEOF (.vector_55) <= (_vector_spacing << 0x5))), function at exception vector 55 too large)

.vector_56      0x9fc01900        0x0
 *(.vector_56)
                0x00000001                ASSERT (((_vector_spacing == 0x0) || (SIZEOF (.vector_56) <= (_vector_spacing << 0x5))), function at exception vector 56 too large)

.vector_57      0x9fc01920        0x0
 *(.vector_57)
                0x00000001                ASSERT (((_vector_spacing == 0x0) || (SIZEOF (.vector_57) <= (_vector_spacing << 0x5))), function at exception vector 57 too large)

.vector_58      0x9fc01940        0x0
 *(.vector_58)
                0x00000001                ASSERT (((_vector_spacing == 0x0) || (SIZEOF (.vector_58) <= (_vector_spacing << 0x5))), function at exception vector 58 too large)

.vector_59      0x9fc01960        0x0
 *(.vector_59)
                0x00000001                ASSERT (((_vector_spacing == 0x0) || (SIZEOF (.vector_59) <= (_vector_spacing << 0x5))), function at exception vector 59 too large)

.vector_60      0x9fc01980        0x0
 *(.vector_60)
                0x00000001                ASSERT (((_vector_spacing == 0x0) || (SIZEOF (.vector_60) <= (_vector_spacing << 0x5))), function at exception vector 60 too large)

.vector_61      0x9fc019a0        0x0
 *(.vector_61)
                0x00000001                ASSERT (((_vector_spacing == 0x0) || (SIZEOF (.vector_61) <= (_vector_spacing << 0x5))), function at exception vector 61 too large)

.vector_62      0x9fc019c0        0x0
 *(.vector_62)
                0x00000001                ASSERT (((_vector_spacing == 0x0) || (SIZEOF (.vector_62) <= (_vector_spacing << 0x5))), function at exception vector 62 too large)

.vector_63      0x9fc019e0        0x0
 *(.vector_63)
                0x00000001                ASSERT (((_vector_spacing == 0x0) || (SIZEOF (.vector_63) <= (_vector_spacing << 0x5))), function at exception vector 63 too large)

.startup
 *(.startup)

.text           0x9d000000        0x0
 *(.stub .gnu.linkonce.t.*)
 *(.text.*personality*)
 *(.mips16.fn.*)
 *(.mips16.call.*)
 *(.gnu.warning)
                0x9d000000                . = ALIGN (0x4)

.init           0x9d000000        0x0
 *crti.o(.init)
 *crtbegin.o(.init)
 *(EXCLUDE_FILE(*crtn.o *crtend?.o *crtend.o) .init)
 *crtend.o(.init)
 *crtn.o(.init)
                0x9d000000                . = ALIGN (0x4)

.fini           0x9d000000        0x0
 *(.fini)
                0x9d000000                . = ALIGN (0x4)

.preinit_array  0x9d000000        0x0
                0x9d000000                PROVIDE (__preinit_array_start, .)
 *(.preinit_array)
                0x9d000000                PROVIDE (__preinit_array_end, .)
                0x9d000000                . = ALIGN (0x4)

.init_array     0x9d000000        0x0
                0x9d000000                PROVIDE (__init_array_start, .)
 *(SORT(.init_array.*))
 *(.init_array)
                0x9d000000                PROVIDE (__init_array_end, .)
                0x9d000000                . = ALIGN (0x4)

.fini_array     0x9d000000        0x0
                0x9d000000                PROVIDE (__fini_array_start, .)
 *(SORT(.fini_array.*))
 *(.fini_array)
                0x9d000000                PROVIDE (__fini_array_end, .)
                0x9d000000                . = ALIGN (0x4)

.ctors          0x9d000000        0x0
 *crtbegin.o(.ctors)
 *crtbegin?.o(.ctors)
 *(EXCLUDE_FILE(*crtend?.o *crtend.o) .ctors)
 *(SORT(.ctors.*))
 *(.ctors)
                0x9d000000                . = ALIGN (0x4)

.dtors          0x9d000000        0x0
 *crtbegin.o(.dtors)
 *crtbegin?.o(.dtors)
 *(EXCLUDE_FILE(*crtend?.o *crtend.o) .dtors)
 *(SORT(.dtors.*))
 *(.dtors)
                0x9d000000                . = ALIGN (0x4)

.rodata         0x9d000000        0x0
 *(.gnu.linkonce.r.*)
 *(.rodata1)
                0x9d000000                . = ALIGN (0x4)

.sdata2         0x9fc00490        0x0
 *(.sdata2 .sdata2.* .gnu.linkonce.s2.*)
                0x9fc00490                . = ALIGN (0x4)

.sbss2          0x9fc00490        0x0
 *(.sbss2 .sbss2.* .gnu.linkonce.sb2.*)
                0x9fc00490                . = ALIGN (0x4)

.eh_frame_hdr
 *(.eh_frame_hdr)
                0x9fc00490                . = ALIGN (0x4)

.eh_frame
 *(.eh_frame)
                0x9fc00490                . = ALIGN (0x4)

.gcc_except_table
 *(.gcc_except_table .gcc_except_table.*)
                0x9fc00490                . = ALIGN (0x4)

.dbg_data       0xa0000000        0x0
                0xa0000000                . = (. + DEFINED (_DEBUGGER)?0x200:0x0)

.jcr            0xa0000000        0x0
 *(.jcr)
                0xa0000000                . = ALIGN (0x4)

.eh_frame
 *(.eh_frame)
                0xa0000000                . = ALIGN (0x4)

.gcc_except_table
 *(.gcc_except_table .gcc_except_table.*)
                0xa0000000                . = ALIGN (0x4)

.persist        0xa0000000        0x8
                0xa0000000                _persist_begin = .
 *(.persist .persist.*)
 *(.pbss .pbss.*)
 .pbss          0xa0000000        0x2 build/default/production/_ext/1360937237/UDP.o
 *fill*         0xa0000002        0x2 
 .pbss          0xa0000004        0x4 build/default/production/_ext/1360937237/dns_client.o
                0xa0000008                . = ALIGN (0x4)
                0xa0000008                _persist_end = .

.data           0xa0000008        0x0
 *(.gnu.linkonce.d.*)
 *(.data1)
                0xa0000008                . = ALIGN (0x4)
                0xa0000008                . = .
                0xa0008000                _gp = (ALIGN (0x10) + 0x7ff0)

.got            0xa0000008        0x0
 *(.got.plt)
 *(.got)
                0xa0000008                . = ALIGN (0x4)

.sdata          0xa0000008       0x20
                0xa0000008                _sdata_begin = .
 *(.sdata .sdata.* .gnu.linkonce.s.*)
 .sdata         0xa0000008        0x8 build/default/production/_ext/1360937237/Framework.o
 .sdata         0xa0000010        0x2 build/default/production/_ext/1360937237/EthernetTasks.o
                0xa0000010                serverPort
 .sdata         0xa0000012        0x2 build/default/production/_ext/1360937237/UDP.o
 .sdata         0xa0000014        0x4 build/default/production/_ext/1360937237/Helpers.o
 .sdata         0xa0000018        0x8 build/default/production/_ext/1360937237/dns_client.o
 .sdata         0xa0000020        0x1 build/default/production/_ext/1360937237/drv_wifi_power_save.o
 .sdata         0xa0000021        0x1 build/default/production/_ext/1360937237/drv_wifi_connection_algorithm.o
 .sdata         0xa0000022        0x1 build/default/production/_ext/252762716/sntp.o
 *fill*         0xa0000023        0x1 
 .sdata         0xa0000024        0x4 c:/program files (x86)/microchip/xc32/v2.30/bin/bin/../../lib/gcc/pic32mx/4.8.3/../../../../pic32mx/lib\libpic32.a(xc32_uart.o)
                0xa0000024                __XC_UART
                0xa0000028                . = ALIGN (0x4)
                0xa0000028                _sdata_end = .

.lit8
 *(.lit8)

.lit4
 *(.lit4)
                0xa0000028                . = ALIGN (0x4)
                0xa0000028                _data_end = .
                0xa0000028                _bss_begin = .

.sbss           0xa0000028       0xe0
                0xa0000028                _sbss_begin = .
 *(.dynsbss)
 *(.sbss .sbss.* .gnu.linkonce.sb.*)
 .sbss          0xa0000028        0x8 build/default/production/_ext/659867239/rtc.o
                0xa000002c                do_sec1s
 .sbss          0xa0000030       0x14 build/default/production/_ext/1360937237/Framework.o
                0xa0000034                eraseErrorCounter
                0xa0000038                writeErrorCounter
 .sbss          0xa0000044        0x8 build/default/production/_ext/1360937237/EthernetTasks.o
 *fill*         0xa000004c        0x4 
 .sbss          0xa0000050       0x10 build/default/production/_ext/1360937237/Tick.o
 .sbss          0xa0000060       0x10 build/default/production/_ext/1360937237/stack_task.o
                0xa0000064                g_DhcpRetryTimer
                0xa0000068                g_DhcpRenew
 .sbss          0xa0000070        0x8 build/default/production/_ext/1360937237/UDP.o
 .sbss          0xa0000078        0x1 build/default/production/_ext/1360937237/dhcp_client.o
                0xa0000078                DHCPClientInitializedOnce
 *fill*         0xa0000079        0x3 
 .sbss          0xa000007c        0x4 build/default/production/_ext/1360937237/ARP.o
 .sbss          0xa0000080       0x14 build/default/production/_ext/1360937237/dns_client.o
 .sbss          0xa0000094        0x8 build/default/production/_ext/1360937237/nbns.o
 .sbss          0xa000009c       0x14 build/default/production/_ext/1360937237/drv_wifi_mac.o
 .sbss          0xa00000b0        0x2 build/default/production/_ext/1360937237/drv_wifi_raw.o
                0xa00000b0                gIntDisabled
                0xa00000b1                g_HostRAWDataPacketReceived
 *fill*         0xa00000b2        0x2 
 .sbss          0xa00000b4       0x14 build/default/production/_ext/1360937237/drv_wifi_com.o
                0xa00000b4                g_dhcpInProgress
                0xa00000b5                g_WiFiConnection
                0xa00000b6                g_WiFiConnectionChanged
                0xa00000b7                g_DhcpSuccessful
 .sbss          0xa00000c8        0x1 build/default/production/_ext/1360937237/drv_wifi_spi.o
 .sbss          0xa00000c9        0x3 build/default/production/_ext/1360937237/drv_wifi_power_save.o
 .sbss          0xa00000cc        0x8 build/default/production/_ext/1360937237/announce.o
 .sbss          0xa00000d4        0x4 build/default/production/_ext/1360937237/drv_wifi_mgmt_msg.o
                0xa00000d5                g_WaitingForMgmtResponse
 .sbss          0xa00000d8        0x1 build/default/production/_ext/1360937237/drv_wifi_connection_manager.o
 .sbss          0xa00000d9        0x1 build/default/production/_ext/1360937237/drv_wifi_init.o
                0xa00000d9                gRFModuleVer1209orLater
 .sbss          0xa00000da        0x4 build/default/production/_ext/1360937237/IP.o
 *fill*         0xa00000de        0x2 
 .sbss          0xa00000e0       0x10 build/default/production/_ext/252762716/sntp.o
 *(.scommon)
 .scommon       0xa00000f0        0x2 build/default/production/_ext/1360937237/EthernetTasks.o
                0xa00000f0                udpSkt
                0xa00000f1                ConnectionProfileID
 .scommon       0xa00000f2        0x6 build/default/production/_ext/1360937237/UDP.o
                0xa00000f2                UDPTxCount
                0xa00000f4                activeUDPSocket
                0xa00000f6                UDPRxCount
 .scommon       0xa00000f8        0x1 build/default/production/_ext/1360937237/drv_wifi_mac.o
                0xa00000f8                g_rxIndexSetBeyondBuffer
 *fill*         0xa00000f9        0x3 
 .scommon       0xa00000fc        0x6 build/default/production/_ext/1360937237/drv_wifi_raw.o
                0xa00000fc                RawWindowState
                0xa0000100                RawWindowReady
 *fill*         0xa0000102        0x2 
 .scommon       0xa0000104        0x2 build/default/production/_ext/1360937237/drv_wifi_com.o
                0xa0000104                RawMoveState
 .scommon       0xa0000106        0x1 build/default/production/_ext/1360937237/drv_wifi_power_save.o
                0xa0000106                g_rxDtim
                0xa0000107                _sbss_end = .
                0xa0000108                . = ALIGN (0x4)
 *fill*         0xa0000107        0x1 

.bss            0xa0000108      0x69c
 *(.dynbss)
 *(COMMON)
 COMMON         0xa0000108      0x5af build/default/production/_ext/1360937237/EthernetTasks.o
                0xa0000108                rxData
                0xa00004f0                txData
                0xa00005b8                AppConfig
                0xa0000654                g_WpsPassphrase
 *fill*         0xa00006b7        0x1 
 COMMON         0xa00006b8        0xa build/default/production/_ext/1360937237/stack_task.o
                0xa00006b8                remoteNode
 *fill*         0xa00006c2        0x2 
 COMMON         0xa00006c4       0xe0 build/default/production/_ext/1360937237/UDP.o
                0xa00006c4                UDPSocketInfo
                0xa00007a4                . = ALIGN ((. != 0x0)?0x4:0x1)
                0xa00007a4                . = ALIGN (0x4)
                0xa00007a4                _end = .
                0xa00007a4                _bss_end = .
                0x00008000                _bmxdudba_address = 0x8000
                0x00008000                _bmxdupba_address = 0x8000

/DISCARD/
 *(.pdr)
 *(.rel.dyn)
 *(.note.GNU-stack)
 *(.note.GNU-stack)
 *(.gnu_debuglink)
 *(.gnu.lto_*)
 *(.discard)

.gptab.sdata
 *(.gptab.data)
 *(.gptab.sdata)

.gptab.sbss
 *(.gptab.bss)
 *(.gptab.sbss)

.mdebug.abi32   0xa00007a4        0x0
 *(.mdebug.abi32)
 .mdebug.abi32  0xa00007a4        0x0 build/default/production/_ext/659867239/daylight.o
 .mdebug.abi32  0xa00007a4        0x0 build/default/production/_ext/659867239/rtc.o
 .mdebug.abi32  0xa00007a4        0x0 build/default/production/_ext/659867239/rtcconverter.o
 .mdebug.abi32  0xa00007a4        0x0 build/default/production/_ext/1360937237/BootLoader.o
 .mdebug.abi32  0xa00007a4        0x0 build/default/production/_ext/1360937237/Framework.o
 .mdebug.abi32  0xa00007a4        0x0 build/default/production/_ext/1360937237/NVMem.o
 .mdebug.abi32  0xa00007a4        0x0 build/default/production/_ext/1360937237/EthernetTasks.o
 .mdebug.abi32  0xa00007a4        0x0 build/default/production/_ext/1360937237/Tick.o
 .mdebug.abi32  0xa00007a4        0x0 build/default/production/_ext/1360937237/stack_task.o
 .mdebug.abi32  0xa00007a4        0x0 build/default/production/_ext/1360937237/UDP.o
 .mdebug.abi32  0xa00007a4        0x0 build/default/production/_ext/1360937237/dhcp_client.o
 .mdebug.abi32  0xa00007a4        0x0 build/default/production/_ext/1360937237/ARP.o
 .mdebug.abi32  0xa00007a4        0x0 build/default/production/_ext/1360937237/Helpers.o
 .mdebug.abi32  0xa00007a4        0x0 build/default/production/_ext/1360937237/dns_client.o
 .mdebug.abi32  0xa00007a4        0x0 build/default/production/_ext/1360937237/nbns.o
 .mdebug.abi32  0xa00007a4        0x0 build/default/production/_ext/1360937237/drv_wifi_mac.o
 .mdebug.abi32  0xa00007a4        0x0 build/default/production/_ext/1360937237/drv_wifi_raw.o
 .mdebug.abi32  0xa00007a4        0x0 build/default/production/_ext/1360937237/drv_wifi_com.o
 .mdebug.abi32  0xa00007a4        0x0 build/default/production/_ext/1360937237/Delay.o
 .mdebug.abi32  0xa00007a4        0x0 build/default/production/_ext/1360937237/drv_wifi_eint.o
 .mdebug.abi32  0xa00007a4        0x0 build/default/production/_ext/1360937237/drv_wifi_debug_strings.o
 .mdebug.abi32  0xa00007a4        0x0 build/default/production/_ext/1360937237/drv_wifi_spi.o
 .mdebug.abi32  0xa00007a4        0x0 build/default/production/_ext/1360937237/drv_wifi_power_save.o
 .mdebug.abi32  0xa00007a4        0x0 build/default/production/_ext/1360937237/announce.o
 .mdebug.abi32  0xa00007a4        0x0 build/default/production/_ext/1360937237/drv_wifi_mgmt_msg.o
 .mdebug.abi32  0xa00007a4        0x0 build/default/production/_ext/1360937237/drv_wifi_event_handler.o
 .mdebug.abi32  0xa00007a4        0x0 build/default/production/_ext/1360937237/drv_wifi_config.o
 .mdebug.abi32  0xa00007a4        0x0 build/default/production/_ext/1360937237/drv_wifi_connection_algorithm.o
 .mdebug.abi32  0xa00007a4        0x0 build/default/production/_ext/1360937237/drv_wifi_connection_manager.o
 .mdebug.abi32  0xa00007a4        0x0 build/default/production/_ext/1360937237/drv_wifi_pbkdf2.o
 .mdebug.abi32  0xa00007a4        0x0 build/default/production/_ext/1360937237/drv_wifi_init.o
 .mdebug.abi32  0xa00007a4        0x0 build/default/production/_ext/1360937237/drv_wifi_param_msg.o
 .mdebug.abi32  0xa00007a4        0x0 build/default/production/_ext/1360937237/IP.o
 .mdebug.abi32  0xa00007a4        0x0 build/default/production/_ext/1360937237/icmp.o
 .mdebug.abi32  0xa00007a4        0x0 build/default/production/_ext/1360937237/tcp.o
 .mdebug.abi32  0xa00007a4        0x0 build/default/production/_ext/1360937237/uart.o
 .mdebug.abi32  0xa00007a4        0x0 build/default/production/_ext/1360937237/drv_wifi_connection_profile.o
 .mdebug.abi32  0xa00007a4        0x0 build/default/production/_ext/252762716/sntp.o
 .mdebug.abi32  0xa00007a4        0x0 build/default/production/_ext/252762716/ssl.o
 .mdebug.abi32  0xa00007a4        0x0 build/default/production/_ext/252762716/random.o
 .mdebug.abi32  0xa00007a4        0x0 build/default/production/_ext/252762716/hashes.o
 .mdebug.abi32  0xa00007a4        0x0 build/default/production/_ext/252762716/rsa.o
 .mdebug.abi32  0xa00007a4        0x0 build/default/production/_ext/252762716/big_int.o
 .mdebug.abi32  0xa00007a4        0x0 build/default/production/_ext/252762716/custom_ssl_cert.o
 .mdebug.abi32  0xa00007a4        0x0 build/default/production/_ext/252762716/arc4.o
 .mdebug.abi32  0xa00007a4        0x0 build/default/production/_ext/1360937237/smtp.o
 .mdebug.abi32  0xa00007a4        0x0 build/default/production/_ext/1360937237/smtp_demo.o
 .mdebug.abi32  0xa00007a4        0x0 build/default/production/_ext/252762716/http2.o
 .mdebug.abi32  0xa00007a4        0x0 build/default/production/_ext/252762716/mpfs2.o
 .mdebug.abi32  0xa00007a4        0x0 build/default/production/_ext/252762716/custom_http_app.o
 .mdebug.abi32  0xa00007a4        0x0 build/default/production/_ext/252762716/mpfs_img2.o
 .mdebug.abi32  0xa00007a4        0x0 c:/program files (x86)/microchip/xc32/v2.30/bin/bin/../../lib/gcc/pic32mx/4.8.3/../../../../pic32mx/lib\libmchp_peripheral.a(read_core_timer_lib.o)
 .mdebug.abi32  0xa00007a4        0x0 c:/program files (x86)/microchip/xc32/v2.30/bin/bin/../../lib/gcc/pic32mx/4.8.3/../../../../pic32mx/lib\libmchp_peripheral.a(write_core_timer_lib.o)
 .mdebug.abi32  0xa00007a4        0x0 c:/program files (x86)/microchip/xc32/v2.30/bin/bin/../../lib/gcc/pic32mx/4.8.3/../../../../pic32mx/lib\libmchp_peripheral_32MX440F256H.a(pcache.o)
 .mdebug.abi32  0xa00007a4        0x0 c:/program files (x86)/microchip/xc32/v2.30/bin/bin/../../lib/gcc/pic32mx/4.8.3/../../../../pic32mx/lib\libmchp_peripheral_32MX440F256H.a(int_disable_interrupts_lib.o)
 .mdebug.abi32  0xa00007a4        0x0 c:/program files (x86)/microchip/xc32/v2.30/bin/bin/../../lib/gcc/pic32mx/4.8.3/../../../../pic32mx/lib\libmchp_peripheral_32MX440F256H.a(int_restore_interrupts_lib.o)
 .mdebug.abi32  0xa00007a4        0x0 c:/program files (x86)/microchip/xc32/v2.30/bin/bin/../../lib/gcc/pic32mx/4.8.3/../../../../pic32mx/lib\libmchp_peripheral_32MX440F256H.a(int_enable_mv_int_lib.o)
 .mdebug.abi32  0xa00007a4        0x0 c:/program files (x86)/microchip/xc32/v2.30/bin/bin/../../lib/gcc/pic32mx/4.8.3/../../../../pic32mx/lib\libmchp_peripheral_32MX440F256H.a(puts_uartx_lib_legacy.o)
 .mdebug.abi32  0xa00007a4        0x0 c:/program files (x86)/microchip/xc32/v2.30/bin/bin/../../lib/gcc/pic32mx/4.8.3/../../../../pic32mx/lib\libmchp_peripheral_32MX440F256H.a(int_enable_interrupts_lib.o)
 .mdebug.abi32  0xa00007a4        0x0 c:/program files (x86)/microchip/xc32/v2.30/bin/bin/../../lib/gcc/pic32mx/4.8.3\libgcc.a(_udivdi3.o)
 .mdebug.abi32  0xa00007a4        0x0 c:/program files (x86)/microchip/xc32/v2.30/bin/bin/../../lib/gcc/pic32mx/4.8.3\libgcc.a(_umoddi3.o)
 .mdebug.abi32  0xa00007a4        0x0 c:/program files (x86)/microchip/xc32/v2.30/bin/bin/../../lib/gcc/pic32mx/4.8.3/../../../../pic32mx/lib\libpic32.a(default-bootstrap-exception-handler.o)
 .mdebug.abi32  0xa00007a4        0x0 c:/program files (x86)/microchip/xc32/v2.30/bin/bin/../../lib/gcc/pic32mx/4.8.3/../../../../pic32mx/lib\libpic32.a(default-on-reset.o)
 .mdebug.abi32  0xa00007a4        0x0 c:/program files (x86)/microchip/xc32/v2.30/bin/bin/../../lib/gcc/pic32mx/4.8.3/../../../../pic32mx/lib\libpic32.a(default-on-bootstrap.o)
 .mdebug.abi32  0xa00007a4        0x0 c:/program files (x86)/microchip/xc32/v2.30/bin/bin/../../lib/gcc/pic32mx/4.8.3/../../../../pic32mx/lib\libpic32.a(default-general-exception-handler.o)
 .mdebug.abi32  0xa00007a4        0x0 c:/program files (x86)/microchip/xc32/v2.30/bin/bin/../../lib/gcc/pic32mx/4.8.3/../../../../pic32mx/lib\libpic32.a(defaultinterrupt.o)
 .mdebug.abi32  0xa00007a4        0x0 c:/program files (x86)/microchip/xc32/v2.30/bin/bin/../../lib/gcc/pic32mx/4.8.3/../../../../pic32mx/lib\libc.a(strncpy.o)
 .mdebug.abi32  0xa00007a4        0x0 c:/program files (x86)/microchip/xc32/v2.30/bin/bin/../../lib/gcc/pic32mx/4.8.3/../../../../pic32mx/lib\libc.a(sprintf_cdnopsuxX.eo)
 .mdebug.abi32  0xa00007a4        0x0 c:/program files (x86)/microchip/xc32/v2.30/bin/bin/../../lib/gcc/pic32mx/4.8.3/../../../../pic32mx/lib\libc.a(doprnt_cdnopsuxX.eo)
 .mdebug.abi32  0xa00007a4        0x0 c:/program files (x86)/microchip/xc32/v2.30/bin/bin/../../lib/gcc/pic32mx/4.8.3/../../../../pic32mx/lib\libc.a(_fputc_simple.o)
 .mdebug.abi32  0xa00007a4        0x0 c:/program files (x86)/microchip/xc32/v2.30/bin/bin/../../lib/gcc/pic32mx/4.8.3/../../../../pic32mx/lib\libc.a(ctype.o)
 .mdebug.abi32  0xa00007a4        0x0 c:/program files (x86)/microchip/xc32/v2.30/bin/bin/../../lib/gcc/pic32mx/4.8.3/../../../../pic32mx/lib\libc.a(_iob.o)
 .mdebug.abi32  0xa00007a4        0x0 c:/program files (x86)/microchip/xc32/v2.30/bin/bin/../../lib/gcc/pic32mx/4.8.3/../../../../pic32mx/lib\libc.a(_flsbuf_simple.o)
 .mdebug.abi32  0xa00007a4        0x0 c:/program files (x86)/microchip/xc32/v2.30/bin/bin/../../lib/gcc/pic32mx/4.8.3/../../../../pic32mx/lib\libpic32.a(write.o)
 .mdebug.abi32  0xa00007a4        0x0 c:/program files (x86)/microchip/xc32/v2.30/bin/bin/../../lib/gcc/pic32mx/4.8.3/../../../../pic32mx/lib\libpic32.a(_mon_putc.o)
 .mdebug.abi32  0xa00007a4        0x0 c:/program files (x86)/microchip/xc32/v2.30/bin/bin/../../lib/gcc/pic32mx/4.8.3/../../../../pic32mx/lib\libpic32.a(xc32_uart.o)

.mdebug.abiN32
 *(.mdebug.abiN32)

.mdebug.abi64
 *(.mdebug.abi64)

.mdebug.abiO64
 *(.mdebug.abiO64)

.mdebug.eabi32
 *(.mdebug.eabi32)

.mdebug.eabi64
 *(.mdebug.eabi64)

.gcc_compiled_long32
 *(.gcc_compiled_long32)

.gcc_compiled_long64
 *(.gcc_compiled_long64)

.stab
 *(.stab)

.stabstr
 *(.stabstr)

.stab.excl
 *(.stab.excl)

.stab.exclstr
 *(.stab.exclstr)

.stab.index
 *(.stab.index)

.stab.indexstr
 *(.stab.indexstr)

.comment        0x00000000      0x128
 *(.comment)
 .comment       0x00000000       0x3c build/default/production/_ext/659867239/daylight.o
                                 0x3d (size before relaxing)
 .comment       0x00000000       0x3d build/default/production/_ext/659867239/rtc.o
 .comment       0x00000000       0x3d build/default/production/_ext/659867239/rtcconverter.o
 .comment       0x00000000       0x3d build/default/production/_ext/1360937237/BootLoader.o
 .comment       0x00000000       0x3d build/default/production/_ext/1360937237/Framework.o
 .comment       0x00000000       0x3d build/default/production/_ext/1360937237/NVMem.o
 .comment       0x00000000       0x3d build/default/production/_ext/1360937237/EthernetTasks.o
 .comment       0x00000000       0x3d build/default/production/_ext/1360937237/Tick.o
 .comment       0x00000000       0x3d build/default/production/_ext/1360937237/stack_task.o
 .comment       0x00000000       0x3d build/default/production/_ext/1360937237/UDP.o
 .comment       0x00000000       0x3d build/default/production/_ext/1360937237/dhcp_client.o
 .comment       0x00000000       0x3d build/default/production/_ext/1360937237/ARP.o
 .comment       0x00000000       0x3d build/default/production/_ext/1360937237/Helpers.o
 .comment       0x00000000       0x3d build/default/production/_ext/1360937237/dns_client.o
 .comment       0x00000000       0x3d build/default/production/_ext/1360937237/nbns.o
 .comment       0x00000000       0x3d build/default/production/_ext/1360937237/drv_wifi_mac.o
 .comment       0x00000000       0x3d build/default/production/_ext/1360937237/drv_wifi_raw.o
 .comment       0x00000000       0x3d build/default/production/_ext/1360937237/drv_wifi_com.o
 .comment       0x00000000       0x3d build/default/production/_ext/1360937237/Delay.o
 .comment       0x00000000       0x3d build/default/production/_ext/1360937237/drv_wifi_eint.o
 .comment       0x00000000       0x3d build/default/production/_ext/1360937237/drv_wifi_debug_strings.o
 .comment       0x00000000       0x3d build/default/production/_ext/1360937237/drv_wifi_spi.o
 .comment       0x00000000       0x3d build/default/production/_ext/1360937237/drv_wifi_power_save.o
 .comment       0x00000000       0x3d build/default/production/_ext/1360937237/announce.o
 .comment       0x00000000       0x3d build/default/production/_ext/1360937237/drv_wifi_mgmt_msg.o
 .comment       0x00000000       0x3d build/default/production/_ext/1360937237/drv_wifi_event_handler.o
 .comment       0x00000000       0x3d build/default/production/_ext/1360937237/drv_wifi_config.o
 .comment       0x00000000       0x3d build/default/production/_ext/1360937237/drv_wifi_connection_algorithm.o
 .comment       0x00000000       0x3d build/default/production/_ext/1360937237/drv_wifi_connection_manager.o
 .comment       0x00000000       0x3d build/default/production/_ext/1360937237/drv_wifi_pbkdf2.o
 .comment       0x00000000       0x3d build/default/production/_ext/1360937237/drv_wifi_init.o
 .comment       0x00000000       0x3d build/default/production/_ext/1360937237/drv_wifi_param_msg.o
 .comment       0x00000000       0x3d build/default/production/_ext/1360937237/IP.o
 .comment       0x00000000       0x3d build/default/production/_ext/1360937237/icmp.o
 .comment       0x00000000       0x3d build/default/production/_ext/1360937237/tcp.o
 .comment       0x00000000       0x3d build/default/production/_ext/1360937237/uart.o
 .comment       0x00000000       0x3d build/default/production/_ext/1360937237/drv_wifi_connection_profile.o
 .comment       0x00000000       0x3d build/default/production/_ext/252762716/sntp.o
 .comment       0x00000000       0x3d build/default/production/_ext/252762716/ssl.o
 .comment       0x00000000       0x3d build/default/production/_ext/252762716/random.o
 .comment       0x00000000       0x3d build/default/production/_ext/252762716/hashes.o
 .comment       0x00000000       0x3d build/default/production/_ext/252762716/rsa.o
 .comment       0x00000000       0x3d build/default/production/_ext/252762716/big_int.o
 .comment       0x00000000       0x3d build/default/production/_ext/252762716/custom_ssl_cert.o
 .comment       0x00000000       0x3d build/default/production/_ext/252762716/arc4.o
 .comment       0x00000000       0x3d build/default/production/_ext/1360937237/smtp.o
 .comment       0x00000000       0x3d build/default/production/_ext/1360937237/smtp_demo.o
 .comment       0x00000000       0x3d build/default/production/_ext/252762716/http2.o
 .comment       0x00000000       0x3d build/default/production/_ext/252762716/mpfs2.o
 .comment       0x00000000       0x3d build/default/production/_ext/252762716/custom_http_app.o
 .comment       0x00000000       0x3d build/default/production/_ext/252762716/mpfs_img2.o
 .comment       0x0000003c       0x3c c:/program files (x86)/microchip/xc32/v2.30/bin/bin/../../lib/gcc/pic32mx/4.8.3/../../../../pic32mx/lib\libmchp_peripheral.a(read_core_timer_lib.o)
                                 0x3d (size before relaxing)
 .comment       0x00000000       0x3d c:/program files (x86)/microchip/xc32/v2.30/bin/bin/../../lib/gcc/pic32mx/4.8.3/../../../../pic32mx/lib\libmchp_peripheral.a(write_core_timer_lib.o)
 .comment       0x00000000       0x3d c:/program files (x86)/microchip/xc32/v2.30/bin/bin/../../lib/gcc/pic32mx/4.8.3/../../../../pic32mx/lib\libmchp_peripheral_32MX440F256H.a(pcache.o)
 .comment       0x00000000       0x3d c:/program files (x86)/microchip/xc32/v2.30/bin/bin/../../lib/gcc/pic32mx/4.8.3/../../../../pic32mx/lib\libmchp_peripheral_32MX440F256H.a(int_disable_interrupts_lib.o)
 .comment       0x00000000       0x3d c:/program files (x86)/microchip/xc32/v2.30/bin/bin/../../lib/gcc/pic32mx/4.8.3/../../../../pic32mx/lib\libmchp_peripheral_32MX440F256H.a(int_restore_interrupts_lib.o)
 .comment       0x00000000       0x3d c:/program files (x86)/microchip/xc32/v2.30/bin/bin/../../lib/gcc/pic32mx/4.8.3/../../../../pic32mx/lib\libmchp_peripheral_32MX440F256H.a(int_enable_mv_int_lib.o)
 .comment       0x00000000       0x3d c:/program files (x86)/microchip/xc32/v2.30/bin/bin/../../lib/gcc/pic32mx/4.8.3/../../../../pic32mx/lib\libmchp_peripheral_32MX440F256H.a(puts_uartx_lib_legacy.o)
 .comment       0x00000000       0x3d c:/program files (x86)/microchip/xc32/v2.30/bin/bin/../../lib/gcc/pic32mx/4.8.3/../../../../pic32mx/lib\libmchp_peripheral_32MX440F256H.a(int_enable_interrupts_lib.o)
 .comment       0x00000000       0x3d c:/program files (x86)/microchip/xc32/v2.30/bin/bin/../../lib/gcc/pic32mx/4.8.3\libgcc.a(_udivdi3.o)
 .comment       0x00000000       0x3d c:/program files (x86)/microchip/xc32/v2.30/bin/bin/../../lib/gcc/pic32mx/4.8.3\libgcc.a(_umoddi3.o)
 .comment       0x00000078       0x18 c:/program files (x86)/microchip/xc32/v2.30/bin/bin/../../lib/gcc/pic32mx/4.8.3/../../../../pic32mx/lib\libpic32.a(memcmp.o)
                                 0x19 (size before relaxing)
 .comment       0x00000090       0x18 c:/program files (x86)/microchip/xc32/v2.30/bin/bin/../../lib/gcc/pic32mx/4.8.3/../../../../pic32mx/lib\libpic32.a(memset.o)
                                 0x19 (size before relaxing)
 .comment       0x000000a8       0x19 c:/program files (x86)/microchip/xc32/v2.30/bin/bin/../../lib/gcc/pic32mx/4.8.3/../../../../pic32mx/lib\libpic32.a(strcpy.o)
                                 0x1a (size before relaxing)
 .comment       0x000000c1       0x19 c:/program files (x86)/microchip/xc32/v2.30/bin/bin/../../lib/gcc/pic32mx/4.8.3/../../../../pic32mx/lib\libpic32.a(strlen.o)
                                 0x1a (size before relaxing)
 .comment       0x00000000       0x3d c:/program files (x86)/microchip/xc32/v2.30/bin/bin/../../lib/gcc/pic32mx/4.8.3/../../../../pic32mx/lib\libpic32.a(default-bootstrap-exception-handler.o)
 .comment       0x00000000       0x3d c:/program files (x86)/microchip/xc32/v2.30/bin/bin/../../lib/gcc/pic32mx/4.8.3/../../../../pic32mx/lib\libpic32.a(default-on-reset.o)
 .comment       0x00000000       0x3d c:/program files (x86)/microchip/xc32/v2.30/bin/bin/../../lib/gcc/pic32mx/4.8.3/../../../../pic32mx/lib\libpic32.a(default-on-bootstrap.o)
 .comment       0x00000000       0x3d c:/program files (x86)/microchip/xc32/v2.30/bin/bin/../../lib/gcc/pic32mx/4.8.3/../../../../pic32mx/lib\libpic32.a(default-general-exception-handler.o)
 .comment       0x00000000       0x3d c:/program files (x86)/microchip/xc32/v2.30/bin/bin/../../lib/gcc/pic32mx/4.8.3/../../../../pic32mx/lib\libpic32.a(defaultinterrupt.o)
 .comment       0x00000000       0x3d c:/program files (x86)/microchip/xc32/v2.30/bin/bin/../../lib/gcc/pic32mx/4.8.3/../../../../pic32mx/lib\libc.a(strncpy.o)
 .comment       0x00000000       0x3d c:/program files (x86)/microchip/xc32/v2.30/bin/bin/../../lib/gcc/pic32mx/4.8.3/../../../../pic32mx/lib\libc.a(sprintf_cdnopsuxX.eo)
 .comment       0x00000000       0x3d c:/program files (x86)/microchip/xc32/v2.30/bin/bin/../../lib/gcc/pic32mx/4.8.3/../../../../pic32mx/lib\libc.a(doprnt_cdnopsuxX.eo)
 .comment       0x00000000       0x3d c:/program files (x86)/microchip/xc32/v2.30/bin/bin/../../lib/gcc/pic32mx/4.8.3/../../../../pic32mx/lib\libc.a(_fputc_simple.o)
 .comment       0x000000da       0x4e c:/program files (x86)/microchip/xc32/v2.30/bin/bin/../../lib/gcc/pic32mx/4.8.3/../../../../pic32mx/lib\libc.a(ctype.o)
                                 0x8b (size before relaxing)
 .comment       0x00000000       0x3d c:/program files (x86)/microchip/xc32/v2.30/bin/bin/../../lib/gcc/pic32mx/4.8.3/../../../../pic32mx/lib\libc.a(_iob.o)
 .comment       0x00000000       0x3d c:/program files (x86)/microchip/xc32/v2.30/bin/bin/../../lib/gcc/pic32mx/4.8.3/../../../../pic32mx/lib\libc.a(_flsbuf_simple.o)
 .comment       0x00000000       0x3d c:/program files (x86)/microchip/xc32/v2.30/bin/bin/../../lib/gcc/pic32mx/4.8.3/../../../../pic32mx/lib\libpic32.a(write.o)
 .comment       0x00000000       0x3d c:/program files (x86)/microchip/xc32/v2.30/bin/bin/../../lib/gcc/pic32mx/4.8.3/../../../../pic32mx/lib\libpic32.a(_mon_putc.o)
 .comment       0x00000000       0x3d c:/program files (x86)/microchip/xc32/v2.30/bin/bin/../../lib/gcc/pic32mx/4.8.3/../../../../pic32mx/lib\libpic32.a(xc32_uart.o)

.debug
 *(.debug)

.line
 *(.line)

.debug_srcinfo
 *(.debug_srcinfo)

.debug_sfnames
 *(.debug_sfnames)

.debug_aranges  0x00000000      0x8c0
 *(.debug_aranges)
 .debug_aranges
                0x00000000       0x20 build/default/production/_ext/659867239/daylight.o
 .debug_aranges
                0x00000020       0x20 build/default/production/_ext/659867239/rtc.o
 .debug_aranges
                0x00000040       0x20 build/default/production/_ext/659867239/rtcconverter.o
 .debug_aranges
                0x00000060       0x20 build/default/production/_ext/1360937237/BootLoader.o
 .debug_aranges
                0x00000080       0x20 build/default/production/_ext/1360937237/Framework.o
 .debug_aranges
                0x000000a0       0x20 build/default/production/_ext/1360937237/NVMem.o
 .debug_aranges
                0x000000c0       0x20 build/default/production/_ext/1360937237/EthernetTasks.o
 .debug_aranges
                0x000000e0       0x20 build/default/production/_ext/1360937237/Tick.o
 .debug_aranges
                0x00000100       0x20 build/default/production/_ext/1360937237/stack_task.o
 .debug_aranges
                0x00000120       0x20 build/default/production/_ext/1360937237/UDP.o
 .debug_aranges
                0x00000140       0x20 build/default/production/_ext/1360937237/dhcp_client.o
 .debug_aranges
                0x00000160       0x20 build/default/production/_ext/1360937237/ARP.o
 .debug_aranges
                0x00000180       0x20 build/default/production/_ext/1360937237/Helpers.o
 .debug_aranges
                0x000001a0       0x20 build/default/production/_ext/1360937237/dns_client.o
 .debug_aranges
                0x000001c0       0x20 build/default/production/_ext/1360937237/nbns.o
 .debug_aranges
                0x000001e0       0x20 build/default/production/_ext/1360937237/drv_wifi_mac.o
 .debug_aranges
                0x00000200       0x20 build/default/production/_ext/1360937237/drv_wifi_raw.o
 .debug_aranges
                0x00000220       0x20 build/default/production/_ext/1360937237/drv_wifi_com.o
 .debug_aranges
                0x00000240       0x20 build/default/production/_ext/1360937237/Delay.o
 .debug_aranges
                0x00000260       0x20 build/default/production/_ext/1360937237/drv_wifi_eint.o
 .debug_aranges
                0x00000280       0x20 build/default/production/_ext/1360937237/drv_wifi_debug_strings.o
 .debug_aranges
                0x000002a0       0x20 build/default/production/_ext/1360937237/drv_wifi_spi.o
 .debug_aranges
                0x000002c0       0x20 build/default/production/_ext/1360937237/drv_wifi_power_save.o
 .debug_aranges
                0x000002e0       0x20 build/default/production/_ext/1360937237/announce.o
 .debug_aranges
                0x00000300       0x20 build/default/production/_ext/1360937237/drv_wifi_mgmt_msg.o
 .debug_aranges
                0x00000320       0x20 build/default/production/_ext/1360937237/drv_wifi_event_handler.o
 .debug_aranges
                0x00000340       0x20 build/default/production/_ext/1360937237/drv_wifi_config.o
 .debug_aranges
                0x00000360       0x20 build/default/production/_ext/1360937237/drv_wifi_connection_algorithm.o
 .debug_aranges
                0x00000380       0x20 build/default/production/_ext/1360937237/drv_wifi_connection_manager.o
 .debug_aranges
                0x000003a0       0x20 build/default/production/_ext/1360937237/drv_wifi_pbkdf2.o
 .debug_aranges
                0x000003c0       0x20 build/default/production/_ext/1360937237/drv_wifi_init.o
 .debug_aranges
                0x000003e0       0x20 build/default/production/_ext/1360937237/drv_wifi_param_msg.o
 .debug_aranges
                0x00000400       0x20 build/default/production/_ext/1360937237/IP.o
 .debug_aranges
                0x00000420       0x20 build/default/production/_ext/1360937237/icmp.o
 .debug_aranges
                0x00000440       0x18 build/default/production/_ext/1360937237/tcp.o
 .debug_aranges
                0x00000458       0x20 build/default/production/_ext/1360937237/uart.o
 .debug_aranges
                0x00000478       0x20 build/default/production/_ext/1360937237/drv_wifi_connection_profile.o
 .debug_aranges
                0x00000498       0x20 build/default/production/_ext/252762716/sntp.o
 .debug_aranges
                0x000004b8       0x18 build/default/production/_ext/252762716/ssl.o
 .debug_aranges
                0x000004d0       0x18 build/default/production/_ext/252762716/random.o
 .debug_aranges
                0x000004e8       0x18 build/default/production/_ext/252762716/hashes.o
 .debug_aranges
                0x00000500       0x18 build/default/production/_ext/252762716/rsa.o
 .debug_aranges
                0x00000518       0x18 build/default/production/_ext/252762716/big_int.o
 .debug_aranges
                0x00000530       0x18 build/default/production/_ext/252762716/custom_ssl_cert.o
 .debug_aranges
                0x00000548       0x18 build/default/production/_ext/252762716/arc4.o
 .debug_aranges
                0x00000560       0x18 build/default/production/_ext/1360937237/smtp.o
 .debug_aranges
                0x00000578       0x18 build/default/production/_ext/1360937237/smtp_demo.o
 .debug_aranges
                0x00000590       0x18 build/default/production/_ext/252762716/http2.o
 .debug_aranges
                0x000005a8       0x18 build/default/production/_ext/252762716/mpfs2.o
 .debug_aranges
                0x000005c0       0x18 build/default/production/_ext/252762716/custom_http_app.o
 .debug_aranges
                0x000005d8       0x18 build/default/production/_ext/252762716/mpfs_img2.o
 .debug_aranges
                0x000005f0       0x20 c:/program files (x86)/microchip/xc32/v2.30/bin/bin/../../lib/gcc/pic32mx/4.8.3/../../../../pic32mx/lib\libmchp_peripheral.a(read_core_timer_lib.o)
 .debug_aranges
                0x00000610       0x20 c:/program files (x86)/microchip/xc32/v2.30/bin/bin/../../lib/gcc/pic32mx/4.8.3/../../../../pic32mx/lib\libmchp_peripheral.a(write_core_timer_lib.o)
 .debug_aranges
                0x00000630       0x28 c:/program files (x86)/microchip/xc32/v2.30/bin/bin/../../lib/gcc/pic32mx/4.8.3/../../../../pic32mx/lib\libmchp_peripheral_32MX440F256H.a(pcache.o)
 .debug_aranges
                0x00000658       0x20 c:/program files (x86)/microchip/xc32/v2.30/bin/bin/../../lib/gcc/pic32mx/4.8.3/../../../../pic32mx/lib\libmchp_peripheral_32MX440F256H.a(int_disable_interrupts_lib.o)
 .debug_aranges
                0x00000678       0x20 c:/program files (x86)/microchip/xc32/v2.30/bin/bin/../../lib/gcc/pic32mx/4.8.3/../../../../pic32mx/lib\libmchp_peripheral_32MX440F256H.a(int_restore_interrupts_lib.o)
 .debug_aranges
                0x00000698       0x20 c:/program files (x86)/microchip/xc32/v2.30/bin/bin/../../lib/gcc/pic32mx/4.8.3/../../../../pic32mx/lib\libmchp_peripheral_32MX440F256H.a(int_enable_mv_int_lib.o)
 .debug_aranges
                0x000006b8       0x28 c:/program files (x86)/microchip/xc32/v2.30/bin/bin/../../lib/gcc/pic32mx/4.8.3/../../../../pic32mx/lib\libmchp_peripheral_32MX440F256H.a(puts_uartx_lib_legacy.o)
 .debug_aranges
                0x000006e0       0x20 c:/program files (x86)/microchip/xc32/v2.30/bin/bin/../../lib/gcc/pic32mx/4.8.3/../../../../pic32mx/lib\libmchp_peripheral_32MX440F256H.a(int_enable_interrupts_lib.o)
 .debug_aranges
                0x00000700       0x20 c:/program files (x86)/microchip/xc32/v2.30/bin/bin/../../lib/gcc/pic32mx/4.8.3\libgcc.a(_udivdi3.o)
 .debug_aranges
                0x00000720       0x20 c:/program files (x86)/microchip/xc32/v2.30/bin/bin/../../lib/gcc/pic32mx/4.8.3\libgcc.a(_umoddi3.o)
 .debug_aranges
                0x00000740       0x20 c:/program files (x86)/microchip/xc32/v2.30/bin/bin/../../lib/gcc/pic32mx/4.8.3/../../../../pic32mx/lib\libpic32.a(default-bootstrap-exception-handler.o)
 .debug_aranges
                0x00000760       0x20 c:/program files (x86)/microchip/xc32/v2.30/bin/bin/../../lib/gcc/pic32mx/4.8.3/../../../../pic32mx/lib\libpic32.a(default-on-reset.o)
 .debug_aranges
                0x00000780       0x20 c:/program files (x86)/microchip/xc32/v2.30/bin/bin/../../lib/gcc/pic32mx/4.8.3/../../../../pic32mx/lib\libpic32.a(default-on-bootstrap.o)
 .debug_aranges
                0x000007a0       0x20 c:/program files (x86)/microchip/xc32/v2.30/bin/bin/../../lib/gcc/pic32mx/4.8.3/../../../../pic32mx/lib\libpic32.a(default-general-exception-handler.o)
 .debug_aranges
                0x000007c0       0x20 c:/program files (x86)/microchip/xc32/v2.30/bin/bin/../../lib/gcc/pic32mx/4.8.3/../../../../pic32mx/lib\libpic32.a(defaultinterrupt.o)
 .debug_aranges
                0x000007e0       0x20 c:/program files (x86)/microchip/xc32/v2.30/bin/bin/../../lib/gcc/pic32mx/4.8.3/../../../../pic32mx/lib\libc.a(strncpy.o)
 .debug_aranges
                0x00000800       0x20 c:/program files (x86)/microchip/xc32/v2.30/bin/bin/../../lib/gcc/pic32mx/4.8.3/../../../../pic32mx/lib\libc.a(sprintf_cdnopsuxX.eo)
 .debug_aranges
                0x00000820       0x20 c:/program files (x86)/microchip/xc32/v2.30/bin/bin/../../lib/gcc/pic32mx/4.8.3/../../../../pic32mx/lib\libc.a(doprnt_cdnopsuxX.eo)
 .debug_aranges
                0x00000840       0x20 c:/program files (x86)/microchip/xc32/v2.30/bin/bin/../../lib/gcc/pic32mx/4.8.3/../../../../pic32mx/lib\libc.a(_fputc_simple.o)
 .debug_aranges
                0x00000860       0x20 c:/program files (x86)/microchip/xc32/v2.30/bin/bin/../../lib/gcc/pic32mx/4.8.3/../../../../pic32mx/lib\libc.a(_flsbuf_simple.o)
 .debug_aranges
                0x00000880       0x20 c:/program files (x86)/microchip/xc32/v2.30/bin/bin/../../lib/gcc/pic32mx/4.8.3/../../../../pic32mx/lib\libpic32.a(write.o)
 .debug_aranges
                0x000008a0       0x20 c:/program files (x86)/microchip/xc32/v2.30/bin/bin/../../lib/gcc/pic32mx/4.8.3/../../../../pic32mx/lib\libpic32.a(_mon_putc.o)

.debug_pubnames
 *(.debug_pubnames)

.debug_info     0x00000000    0x4c24a
 *(.debug_info .gnu.linkonce.wi.*)
 .debug_info    0x00000000      0x2c9 build/default/production/_ext/659867239/daylight.o
 .debug_info    0x000002c9      0xb8f build/default/production/_ext/659867239/rtc.o
 .debug_info    0x00000e58      0x4b9 build/default/production/_ext/659867239/rtcconverter.o
 .debug_info    0x00001311     0x12eb build/default/production/_ext/1360937237/BootLoader.o
 .debug_info    0x000025fc     0x1b85 build/default/production/_ext/1360937237/Framework.o
 .debug_info    0x00004181     0x1253 build/default/production/_ext/1360937237/NVMem.o
 .debug_info    0x000053d4     0x2e20 build/default/production/_ext/1360937237/EthernetTasks.o
 .debug_info    0x000081f4     0x1685 build/default/production/_ext/1360937237/Tick.o
 .debug_info    0x00009879     0x1bc1 build/default/production/_ext/1360937237/stack_task.o
 .debug_info    0x0000b43a     0x245d build/default/production/_ext/1360937237/UDP.o
 .debug_info    0x0000d897     0x281d build/default/production/_ext/1360937237/dhcp_client.o
 .debug_info    0x000100b4     0x1b07 build/default/production/_ext/1360937237/ARP.o
 .debug_info    0x00011bbb     0x1983 build/default/production/_ext/1360937237/Helpers.o
 .debug_info    0x0001353e     0x2379 build/default/production/_ext/1360937237/dns_client.o
 .debug_info    0x000158b7     0x1f83 build/default/production/_ext/1360937237/nbns.o
 .debug_info    0x0001783a     0x2ba4 build/default/production/_ext/1360937237/drv_wifi_mac.o
 .debug_info    0x0001a3de     0x1e23 build/default/production/_ext/1360937237/drv_wifi_raw.o
 .debug_info    0x0001c201     0x2af6 build/default/production/_ext/1360937237/drv_wifi_com.o
 .debug_info    0x0001ecf7      0xec3 build/default/production/_ext/1360937237/Delay.o
 .debug_info    0x0001fbba     0x17ed build/default/production/_ext/1360937237/drv_wifi_eint.o
 .debug_info    0x000213a7     0x21d0 build/default/production/_ext/1360937237/drv_wifi_debug_strings.o
 .debug_info    0x00023577     0x16b0 build/default/production/_ext/1360937237/drv_wifi_spi.o
 .debug_info    0x00024c27     0x1ab9 build/default/production/_ext/1360937237/drv_wifi_power_save.o
 .debug_info    0x000266e0     0x1c66 build/default/production/_ext/1360937237/announce.o
 .debug_info    0x00028346     0x1b74 build/default/production/_ext/1360937237/drv_wifi_mgmt_msg.o
 .debug_info    0x00029eba     0x150b build/default/production/_ext/1360937237/drv_wifi_event_handler.o
 .debug_info    0x0002b3c5     0x13fa build/default/production/_ext/1360937237/drv_wifi_config.o
 .debug_info    0x0002c7bf     0x2888 build/default/production/_ext/1360937237/drv_wifi_connection_algorithm.o
 .debug_info    0x0002f047     0x1784 build/default/production/_ext/1360937237/drv_wifi_connection_manager.o
 .debug_info    0x000307cb     0x1d0c build/default/production/_ext/1360937237/drv_wifi_pbkdf2.o
 .debug_info    0x000324d7     0x1b1a build/default/production/_ext/1360937237/drv_wifi_init.o
 .debug_info    0x00033ff1     0x236a build/default/production/_ext/1360937237/drv_wifi_param_msg.o
 .debug_info    0x0003635b     0x1ac4 build/default/production/_ext/1360937237/IP.o
 .debug_info    0x00037e1f     0x1592 build/default/production/_ext/1360937237/icmp.o
 .debug_info    0x000393b1      0xec0 build/default/production/_ext/1360937237/tcp.o
 .debug_info    0x0003a271     0x10c0 build/default/production/_ext/1360937237/uart.o
 .debug_info    0x0003b331     0x25e1 build/default/production/_ext/1360937237/drv_wifi_connection_profile.o
 .debug_info    0x0003d912     0x144c build/default/production/_ext/252762716/sntp.o
 .debug_info    0x0003ed5e      0xe23 build/default/production/_ext/252762716/ssl.o
 .debug_info    0x0003fb81      0xe26 build/default/production/_ext/252762716/random.o
 .debug_info    0x000409a7      0xe26 build/default/production/_ext/252762716/hashes.o
 .debug_info    0x000417cd      0xe23 build/default/production/_ext/252762716/rsa.o
 .debug_info    0x000425f0      0xe27 build/default/production/_ext/252762716/big_int.o
 .debug_info    0x00043417      0xdbe build/default/production/_ext/252762716/custom_ssl_cert.o
 .debug_info    0x000441d5      0xe24 build/default/production/_ext/252762716/arc4.o
 .debug_info    0x00044ff9      0xde6 build/default/production/_ext/1360937237/smtp.o
 .debug_info    0x00045ddf      0xde2 build/default/production/_ext/1360937237/smtp_demo.o
 .debug_info    0x00046bc1      0xe25 build/default/production/_ext/252762716/http2.o
 .debug_info    0x000479e6      0xe25 build/default/production/_ext/252762716/mpfs2.o
 .debug_info    0x0004880b      0xdbe build/default/production/_ext/252762716/custom_http_app.o
 .debug_info    0x000495c9      0xe29 build/default/production/_ext/252762716/mpfs_img2.o
 .debug_info    0x0004a3f2       0xa8 c:/program files (x86)/microchip/xc32/v2.30/bin/bin/../../lib/gcc/pic32mx/4.8.3/../../../../pic32mx/lib\libmchp_peripheral.a(read_core_timer_lib.o)
 .debug_info    0x0004a49a       0xaa c:/program files (x86)/microchip/xc32/v2.30/bin/bin/../../lib/gcc/pic32mx/4.8.3/../../../../pic32mx/lib\libmchp_peripheral.a(write_core_timer_lib.o)
 .debug_info    0x0004a544       0xbe c:/program files (x86)/microchip/xc32/v2.30/bin/bin/../../lib/gcc/pic32mx/4.8.3/../../../../pic32mx/lib\libmchp_peripheral_32MX440F256H.a(pcache.o)
 .debug_info    0x0004a602       0xb4 c:/program files (x86)/microchip/xc32/v2.30/bin/bin/../../lib/gcc/pic32mx/4.8.3/../../../../pic32mx/lib\libmchp_peripheral_32MX440F256H.a(int_disable_interrupts_lib.o)
 .debug_info    0x0004a6b6       0xb4 c:/program files (x86)/microchip/xc32/v2.30/bin/bin/../../lib/gcc/pic32mx/4.8.3/../../../../pic32mx/lib\libmchp_peripheral_32MX440F256H.a(int_restore_interrupts_lib.o)
 .debug_info    0x0004a76a       0xba c:/program files (x86)/microchip/xc32/v2.30/bin/bin/../../lib/gcc/pic32mx/4.8.3/../../../../pic32mx/lib\libmchp_peripheral_32MX440F256H.a(int_enable_mv_int_lib.o)
 .debug_info    0x0004a824       0xbe c:/program files (x86)/microchip/xc32/v2.30/bin/bin/../../lib/gcc/pic32mx/4.8.3/../../../../pic32mx/lib\libmchp_peripheral_32MX440F256H.a(puts_uartx_lib_legacy.o)
 .debug_info    0x0004a8e2       0xb2 c:/program files (x86)/microchip/xc32/v2.30/bin/bin/../../lib/gcc/pic32mx/4.8.3/../../../../pic32mx/lib\libmchp_peripheral_32MX440F256H.a(int_enable_interrupts_lib.o)
 .debug_info    0x0004a994      0x74b c:/program files (x86)/microchip/xc32/v2.30/bin/bin/../../lib/gcc/pic32mx/4.8.3\libgcc.a(_udivdi3.o)
 .debug_info    0x0004b0df      0x788 c:/program files (x86)/microchip/xc32/v2.30/bin/bin/../../lib/gcc/pic32mx/4.8.3\libgcc.a(_umoddi3.o)
 .debug_info    0x0004b867       0xf4 c:/program files (x86)/microchip/xc32/v2.30/bin/bin/../../lib/gcc/pic32mx/4.8.3/../../../../pic32mx/lib\libpic32.a(default-bootstrap-exception-handler.o)
 .debug_info    0x0004b95b       0xcd c:/program files (x86)/microchip/xc32/v2.30/bin/bin/../../lib/gcc/pic32mx/4.8.3/../../../../pic32mx/lib\libpic32.a(default-on-reset.o)
 .debug_info    0x0004ba28       0xd5 c:/program files (x86)/microchip/xc32/v2.30/bin/bin/../../lib/gcc/pic32mx/4.8.3/../../../../pic32mx/lib\libpic32.a(default-on-bootstrap.o)
 .debug_info    0x0004bafd       0xf0 c:/program files (x86)/microchip/xc32/v2.30/bin/bin/../../lib/gcc/pic32mx/4.8.3/../../../../pic32mx/lib\libpic32.a(default-general-exception-handler.o)
 .debug_info    0x0004bbed       0xe7 c:/program files (x86)/microchip/xc32/v2.30/bin/bin/../../lib/gcc/pic32mx/4.8.3/../../../../pic32mx/lib\libpic32.a(defaultinterrupt.o)
 .debug_info    0x0004bcd4       0xc6 c:/program files (x86)/microchip/xc32/v2.30/bin/bin/../../lib/gcc/pic32mx/4.8.3/../../../../pic32mx/lib\libc.a(strncpy.o)
 .debug_info    0x0004bd9a       0xd1 c:/program files (x86)/microchip/xc32/v2.30/bin/bin/../../lib/gcc/pic32mx/4.8.3/../../../../pic32mx/lib\libc.a(sprintf_cdnopsuxX.eo)
 .debug_info    0x0004be6b       0xd2 c:/program files (x86)/microchip/xc32/v2.30/bin/bin/../../lib/gcc/pic32mx/4.8.3/../../../../pic32mx/lib\libc.a(doprnt_cdnopsuxX.eo)
 .debug_info    0x0004bf3d       0xc2 c:/program files (x86)/microchip/xc32/v2.30/bin/bin/../../lib/gcc/pic32mx/4.8.3/../../../../pic32mx/lib\libc.a(_fputc_simple.o)
 .debug_info    0x0004bfff       0xc5 c:/program files (x86)/microchip/xc32/v2.30/bin/bin/../../lib/gcc/pic32mx/4.8.3/../../../../pic32mx/lib\libc.a(_flsbuf_simple.o)
 .debug_info    0x0004c0c4       0xbf c:/program files (x86)/microchip/xc32/v2.30/bin/bin/../../lib/gcc/pic32mx/4.8.3/../../../../pic32mx/lib\libpic32.a(write.o)
 .debug_info    0x0004c183       0xc7 c:/program files (x86)/microchip/xc32/v2.30/bin/bin/../../lib/gcc/pic32mx/4.8.3/../../../../pic32mx/lib\libpic32.a(_mon_putc.o)

.debug_abbrev   0x00000000     0x7945
 *(.debug_abbrev)
 .debug_abbrev  0x00000000       0xcb build/default/production/_ext/659867239/daylight.o
 .debug_abbrev  0x000000cb      0x291 build/default/production/_ext/659867239/rtc.o
 .debug_abbrev  0x0000035c      0x127 build/default/production/_ext/659867239/rtcconverter.o
 .debug_abbrev  0x00000483      0x37b build/default/production/_ext/1360937237/BootLoader.o
 .debug_abbrev  0x000007fe      0x2e4 build/default/production/_ext/1360937237/Framework.o
 .debug_abbrev  0x00000ae2      0x316 build/default/production/_ext/1360937237/NVMem.o
 .debug_abbrev  0x00000df8      0x31f build/default/production/_ext/1360937237/EthernetTasks.o
 .debug_abbrev  0x00001117      0x21c build/default/production/_ext/1360937237/Tick.o
 .debug_abbrev  0x00001333      0x266 build/default/production/_ext/1360937237/stack_task.o
 .debug_abbrev  0x00001599      0x3c6 build/default/production/_ext/1360937237/UDP.o
 .debug_abbrev  0x0000195f      0x33e build/default/production/_ext/1360937237/dhcp_client.o
 .debug_abbrev  0x00001c9d      0x2fa build/default/production/_ext/1360937237/ARP.o
 .debug_abbrev  0x00001f97      0x280 build/default/production/_ext/1360937237/Helpers.o
 .debug_abbrev  0x00002217      0x2dc build/default/production/_ext/1360937237/dns_client.o
 .debug_abbrev  0x000024f3      0x2d4 build/default/production/_ext/1360937237/nbns.o
 .debug_abbrev  0x000027c7      0x43b build/default/production/_ext/1360937237/drv_wifi_mac.o
 .debug_abbrev  0x00002c02      0x3ec build/default/production/_ext/1360937237/drv_wifi_raw.o
 .debug_abbrev  0x00002fee      0x3b7 build/default/production/_ext/1360937237/drv_wifi_com.o
 .debug_abbrev  0x000033a5      0x187 build/default/production/_ext/1360937237/Delay.o
 .debug_abbrev  0x0000352c      0x184 build/default/production/_ext/1360937237/drv_wifi_eint.o
 .debug_abbrev  0x000036b0      0x309 build/default/production/_ext/1360937237/drv_wifi_debug_strings.o
 .debug_abbrev  0x000039b9      0x23f build/default/production/_ext/1360937237/drv_wifi_spi.o
 .debug_abbrev  0x00003bf8      0x3d0 build/default/production/_ext/1360937237/drv_wifi_power_save.o
 .debug_abbrev  0x00003fc8      0x287 build/default/production/_ext/1360937237/announce.o
 .debug_abbrev  0x0000424f      0x30f build/default/production/_ext/1360937237/drv_wifi_mgmt_msg.o
 .debug_abbrev  0x0000455e      0x2b3 build/default/production/_ext/1360937237/drv_wifi_event_handler.o
 .debug_abbrev  0x00004811      0x237 build/default/production/_ext/1360937237/drv_wifi_config.o
 .debug_abbrev  0x00004a48      0x39c build/default/production/_ext/1360937237/drv_wifi_connection_algorithm.o
 .debug_abbrev  0x00004de4      0x312 build/default/production/_ext/1360937237/drv_wifi_connection_manager.o
 .debug_abbrev  0x000050f6      0x32d build/default/production/_ext/1360937237/drv_wifi_pbkdf2.o
 .debug_abbrev  0x00005423      0x249 build/default/production/_ext/1360937237/drv_wifi_init.o
 .debug_abbrev  0x0000566c      0x28e build/default/production/_ext/1360937237/drv_wifi_param_msg.o
 .debug_abbrev  0x000058fa      0x26c build/default/production/_ext/1360937237/IP.o
 .debug_abbrev  0x00005b66      0x1f6 build/default/production/_ext/1360937237/icmp.o
 .debug_abbrev  0x00005d5c      0x141 build/default/production/_ext/1360937237/tcp.o
 .debug_abbrev  0x00005e9d      0x156 build/default/production/_ext/1360937237/uart.o
 .debug_abbrev  0x00005ff3      0x341 build/default/production/_ext/1360937237/drv_wifi_connection_profile.o
 .debug_abbrev  0x00006334      0x23e build/default/production/_ext/252762716/sntp.o
 .debug_abbrev  0x00006572      0x118 build/default/production/_ext/252762716/ssl.o
 .debug_abbrev  0x0000668a      0x118 build/default/production/_ext/252762716/random.o
 .debug_abbrev  0x000067a2      0x118 build/default/production/_ext/252762716/hashes.o
 .debug_abbrev  0x000068ba      0x118 build/default/production/_ext/252762716/rsa.o
 .debug_abbrev  0x000069d2      0x118 build/default/production/_ext/252762716/big_int.o
 .debug_abbrev  0x00006aea      0x116 build/default/production/_ext/252762716/custom_ssl_cert.o
 .debug_abbrev  0x00006c00      0x118 build/default/production/_ext/252762716/arc4.o
 .debug_abbrev  0x00006d18      0x118 build/default/production/_ext/1360937237/smtp.o
 .debug_abbrev  0x00006e30      0x118 build/default/production/_ext/1360937237/smtp_demo.o
 .debug_abbrev  0x00006f48      0x118 build/default/production/_ext/252762716/http2.o
 .debug_abbrev  0x00007060      0x118 build/default/production/_ext/252762716/mpfs2.o
 .debug_abbrev  0x00007178      0x116 build/default/production/_ext/252762716/custom_http_app.o
 .debug_abbrev  0x0000728e      0x118 build/default/production/_ext/252762716/mpfs_img2.o
 .debug_abbrev  0x000073a6       0x28 c:/program files (x86)/microchip/xc32/v2.30/bin/bin/../../lib/gcc/pic32mx/4.8.3/../../../../pic32mx/lib\libmchp_peripheral.a(read_core_timer_lib.o)
 .debug_abbrev  0x000073ce       0x28 c:/program files (x86)/microchip/xc32/v2.30/bin/bin/../../lib/gcc/pic32mx/4.8.3/../../../../pic32mx/lib\libmchp_peripheral.a(write_core_timer_lib.o)
 .debug_abbrev  0x000073f6       0x28 c:/program files (x86)/microchip/xc32/v2.30/bin/bin/../../lib/gcc/pic32mx/4.8.3/../../../../pic32mx/lib\libmchp_peripheral_32MX440F256H.a(pcache.o)
 .debug_abbrev  0x0000741e       0x28 c:/program files (x86)/microchip/xc32/v2.30/bin/bin/../../lib/gcc/pic32mx/4.8.3/../../../../pic32mx/lib\libmchp_peripheral_32MX440F256H.a(int_disable_interrupts_lib.o)
 .debug_abbrev  0x00007446       0x28 c:/program files (x86)/microchip/xc32/v2.30/bin/bin/../../lib/gcc/pic32mx/4.8.3/../../../../pic32mx/lib\libmchp_peripheral_32MX440F256H.a(int_restore_interrupts_lib.o)
 .debug_abbrev  0x0000746e       0x28 c:/program files (x86)/microchip/xc32/v2.30/bin/bin/../../lib/gcc/pic32mx/4.8.3/../../../../pic32mx/lib\libmchp_peripheral_32MX440F256H.a(int_enable_mv_int_lib.o)
 .debug_abbrev  0x00007496       0x28 c:/program files (x86)/microchip/xc32/v2.30/bin/bin/../../lib/gcc/pic32mx/4.8.3/../../../../pic32mx/lib\libmchp_peripheral_32MX440F256H.a(puts_uartx_lib_legacy.o)
 .debug_abbrev  0x000074be       0x28 c:/program files (x86)/microchip/xc32/v2.30/bin/bin/../../lib/gcc/pic32mx/4.8.3/../../../../pic32mx/lib\libmchp_peripheral_32MX440F256H.a(int_enable_interrupts_lib.o)
 .debug_abbrev  0x000074e6      0x138 c:/program files (x86)/microchip/xc32/v2.30/bin/bin/../../lib/gcc/pic32mx/4.8.3\libgcc.a(_udivdi3.o)
 .debug_abbrev  0x0000761e      0x147 c:/program files (x86)/microchip/xc32/v2.30/bin/bin/../../lib/gcc/pic32mx/4.8.3\libgcc.a(_umoddi3.o)
 .debug_abbrev  0x00007765       0x28 c:/program files (x86)/microchip/xc32/v2.30/bin/bin/../../lib/gcc/pic32mx/4.8.3/../../../../pic32mx/lib\libpic32.a(default-bootstrap-exception-handler.o)
 .debug_abbrev  0x0000778d       0x28 c:/program files (x86)/microchip/xc32/v2.30/bin/bin/../../lib/gcc/pic32mx/4.8.3/../../../../pic32mx/lib\libpic32.a(default-on-reset.o)
 .debug_abbrev  0x000077b5       0x28 c:/program files (x86)/microchip/xc32/v2.30/bin/bin/../../lib/gcc/pic32mx/4.8.3/../../../../pic32mx/lib\libpic32.a(default-on-bootstrap.o)
 .debug_abbrev  0x000077dd       0x28 c:/program files (x86)/microchip/xc32/v2.30/bin/bin/../../lib/gcc/pic32mx/4.8.3/../../../../pic32mx/lib\libpic32.a(default-general-exception-handler.o)
 .debug_abbrev  0x00007805       0x28 c:/program files (x86)/microchip/xc32/v2.30/bin/bin/../../lib/gcc/pic32mx/4.8.3/../../../../pic32mx/lib\libpic32.a(defaultinterrupt.o)
 .debug_abbrev  0x0000782d       0x28 c:/program files (x86)/microchip/xc32/v2.30/bin/bin/../../lib/gcc/pic32mx/4.8.3/../../../../pic32mx/lib\libc.a(strncpy.o)
 .debug_abbrev  0x00007855       0x28 c:/program files (x86)/microchip/xc32/v2.30/bin/bin/../../lib/gcc/pic32mx/4.8.3/../../../../pic32mx/lib\libc.a(sprintf_cdnopsuxX.eo)
 .debug_abbrev  0x0000787d       0x28 c:/program files (x86)/microchip/xc32/v2.30/bin/bin/../../lib/gcc/pic32mx/4.8.3/../../../../pic32mx/lib\libc.a(doprnt_cdnopsuxX.eo)
 .debug_abbrev  0x000078a5       0x28 c:/program files (x86)/microchip/xc32/v2.30/bin/bin/../../lib/gcc/pic32mx/4.8.3/../../../../pic32mx/lib\libc.a(_fputc_simple.o)
 .debug_abbrev  0x000078cd       0x28 c:/program files (x86)/microchip/xc32/v2.30/bin/bin/../../lib/gcc/pic32mx/4.8.3/../../../../pic32mx/lib\libc.a(_flsbuf_simple.o)
 .debug_abbrev  0x000078f5       0x28 c:/program files (x86)/microchip/xc32/v2.30/bin/bin/../../lib/gcc/pic32mx/4.8.3/../../../../pic32mx/lib\libpic32.a(write.o)
 .debug_abbrev  0x0000791d       0x28 c:/program files (x86)/microchip/xc32/v2.30/bin/bin/../../lib/gcc/pic32mx/4.8.3/../../../../pic32mx/lib\libpic32.a(_mon_putc.o)

.debug_line     0x00000000     0x8d48
 *(.debug_line)
 .debug_line    0x00000000      0x10b build/default/production/_ext/659867239/daylight.o
 .debug_line    0x0000010b      0x26d build/default/production/_ext/659867239/rtc.o
 .debug_line    0x00000378      0x19b build/default/production/_ext/659867239/rtcconverter.o
 .debug_line    0x00000513      0x2c1 build/default/production/_ext/1360937237/BootLoader.o
 .debug_line    0x000007d4      0x335 build/default/production/_ext/1360937237/Framework.o
 .debug_line    0x00000b09      0x2a0 build/default/production/_ext/1360937237/NVMem.o
 .debug_line    0x00000da9      0x475 build/default/production/_ext/1360937237/EthernetTasks.o
 .debug_line    0x0000121e      0x28d build/default/production/_ext/1360937237/Tick.o
 .debug_line    0x000014ab      0x351 build/default/production/_ext/1360937237/stack_task.o
 .debug_line    0x000017fc      0x3c5 build/default/production/_ext/1360937237/UDP.o
 .debug_line    0x00001bc1      0x452 build/default/production/_ext/1360937237/dhcp_client.o
 .debug_line    0x00002013      0x2e7 build/default/production/_ext/1360937237/ARP.o
 .debug_line    0x000022fa      0x34a build/default/production/_ext/1360937237/Helpers.o
 .debug_line    0x00002644      0x385 build/default/production/_ext/1360937237/dns_client.o
 .debug_line    0x000029c9      0x2e1 build/default/production/_ext/1360937237/nbns.o
 .debug_line    0x00002caa      0x4c0 build/default/production/_ext/1360937237/drv_wifi_mac.o
 .debug_line    0x0000316a      0x33e build/default/production/_ext/1360937237/drv_wifi_raw.o
 .debug_line    0x000034a8      0x3a6 build/default/production/_ext/1360937237/drv_wifi_com.o
 .debug_line    0x0000384e      0x1e1 build/default/production/_ext/1360937237/Delay.o
 .debug_line    0x00003a2f      0x271 build/default/production/_ext/1360937237/drv_wifi_eint.o
 .debug_line    0x00003ca0      0x36f build/default/production/_ext/1360937237/drv_wifi_debug_strings.o
 .debug_line    0x0000400f      0x284 build/default/production/_ext/1360937237/drv_wifi_spi.o
 .debug_line    0x00004293      0x2df build/default/production/_ext/1360937237/drv_wifi_power_save.o
 .debug_line    0x00004572      0x2c4 build/default/production/_ext/1360937237/announce.o
 .debug_line    0x00004836      0x34c build/default/production/_ext/1360937237/drv_wifi_mgmt_msg.o
 .debug_line    0x00004b82      0x2d3 build/default/production/_ext/1360937237/drv_wifi_event_handler.o
 .debug_line    0x00004e55      0x2fa build/default/production/_ext/1360937237/drv_wifi_config.o
 .debug_line    0x0000514f      0x377 build/default/production/_ext/1360937237/drv_wifi_connection_algorithm.o
 .debug_line    0x000054c6      0x2c0 build/default/production/_ext/1360937237/drv_wifi_connection_manager.o
 .debug_line    0x00005786      0x344 build/default/production/_ext/1360937237/drv_wifi_pbkdf2.o
 .debug_line    0x00005aca      0x2d3 build/default/production/_ext/1360937237/drv_wifi_init.o
 .debug_line    0x00005d9d      0x2ef build/default/production/_ext/1360937237/drv_wifi_param_msg.o
 .debug_line    0x0000608c      0x2ab build/default/production/_ext/1360937237/IP.o
 .debug_line    0x00006337      0x26e build/default/production/_ext/1360937237/icmp.o
 .debug_line    0x000065a5      0x1cb build/default/production/_ext/1360937237/tcp.o
 .debug_line    0x00006770      0x1df build/default/production/_ext/1360937237/uart.o
 .debug_line    0x0000694f      0x349 build/default/production/_ext/1360937237/drv_wifi_connection_profile.o
 .debug_line    0x00006c98      0x282 build/default/production/_ext/252762716/sntp.o
 .debug_line    0x00006f1a      0x166 build/default/production/_ext/252762716/ssl.o
 .debug_line    0x00007080      0x166 build/default/production/_ext/252762716/random.o
 .debug_line    0x000071e6      0x166 build/default/production/_ext/252762716/hashes.o
 .debug_line    0x0000734c      0x166 build/default/production/_ext/252762716/rsa.o
 .debug_line    0x000074b2      0x166 build/default/production/_ext/252762716/big_int.o
 .debug_line    0x00007618      0x166 build/default/production/_ext/252762716/custom_ssl_cert.o
 .debug_line    0x0000777e      0x166 build/default/production/_ext/252762716/arc4.o
 .debug_line    0x000078e4      0x166 build/default/production/_ext/1360937237/smtp.o
 .debug_line    0x00007a4a      0x166 build/default/production/_ext/1360937237/smtp_demo.o
 .debug_line    0x00007bb0      0x166 build/default/production/_ext/252762716/http2.o
 .debug_line    0x00007d16      0x166 build/default/production/_ext/252762716/mpfs2.o
 .debug_line    0x00007e7c      0x166 build/default/production/_ext/252762716/custom_http_app.o
 .debug_line    0x00007fe2      0x166 build/default/production/_ext/252762716/mpfs_img2.o
 .debug_line    0x00008148       0x6b c:/program files (x86)/microchip/xc32/v2.30/bin/bin/../../lib/gcc/pic32mx/4.8.3/../../../../pic32mx/lib\libmchp_peripheral.a(read_core_timer_lib.o)
 .debug_line    0x000081b3       0x6c c:/program files (x86)/microchip/xc32/v2.30/bin/bin/../../lib/gcc/pic32mx/4.8.3/../../../../pic32mx/lib\libmchp_peripheral.a(write_core_timer_lib.o)
 .debug_line    0x0000821f       0x5f c:/program files (x86)/microchip/xc32/v2.30/bin/bin/../../lib/gcc/pic32mx/4.8.3/../../../../pic32mx/lib\libmchp_peripheral_32MX440F256H.a(pcache.o)
 .debug_line    0x0000827e       0x70 c:/program files (x86)/microchip/xc32/v2.30/bin/bin/../../lib/gcc/pic32mx/4.8.3/../../../../pic32mx/lib\libmchp_peripheral_32MX440F256H.a(int_disable_interrupts_lib.o)
 .debug_line    0x000082ee       0x70 c:/program files (x86)/microchip/xc32/v2.30/bin/bin/../../lib/gcc/pic32mx/4.8.3/../../../../pic32mx/lib\libmchp_peripheral_32MX440F256H.a(int_restore_interrupts_lib.o)
 .debug_line    0x0000835e       0x6b c:/program files (x86)/microchip/xc32/v2.30/bin/bin/../../lib/gcc/pic32mx/4.8.3/../../../../pic32mx/lib\libmchp_peripheral_32MX440F256H.a(int_enable_mv_int_lib.o)
 .debug_line    0x000083c9       0x6c c:/program files (x86)/microchip/xc32/v2.30/bin/bin/../../lib/gcc/pic32mx/4.8.3/../../../../pic32mx/lib\libmchp_peripheral_32MX440F256H.a(puts_uartx_lib_legacy.o)
 .debug_line    0x00008435       0x6f c:/program files (x86)/microchip/xc32/v2.30/bin/bin/../../lib/gcc/pic32mx/4.8.3/../../../../pic32mx/lib\libmchp_peripheral_32MX440F256H.a(int_enable_interrupts_lib.o)
 .debug_line    0x000084a4       0xf7 c:/program files (x86)/microchip/xc32/v2.30/bin/bin/../../lib/gcc/pic32mx/4.8.3\libgcc.a(_udivdi3.o)
 .debug_line    0x0000859b      0x109 c:/program files (x86)/microchip/xc32/v2.30/bin/bin/../../lib/gcc/pic32mx/4.8.3\libgcc.a(_umoddi3.o)
 .debug_line    0x000086a4       0xa6 c:/program files (x86)/microchip/xc32/v2.30/bin/bin/../../lib/gcc/pic32mx/4.8.3/../../../../pic32mx/lib\libpic32.a(default-bootstrap-exception-handler.o)
 .debug_line    0x0000874a       0x93 c:/program files (x86)/microchip/xc32/v2.30/bin/bin/../../lib/gcc/pic32mx/4.8.3/../../../../pic32mx/lib\libpic32.a(default-on-reset.o)
 .debug_line    0x000087dd       0x97 c:/program files (x86)/microchip/xc32/v2.30/bin/bin/../../lib/gcc/pic32mx/4.8.3/../../../../pic32mx/lib\libpic32.a(default-on-bootstrap.o)
 .debug_line    0x00008874       0xa4 c:/program files (x86)/microchip/xc32/v2.30/bin/bin/../../lib/gcc/pic32mx/4.8.3/../../../../pic32mx/lib\libpic32.a(default-general-exception-handler.o)
 .debug_line    0x00008918       0xa5 c:/program files (x86)/microchip/xc32/v2.30/bin/bin/../../lib/gcc/pic32mx/4.8.3/../../../../pic32mx/lib\libpic32.a(defaultinterrupt.o)
 .debug_line    0x000089bd       0x7f c:/program files (x86)/microchip/xc32/v2.30/bin/bin/../../lib/gcc/pic32mx/4.8.3/../../../../pic32mx/lib\libc.a(strncpy.o)
 .debug_line    0x00008a3c       0x7f c:/program files (x86)/microchip/xc32/v2.30/bin/bin/../../lib/gcc/pic32mx/4.8.3/../../../../pic32mx/lib\libc.a(sprintf_cdnopsuxX.eo)
 .debug_line    0x00008abb       0x7e c:/program files (x86)/microchip/xc32/v2.30/bin/bin/../../lib/gcc/pic32mx/4.8.3/../../../../pic32mx/lib\libc.a(doprnt_cdnopsuxX.eo)
 .debug_line    0x00008b39       0x7d c:/program files (x86)/microchip/xc32/v2.30/bin/bin/../../lib/gcc/pic32mx/4.8.3/../../../../pic32mx/lib\libc.a(_fputc_simple.o)
 .debug_line    0x00008bb6        0x0 c:/program files (x86)/microchip/xc32/v2.30/bin/bin/../../lib/gcc/pic32mx/4.8.3/../../../../pic32mx/lib\libc.a(ctype.o)
 .debug_line    0x00008bb6        0x0 c:/program files (x86)/microchip/xc32/v2.30/bin/bin/../../lib/gcc/pic32mx/4.8.3/../../../../pic32mx/lib\libc.a(_iob.o)
 .debug_line    0x00008bb6       0x7e c:/program files (x86)/microchip/xc32/v2.30/bin/bin/../../lib/gcc/pic32mx/4.8.3/../../../../pic32mx/lib\libc.a(_flsbuf_simple.o)
 .debug_line    0x00008c34       0x88 c:/program files (x86)/microchip/xc32/v2.30/bin/bin/../../lib/gcc/pic32mx/4.8.3/../../../../pic32mx/lib\libpic32.a(write.o)
 .debug_line    0x00008cbc       0x8c c:/program files (x86)/microchip/xc32/v2.30/bin/bin/../../lib/gcc/pic32mx/4.8.3/../../../../pic32mx/lib\libpic32.a(_mon_putc.o)
 .debug_line    0x00008d48        0x0 c:/program files (x86)/microchip/xc32/v2.30/bin/bin/../../lib/gcc/pic32mx/4.8.3/../../../../pic32mx/lib\libpic32.a(xc32_uart.o)

.debug_frame    0x00000000     0x2748
 *(.debug_frame)
 .debug_frame   0x00000000       0x4c build/default/production/_ext/659867239/daylight.o
 .debug_frame   0x0000004c      0x234 build/default/production/_ext/659867239/rtc.o
 .debug_frame   0x00000280       0x68 build/default/production/_ext/659867239/rtcconverter.o
 .debug_frame   0x000002e8       0x60 build/default/production/_ext/1360937237/BootLoader.o
 .debug_frame   0x00000348       0xf8 build/default/production/_ext/1360937237/Framework.o
 .debug_frame   0x00000440       0x94 build/default/production/_ext/1360937237/NVMem.o
 .debug_frame   0x000004d4       0xc8 build/default/production/_ext/1360937237/EthernetTasks.o
 .debug_frame   0x0000059c       0xc8 build/default/production/_ext/1360937237/Tick.o
 .debug_frame   0x00000664       0x84 build/default/production/_ext/1360937237/stack_task.o
 .debug_frame   0x000006e8      0x1f4 build/default/production/_ext/1360937237/UDP.o
 .debug_frame   0x000008dc      0x114 build/default/production/_ext/1360937237/dhcp_client.o
 .debug_frame   0x000009f0       0xcc build/default/production/_ext/1360937237/ARP.o
 .debug_frame   0x00000abc      0x140 build/default/production/_ext/1360937237/Helpers.o
 .debug_frame   0x00000bfc       0xdc build/default/production/_ext/1360937237/dns_client.o
 .debug_frame   0x00000cd8       0x4c build/default/production/_ext/1360937237/nbns.o
 .debug_frame   0x00000d24      0x324 build/default/production/_ext/1360937237/drv_wifi_mac.o
 .debug_frame   0x00001048      0x214 build/default/production/_ext/1360937237/drv_wifi_raw.o
 .debug_frame   0x0000125c      0x194 build/default/production/_ext/1360937237/drv_wifi_com.o
 .debug_frame   0x000013f0       0x44 build/default/production/_ext/1360937237/Delay.o
 .debug_frame   0x00001434       0xb8 build/default/production/_ext/1360937237/drv_wifi_eint.o
 .debug_frame   0x000014ec       0x8c build/default/production/_ext/1360937237/drv_wifi_debug_strings.o
 .debug_frame   0x00001578       0x64 build/default/production/_ext/1360937237/drv_wifi_spi.o
 .debug_frame   0x000015dc      0x13c build/default/production/_ext/1360937237/drv_wifi_power_save.o
 .debug_frame   0x00001718       0x68 build/default/production/_ext/1360937237/announce.o
 .debug_frame   0x00001780       0x98 build/default/production/_ext/1360937237/drv_wifi_mgmt_msg.o
 .debug_frame   0x00001818       0x30 build/default/production/_ext/1360937237/drv_wifi_event_handler.o
 .debug_frame   0x00001848       0x34 build/default/production/_ext/1360937237/drv_wifi_config.o
 .debug_frame   0x0000187c      0x360 build/default/production/_ext/1360937237/drv_wifi_connection_algorithm.o
 .debug_frame   0x00001bdc       0xc8 build/default/production/_ext/1360937237/drv_wifi_connection_manager.o
 .debug_frame   0x00001ca4      0x160 build/default/production/_ext/1360937237/drv_wifi_pbkdf2.o
 .debug_frame   0x00001e04       0x2c build/default/production/_ext/1360937237/drv_wifi_init.o
 .debug_frame   0x00001e30      0x1c8 build/default/production/_ext/1360937237/drv_wifi_param_msg.o
 .debug_frame   0x00001ff8       0x84 build/default/production/_ext/1360937237/IP.o
 .debug_frame   0x0000207c       0x30 build/default/production/_ext/1360937237/icmp.o
 .debug_frame   0x000020ac       0x20 build/default/production/_ext/1360937237/uart.o
 .debug_frame   0x000020cc      0x2a0 build/default/production/_ext/1360937237/drv_wifi_connection_profile.o
 .debug_frame   0x0000236c       0x5c build/default/production/_ext/252762716/sntp.o
 .debug_frame   0x000023c8       0x20 c:/program files (x86)/microchip/xc32/v2.30/bin/bin/../../lib/gcc/pic32mx/4.8.3/../../../../pic32mx/lib\libmchp_peripheral.a(read_core_timer_lib.o)
 .debug_frame   0x000023e8       0x20 c:/program files (x86)/microchip/xc32/v2.30/bin/bin/../../lib/gcc/pic32mx/4.8.3/../../../../pic32mx/lib\libmchp_peripheral.a(write_core_timer_lib.o)
 .debug_frame   0x00002408       0x30 c:/program files (x86)/microchip/xc32/v2.30/bin/bin/../../lib/gcc/pic32mx/4.8.3/../../../../pic32mx/lib\libmchp_peripheral_32MX440F256H.a(pcache.o)
 .debug_frame   0x00002438       0x20 c:/program files (x86)/microchip/xc32/v2.30/bin/bin/../../lib/gcc/pic32mx/4.8.3/../../../../pic32mx/lib\libmchp_peripheral_32MX440F256H.a(int_disable_interrupts_lib.o)
 .debug_frame   0x00002458       0x20 c:/program files (x86)/microchip/xc32/v2.30/bin/bin/../../lib/gcc/pic32mx/4.8.3/../../../../pic32mx/lib\libmchp_peripheral_32MX440F256H.a(int_restore_interrupts_lib.o)
 .debug_frame   0x00002478       0x28 c:/program files (x86)/microchip/xc32/v2.30/bin/bin/../../lib/gcc/pic32mx/4.8.3/../../../../pic32mx/lib\libmchp_peripheral_32MX440F256H.a(int_enable_mv_int_lib.o)
 .debug_frame   0x000024a0       0x30 c:/program files (x86)/microchip/xc32/v2.30/bin/bin/../../lib/gcc/pic32mx/4.8.3/../../../../pic32mx/lib\libmchp_peripheral_32MX440F256H.a(puts_uartx_lib_legacy.o)
 .debug_frame   0x000024d0       0x20 c:/program files (x86)/microchip/xc32/v2.30/bin/bin/../../lib/gcc/pic32mx/4.8.3/../../../../pic32mx/lib\libmchp_peripheral_32MX440F256H.a(int_enable_interrupts_lib.o)
 .debug_frame   0x000024f0       0x20 c:/program files (x86)/microchip/xc32/v2.30/bin/bin/../../lib/gcc/pic32mx/4.8.3\libgcc.a(_udivdi3.o)
 .debug_frame   0x00002510       0x20 c:/program files (x86)/microchip/xc32/v2.30/bin/bin/../../lib/gcc/pic32mx/4.8.3\libgcc.a(_umoddi3.o)
 .debug_frame   0x00002530       0x2c c:/program files (x86)/microchip/xc32/v2.30/bin/bin/../../lib/gcc/pic32mx/4.8.3/../../../../pic32mx/lib\libpic32.a(default-bootstrap-exception-handler.o)
 .debug_frame   0x0000255c       0x20 c:/program files (x86)/microchip/xc32/v2.30/bin/bin/../../lib/gcc/pic32mx/4.8.3/../../../../pic32mx/lib\libpic32.a(default-on-reset.o)
 .debug_frame   0x0000257c       0x20 c:/program files (x86)/microchip/xc32/v2.30/bin/bin/../../lib/gcc/pic32mx/4.8.3/../../../../pic32mx/lib\libpic32.a(default-on-bootstrap.o)
 .debug_frame   0x0000259c       0x2c c:/program files (x86)/microchip/xc32/v2.30/bin/bin/../../lib/gcc/pic32mx/4.8.3/../../../../pic32mx/lib\libpic32.a(default-general-exception-handler.o)
 .debug_frame   0x000025c8       0x20 c:/program files (x86)/microchip/xc32/v2.30/bin/bin/../../lib/gcc/pic32mx/4.8.3/../../../../pic32mx/lib\libpic32.a(defaultinterrupt.o)
 .debug_frame   0x000025e8       0x20 c:/program files (x86)/microchip/xc32/v2.30/bin/bin/../../lib/gcc/pic32mx/4.8.3/../../../../pic32mx/lib\libc.a(strncpy.o)
 .debug_frame   0x00002608       0x2c c:/program files (x86)/microchip/xc32/v2.30/bin/bin/../../lib/gcc/pic32mx/4.8.3/../../../../pic32mx/lib\libc.a(sprintf_cdnopsuxX.eo)
 .debug_frame   0x00002634       0x40 c:/program files (x86)/microchip/xc32/v2.30/bin/bin/../../lib/gcc/pic32mx/4.8.3/../../../../pic32mx/lib\libc.a(doprnt_cdnopsuxX.eo)
 .debug_frame   0x00002674       0x30 c:/program files (x86)/microchip/xc32/v2.30/bin/bin/../../lib/gcc/pic32mx/4.8.3/../../../../pic32mx/lib\libc.a(_fputc_simple.o)
 .debug_frame   0x000026a4       0x38 c:/program files (x86)/microchip/xc32/v2.30/bin/bin/../../lib/gcc/pic32mx/4.8.3/../../../../pic32mx/lib\libc.a(_flsbuf_simple.o)
 .debug_frame   0x000026dc       0x38 c:/program files (x86)/microchip/xc32/v2.30/bin/bin/../../lib/gcc/pic32mx/4.8.3/../../../../pic32mx/lib\libpic32.a(write.o)
 .debug_frame   0x00002714       0x34 c:/program files (x86)/microchip/xc32/v2.30/bin/bin/../../lib/gcc/pic32mx/4.8.3/../../../../pic32mx/lib\libpic32.a(_mon_putc.o)

.debug_str      0x00000000      0x3a8
 *(.debug_str)
 .debug_str     0x00000000        0x7 build/default/production/_ext/659867239/daylight.o
 .debug_str     0x00000007       0x10 build/default/production/_ext/659867239/rtc.o
 .debug_str     0x00000017       0x29 build/default/production/_ext/659867239/rtcconverter.o
 .debug_str     0x00000040       0x15 build/default/production/_ext/1360937237/BootLoader.o
 .debug_str     0x00000055        0x0 build/default/production/_ext/1360937237/Framework.o
 .debug_str     0x00000055        0x8 build/default/production/_ext/1360937237/NVMem.o
 .debug_str     0x0000005d        0x0 build/default/production/_ext/1360937237/EthernetTasks.o
 .debug_str     0x0000005d        0x0 build/default/production/_ext/1360937237/Tick.o
 .debug_str     0x0000005d        0x0 build/default/production/_ext/1360937237/stack_task.o
 .debug_str     0x0000005d       0x34 build/default/production/_ext/1360937237/UDP.o
 .debug_str     0x00000091        0xb build/default/production/_ext/1360937237/dhcp_client.o
 .debug_str     0x0000009c        0xe build/default/production/_ext/1360937237/ARP.o
 .debug_str     0x000000aa        0x0 build/default/production/_ext/1360937237/Helpers.o
 .debug_str     0x000000aa        0x0 build/default/production/_ext/1360937237/dns_client.o
 .debug_str     0x000000aa        0xb build/default/production/_ext/1360937237/nbns.o
 .debug_str     0x000000b5        0xa build/default/production/_ext/1360937237/drv_wifi_mac.o
 .debug_str     0x000000bf       0x5c build/default/production/_ext/1360937237/drv_wifi_raw.o
 .debug_str     0x0000011b        0x6 build/default/production/_ext/1360937237/drv_wifi_com.o
 .debug_str     0x00000121        0x0 build/default/production/_ext/1360937237/Delay.o
 .debug_str     0x00000121        0x0 build/default/production/_ext/1360937237/drv_wifi_eint.o
 .debug_str     0x00000121        0xa build/default/production/_ext/1360937237/drv_wifi_debug_strings.o
 .debug_str     0x0000012b        0x0 build/default/production/_ext/1360937237/drv_wifi_spi.o
 .debug_str     0x0000012b        0xb build/default/production/_ext/1360937237/drv_wifi_power_save.o
 .debug_str     0x00000136       0x14 build/default/production/_ext/1360937237/announce.o
 .debug_str     0x0000014a       0x10 build/default/production/_ext/1360937237/drv_wifi_mgmt_msg.o
 .debug_str     0x0000015a        0xb build/default/production/_ext/1360937237/drv_wifi_event_handler.o
 .debug_str     0x00000165        0x0 build/default/production/_ext/1360937237/drv_wifi_config.o
 .debug_str     0x00000165       0xe4 build/default/production/_ext/1360937237/drv_wifi_connection_algorithm.o
 .debug_str     0x00000249       0x15 build/default/production/_ext/1360937237/drv_wifi_connection_manager.o
 .debug_str     0x0000025e       0x52 build/default/production/_ext/1360937237/drv_wifi_pbkdf2.o
 .debug_str     0x000002b0        0x0 build/default/production/_ext/1360937237/drv_wifi_init.o
 .debug_str     0x000002b0       0x49 build/default/production/_ext/1360937237/drv_wifi_param_msg.o
 .debug_str     0x000002f9        0x9 build/default/production/_ext/1360937237/IP.o
 .debug_str     0x00000302        0x0 build/default/production/_ext/1360937237/icmp.o
 .debug_str     0x00000302        0x0 build/default/production/_ext/1360937237/tcp.o
 .debug_str     0x00000302        0x0 build/default/production/_ext/1360937237/uart.o
 .debug_str     0x00000302       0xa6 build/default/production/_ext/1360937237/drv_wifi_connection_profile.o
 .debug_str     0x000003a8        0x0 build/default/production/_ext/252762716/sntp.o
 .debug_str     0x000003a8        0x0 build/default/production/_ext/252762716/ssl.o
 .debug_str     0x000003a8        0x0 build/default/production/_ext/252762716/random.o
 .debug_str     0x000003a8        0x0 build/default/production/_ext/252762716/hashes.o
 .debug_str     0x000003a8        0x0 build/default/production/_ext/252762716/rsa.o
 .debug_str     0x000003a8        0x0 build/default/production/_ext/252762716/big_int.o
 .debug_str     0x000003a8        0x0 build/default/production/_ext/252762716/custom_ssl_cert.o
 .debug_str     0x000003a8        0x0 build/default/production/_ext/252762716/arc4.o
 .debug_str     0x000003a8        0x0 build/default/production/_ext/1360937237/smtp.o
 .debug_str     0x000003a8        0x0 build/default/production/_ext/1360937237/smtp_demo.o
 .debug_str     0x000003a8        0x0 build/default/production/_ext/252762716/http2.o
 .debug_str     0x000003a8        0x0 build/default/production/_ext/252762716/mpfs2.o
 .debug_str     0x000003a8        0x0 build/default/production/_ext/252762716/custom_http_app.o
 .debug_str     0x000003a8        0x0 build/default/production/_ext/252762716/mpfs_img2.o
 .debug_str     0x000003a8        0x0 c:/program files (x86)/microchip/xc32/v2.30/bin/bin/../../lib/gcc/pic32mx/4.8.3/../../../../pic32mx/lib\libmchp_peripheral.a(read_core_timer_lib.o)
 .debug_str     0x000003a8        0x0 c:/program files (x86)/microchip/xc32/v2.30/bin/bin/../../lib/gcc/pic32mx/4.8.3/../../../../pic32mx/lib\libmchp_peripheral.a(write_core_timer_lib.o)
 .debug_str     0x000003a8        0x0 c:/program files (x86)/microchip/xc32/v2.30/bin/bin/../../lib/gcc/pic32mx/4.8.3/../../../../pic32mx/lib\libmchp_peripheral_32MX440F256H.a(pcache.o)
 .debug_str     0x000003a8        0x0 c:/program files (x86)/microchip/xc32/v2.30/bin/bin/../../lib/gcc/pic32mx/4.8.3/../../../../pic32mx/lib\libmchp_peripheral_32MX440F256H.a(int_disable_interrupts_lib.o)
 .debug_str     0x000003a8        0x0 c:/program files (x86)/microchip/xc32/v2.30/bin/bin/../../lib/gcc/pic32mx/4.8.3/../../../../pic32mx/lib\libmchp_peripheral_32MX440F256H.a(int_restore_interrupts_lib.o)
 .debug_str     0x000003a8        0x0 c:/program files (x86)/microchip/xc32/v2.30/bin/bin/../../lib/gcc/pic32mx/4.8.3/../../../../pic32mx/lib\libmchp_peripheral_32MX440F256H.a(int_enable_mv_int_lib.o)
 .debug_str     0x000003a8        0x0 c:/program files (x86)/microchip/xc32/v2.30/bin/bin/../../lib/gcc/pic32mx/4.8.3/../../../../pic32mx/lib\libmchp_peripheral_32MX440F256H.a(puts_uartx_lib_legacy.o)
 .debug_str     0x000003a8        0x0 c:/program files (x86)/microchip/xc32/v2.30/bin/bin/../../lib/gcc/pic32mx/4.8.3/../../../../pic32mx/lib\libmchp_peripheral_32MX440F256H.a(int_enable_interrupts_lib.o)
 .debug_str     0x000003a8        0x0 c:/program files (x86)/microchip/xc32/v2.30/bin/bin/../../lib/gcc/pic32mx/4.8.3\libgcc.a(_udivdi3.o)
 .debug_str     0x000003a8        0x0 c:/program files (x86)/microchip/xc32/v2.30/bin/bin/../../lib/gcc/pic32mx/4.8.3\libgcc.a(_umoddi3.o)
 .debug_str     0x000003a8        0x0 c:/program files (x86)/microchip/xc32/v2.30/bin/bin/../../lib/gcc/pic32mx/4.8.3/../../../../pic32mx/lib\libpic32.a(default-bootstrap-exception-handler.o)
 .debug_str     0x000003a8        0x0 c:/program files (x86)/microchip/xc32/v2.30/bin/bin/../../lib/gcc/pic32mx/4.8.3/../../../../pic32mx/lib\libpic32.a(default-on-reset.o)
 .debug_str     0x000003a8        0x0 c:/program files (x86)/microchip/xc32/v2.30/bin/bin/../../lib/gcc/pic32mx/4.8.3/../../../../pic32mx/lib\libpic32.a(default-on-bootstrap.o)
 .debug_str     0x000003a8        0x0 c:/program files (x86)/microchip/xc32/v2.30/bin/bin/../../lib/gcc/pic32mx/4.8.3/../../../../pic32mx/lib\libpic32.a(default-general-exception-handler.o)
 .debug_str     0x000003a8        0x0 c:/program files (x86)/microchip/xc32/v2.30/bin/bin/../../lib/gcc/pic32mx/4.8.3/../../../../pic32mx/lib\libpic32.a(defaultinterrupt.o)
 .debug_str     0x000003a8        0x0 c:/program files (x86)/microchip/xc32/v2.30/bin/bin/../../lib/gcc/pic32mx/4.8.3/../../../../pic32mx/lib\libc.a(strncpy.o)
 .debug_str     0x000003a8        0x0 c:/program files (x86)/microchip/xc32/v2.30/bin/bin/../../lib/gcc/pic32mx/4.8.3/../../../../pic32mx/lib\libc.a(sprintf_cdnopsuxX.eo)
 .debug_str     0x000003a8        0x0 c:/program files (x86)/microchip/xc32/v2.30/bin/bin/../../lib/gcc/pic32mx/4.8.3/../../../../pic32mx/lib\libc.a(doprnt_cdnopsuxX.eo)
 .debug_str     0x000003a8        0x0 c:/program files (x86)/microchip/xc32/v2.30/bin/bin/../../lib/gcc/pic32mx/4.8.3/../../../../pic32mx/lib\libc.a(_fputc_simple.o)
 .debug_str     0x000003a8        0x0 c:/program files (x86)/microchip/xc32/v2.30/bin/bin/../../lib/gcc/pic32mx/4.8.3/../../../../pic32mx/lib\libc.a(ctype.o)
 .debug_str     0x000003a8        0x0 c:/program files (x86)/microchip/xc32/v2.30/bin/bin/../../lib/gcc/pic32mx/4.8.3/../../../../pic32mx/lib\libc.a(_iob.o)
 .debug_str     0x000003a8        0x0 c:/program files (x86)/microchip/xc32/v2.30/bin/bin/../../lib/gcc/pic32mx/4.8.3/../../../../pic32mx/lib\libc.a(_flsbuf_simple.o)
 .debug_str     0x000003a8        0x0 c:/program files (x86)/microchip/xc32/v2.30/bin/bin/../../lib/gcc/pic32mx/4.8.3/../../../../pic32mx/lib\libpic32.a(write.o)
 .debug_str     0x000003a8        0x0 c:/program files (x86)/microchip/xc32/v2.30/bin/bin/../../lib/gcc/pic32mx/4.8.3/../../../../pic32mx/lib\libpic32.a(_mon_putc.o)
 .debug_str     0x000003a8        0x0 c:/program files (x86)/microchip/xc32/v2.30/bin/bin/../../lib/gcc/pic32mx/4.8.3/../../../../pic32mx/lib\libpic32.a(xc32_uart.o)

.debug_loc      0x00000000     0x84d4
 *(.debug_loc)
 .debug_loc     0x00000000      0x1ee build/default/production/_ext/659867239/daylight.o
 .debug_loc     0x000001ee      0x6f7 build/default/production/_ext/659867239/rtc.o
 .debug_loc     0x000008e5      0x2f4 build/default/production/_ext/659867239/rtcconverter.o
 .debug_loc     0x00000bd9       0x7c build/default/production/_ext/1360937237/BootLoader.o
 .debug_loc     0x00000c55      0x4cc build/default/production/_ext/1360937237/Framework.o
 .debug_loc     0x00001121      0x1b2 build/default/production/_ext/1360937237/NVMem.o
 .debug_loc     0x000012d3      0x113 build/default/production/_ext/1360937237/EthernetTasks.o
 .debug_loc     0x000013e6       0x3a build/default/production/_ext/1360937237/Tick.o
 .debug_loc     0x00001420      0x606 build/default/production/_ext/1360937237/UDP.o
 .debug_loc     0x00001a26      0x1ff build/default/production/_ext/1360937237/dhcp_client.o
 .debug_loc     0x00001c25      0x129 build/default/production/_ext/1360937237/ARP.o
 .debug_loc     0x00001d4e      0x830 build/default/production/_ext/1360937237/Helpers.o
 .debug_loc     0x0000257e      0x14b build/default/production/_ext/1360937237/dns_client.o
 .debug_loc     0x000026c9       0x8c build/default/production/_ext/1360937237/nbns.o
 .debug_loc     0x00002755      0x844 build/default/production/_ext/1360937237/drv_wifi_mac.o
 .debug_loc     0x00002f99      0x65e build/default/production/_ext/1360937237/drv_wifi_raw.o
 .debug_loc     0x000035f7      0x282 build/default/production/_ext/1360937237/drv_wifi_com.o
 .debug_loc     0x00003879       0x93 build/default/production/_ext/1360937237/Delay.o
 .debug_loc     0x0000390c      0x1ca build/default/production/_ext/1360937237/drv_wifi_debug_strings.o
 .debug_loc     0x00003ad6      0x11e build/default/production/_ext/1360937237/drv_wifi_spi.o
 .debug_loc     0x00003bf4       0xbd build/default/production/_ext/1360937237/drv_wifi_power_save.o
 .debug_loc     0x00003cb1       0x3d build/default/production/_ext/1360937237/announce.o
 .debug_loc     0x00003cee      0x19f build/default/production/_ext/1360937237/drv_wifi_mgmt_msg.o
 .debug_loc     0x00003e8d      0x1b2 build/default/production/_ext/1360937237/drv_wifi_event_handler.o
 .debug_loc     0x0000403f       0x6e build/default/production/_ext/1360937237/drv_wifi_config.o
 .debug_loc     0x000040ad      0x794 build/default/production/_ext/1360937237/drv_wifi_connection_algorithm.o
 .debug_loc     0x00004841      0x1aa build/default/production/_ext/1360937237/drv_wifi_connection_manager.o
 .debug_loc     0x000049eb     0x1435 build/default/production/_ext/1360937237/drv_wifi_pbkdf2.o
 .debug_loc     0x00005e20      0x48e build/default/production/_ext/1360937237/drv_wifi_param_msg.o
 .debug_loc     0x000062ae      0x1b7 build/default/production/_ext/1360937237/IP.o
 .debug_loc     0x00006465       0x4d build/default/production/_ext/1360937237/icmp.o
 .debug_loc     0x000064b2       0xae build/default/production/_ext/1360937237/uart.o
 .debug_loc     0x00006560      0x9d9 build/default/production/_ext/1360937237/drv_wifi_connection_profile.o
 .debug_loc     0x00006f39       0x44 build/default/production/_ext/252762716/sntp.o
 .debug_loc     0x00006f7d      0xa6a c:/program files (x86)/microchip/xc32/v2.30/bin/bin/../../lib/gcc/pic32mx/4.8.3\libgcc.a(_udivdi3.o)
 .debug_loc     0x000079e7      0xa3d c:/program files (x86)/microchip/xc32/v2.30/bin/bin/../../lib/gcc/pic32mx/4.8.3\libgcc.a(_umoddi3.o)
 .debug_loc     0x00008424       0x2c c:/program files (x86)/microchip/xc32/v2.30/bin/bin/../../lib/gcc/pic32mx/4.8.3/../../../../pic32mx/lib\libpic32.a(default-bootstrap-exception-handler.o)
 .debug_loc     0x00008450       0x2c c:/program files (x86)/microchip/xc32/v2.30/bin/bin/../../lib/gcc/pic32mx/4.8.3/../../../../pic32mx/lib\libpic32.a(default-general-exception-handler.o)
 .debug_loc     0x0000847c       0x38 c:/program files (x86)/microchip/xc32/v2.30/bin/bin/../../lib/gcc/pic32mx/4.8.3/../../../../pic32mx/lib\libpic32.a(write.o)
 .debug_loc     0x000084b4       0x20 c:/program files (x86)/microchip/xc32/v2.30/bin/bin/../../lib/gcc/pic32mx/4.8.3/../../../../pic32mx/lib\libpic32.a(_mon_putc.o)

.debug_macinfo
 *(.debug_macinfo)

.debug_weaknames
 *(.debug_weaknames)

.debug_funcnames
 *(.debug_funcnames)

.debug_typenames
 *(.debug_typenames)

.debug_varnames
 *(.debug_varnames)

.debug_pubtypes
 *(.debug_pubtypes)

.debug_ranges   0x00000000      0x4f0
 *(.debug_ranges)
 .debug_ranges  0x00000000       0x90 build/default/production/_ext/659867239/rtc.o
 .debug_ranges  0x00000090       0x50 build/default/production/_ext/659867239/rtcconverter.o
 .debug_ranges  0x000000e0       0x18 build/default/production/_ext/1360937237/NVMem.o
 .debug_ranges  0x000000f8       0x18 build/default/production/_ext/1360937237/UDP.o
 .debug_ranges  0x00000110       0x18 build/default/production/_ext/1360937237/nbns.o
 .debug_ranges  0x00000128       0x18 build/default/production/_ext/1360937237/drv_wifi_raw.o
 .debug_ranges  0x00000140       0x20 build/default/production/_ext/1360937237/drv_wifi_com.o
 .debug_ranges  0x00000160       0x48 build/default/production/_ext/1360937237/drv_wifi_debug_strings.o
 .debug_ranges  0x000001a8       0x18 build/default/production/_ext/1360937237/drv_wifi_event_handler.o
 .debug_ranges  0x000001c0       0x58 build/default/production/_ext/1360937237/drv_wifi_pbkdf2.o
 .debug_ranges  0x00000218       0x18 build/default/production/_ext/1360937237/drv_wifi_init.o
 .debug_ranges  0x00000230       0x10 c:/program files (x86)/microchip/xc32/v2.30/bin/bin/../../lib/gcc/pic32mx/4.8.3/../../../../pic32mx/lib\libmchp_peripheral.a(read_core_timer_lib.o)
 .debug_ranges  0x00000240       0x10 c:/program files (x86)/microchip/xc32/v2.30/bin/bin/../../lib/gcc/pic32mx/4.8.3/../../../../pic32mx/lib\libmchp_peripheral.a(write_core_timer_lib.o)
 .debug_ranges  0x00000250       0x18 c:/program files (x86)/microchip/xc32/v2.30/bin/bin/../../lib/gcc/pic32mx/4.8.3/../../../../pic32mx/lib\libmchp_peripheral_32MX440F256H.a(pcache.o)
 .debug_ranges  0x00000268       0x10 c:/program files (x86)/microchip/xc32/v2.30/bin/bin/../../lib/gcc/pic32mx/4.8.3/../../../../pic32mx/lib\libmchp_peripheral_32MX440F256H.a(int_disable_interrupts_lib.o)
 .debug_ranges  0x00000278       0x10 c:/program files (x86)/microchip/xc32/v2.30/bin/bin/../../lib/gcc/pic32mx/4.8.3/../../../../pic32mx/lib\libmchp_peripheral_32MX440F256H.a(int_restore_interrupts_lib.o)
 .debug_ranges  0x00000288       0x10 c:/program files (x86)/microchip/xc32/v2.30/bin/bin/../../lib/gcc/pic32mx/4.8.3/../../../../pic32mx/lib\libmchp_peripheral_32MX440F256H.a(int_enable_mv_int_lib.o)
 .debug_ranges  0x00000298       0x18 c:/program files (x86)/microchip/xc32/v2.30/bin/bin/../../lib/gcc/pic32mx/4.8.3/../../../../pic32mx/lib\libmchp_peripheral_32MX440F256H.a(puts_uartx_lib_legacy.o)
 .debug_ranges  0x000002b0       0x10 c:/program files (x86)/microchip/xc32/v2.30/bin/bin/../../lib/gcc/pic32mx/4.8.3/../../../../pic32mx/lib\libmchp_peripheral_32MX440F256H.a(int_enable_interrupts_lib.o)
 .debug_ranges  0x000002c0       0x98 c:/program files (x86)/microchip/xc32/v2.30/bin/bin/../../lib/gcc/pic32mx/4.8.3\libgcc.a(_udivdi3.o)
 .debug_ranges  0x00000358       0xd8 c:/program files (x86)/microchip/xc32/v2.30/bin/bin/../../lib/gcc/pic32mx/4.8.3\libgcc.a(_umoddi3.o)
 .debug_ranges  0x00000430       0x10 c:/program files (x86)/microchip/xc32/v2.30/bin/bin/../../lib/gcc/pic32mx/4.8.3/../../../../pic32mx/lib\libpic32.a(default-bootstrap-exception-handler.o)
 .debug_ranges  0x00000440       0x10 c:/program files (x86)/microchip/xc32/v2.30/bin/bin/../../lib/gcc/pic32mx/4.8.3/../../../../pic32mx/lib\libpic32.a(default-on-reset.o)
 .debug_ranges  0x00000450       0x10 c:/program files (x86)/microchip/xc32/v2.30/bin/bin/../../lib/gcc/pic32mx/4.8.3/../../../../pic32mx/lib\libpic32.a(default-on-bootstrap.o)
 .debug_ranges  0x00000460       0x10 c:/program files (x86)/microchip/xc32/v2.30/bin/bin/../../lib/gcc/pic32mx/4.8.3/../../../../pic32mx/lib\libpic32.a(default-general-exception-handler.o)
 .debug_ranges  0x00000470       0x10 c:/program files (x86)/microchip/xc32/v2.30/bin/bin/../../lib/gcc/pic32mx/4.8.3/../../../../pic32mx/lib\libpic32.a(defaultinterrupt.o)
 .debug_ranges  0x00000480       0x10 c:/program files (x86)/microchip/xc32/v2.30/bin/bin/../../lib/gcc/pic32mx/4.8.3/../../../../pic32mx/lib\libc.a(strncpy.o)
 .debug_ranges  0x00000490       0x10 c:/program files (x86)/microchip/xc32/v2.30/bin/bin/../../lib/gcc/pic32mx/4.8.3/../../../../pic32mx/lib\libc.a(sprintf_cdnopsuxX.eo)
 .debug_ranges  0x000004a0       0x10 c:/program files (x86)/microchip/xc32/v2.30/bin/bin/../../lib/gcc/pic32mx/4.8.3/../../../../pic32mx/lib\libc.a(doprnt_cdnopsuxX.eo)
 .debug_ranges  0x000004b0       0x10 c:/program files (x86)/microchip/xc32/v2.30/bin/bin/../../lib/gcc/pic32mx/4.8.3/../../../../pic32mx/lib\libc.a(_fputc_simple.o)
 .debug_ranges  0x000004c0       0x10 c:/program files (x86)/microchip/xc32/v2.30/bin/bin/../../lib/gcc/pic32mx/4.8.3/../../../../pic32mx/lib\libc.a(_flsbuf_simple.o)
 .debug_ranges  0x000004d0       0x10 c:/program files (x86)/microchip/xc32/v2.30/bin/bin/../../lib/gcc/pic32mx/4.8.3/../../../../pic32mx/lib\libpic32.a(write.o)
 .debug_ranges  0x000004e0       0x10 c:/program files (x86)/microchip/xc32/v2.30/bin/bin/../../lib/gcc/pic32mx/4.8.3/../../../../pic32mx/lib\libpic32.a(_mon_putc.o)

.gnu.attributes
                0x00000000       0x10
 *(.gnu.attributes)
 .gnu.attributes
                0x00000000       0x10 build/default/production/_ext/659867239/daylight.o
 .gnu.attributes
                0x00000010       0x10 build/default/production/_ext/659867239/rtc.o
 .gnu.attributes
                0x00000020       0x10 build/default/production/_ext/659867239/rtcconverter.o
 .gnu.attributes
                0x00000030       0x10 build/default/production/_ext/1360937237/BootLoader.o
 .gnu.attributes
                0x00000040       0x10 build/default/production/_ext/1360937237/Framework.o
 .gnu.attributes
                0x00000050       0x10 build/default/production/_ext/1360937237/NVMem.o
 .gnu.attributes
                0x00000060       0x10 build/default/production/_ext/1360937237/EthernetTasks.o
 .gnu.attributes
                0x00000070       0x10 build/default/production/_ext/1360937237/Tick.o
 .gnu.attributes
                0x00000080       0x10 build/default/production/_ext/1360937237/stack_task.o
 .gnu.attributes
                0x00000090       0x10 build/default/production/_ext/1360937237/UDP.o
 .gnu.attributes
                0x000000a0       0x10 build/default/production/_ext/1360937237/dhcp_client.o
 .gnu.attributes
                0x000000b0       0x10 build/default/production/_ext/1360937237/ARP.o
 .gnu.attributes
                0x000000c0       0x10 build/default/production/_ext/1360937237/Helpers.o
 .gnu.attributes
                0x000000d0       0x10 build/default/production/_ext/1360937237/dns_client.o
 .gnu.attributes
                0x000000e0       0x10 build/default/production/_ext/1360937237/nbns.o
 .gnu.attributes
                0x000000f0       0x10 build/default/production/_ext/1360937237/drv_wifi_mac.o
 .gnu.attributes
                0x00000100       0x10 build/default/production/_ext/1360937237/drv_wifi_raw.o
 .gnu.attributes
                0x00000110       0x10 build/default/production/_ext/1360937237/drv_wifi_com.o
 .gnu.attributes
                0x00000120       0x10 build/default/production/_ext/1360937237/Delay.o
 .gnu.attributes
                0x00000130       0x10 build/default/production/_ext/1360937237/drv_wifi_eint.o
 .gnu.attributes
                0x00000140       0x10 build/default/production/_ext/1360937237/drv_wifi_debug_strings.o
 .gnu.attributes
                0x00000150       0x10 build/default/production/_ext/1360937237/drv_wifi_spi.o
 .gnu.attributes
                0x00000160       0x10 build/default/production/_ext/1360937237/drv_wifi_power_save.o
 .gnu.attributes
                0x00000170       0x10 build/default/production/_ext/1360937237/announce.o
 .gnu.attributes
                0x00000180       0x10 build/default/production/_ext/1360937237/drv_wifi_mgmt_msg.o
 .gnu.attributes
                0x00000190       0x10 build/default/production/_ext/1360937237/drv_wifi_event_handler.o
 .gnu.attributes
                0x000001a0       0x10 build/default/production/_ext/1360937237/drv_wifi_config.o
 .gnu.attributes
                0x000001b0       0x10 build/default/production/_ext/1360937237/drv_wifi_connection_algorithm.o
 .gnu.attributes
                0x000001c0       0x10 build/default/production/_ext/1360937237/drv_wifi_connection_manager.o
 .gnu.attributes
                0x000001d0       0x10 build/default/production/_ext/1360937237/drv_wifi_pbkdf2.o
 .gnu.attributes
                0x000001e0       0x10 build/default/production/_ext/1360937237/drv_wifi_init.o
 .gnu.attributes
                0x000001f0       0x10 build/default/production/_ext/1360937237/drv_wifi_param_msg.o
 .gnu.attributes
                0x00000200       0x10 build/default/production/_ext/1360937237/IP.o
 .gnu.attributes
                0x00000210       0x10 build/default/production/_ext/1360937237/icmp.o
 .gnu.attributes
                0x00000220       0x10 build/default/production/_ext/1360937237/tcp.o
 .gnu.attributes
                0x00000230       0x10 build/default/production/_ext/1360937237/uart.o
 .gnu.attributes
                0x00000240       0x10 build/default/production/_ext/1360937237/drv_wifi_connection_profile.o
 .gnu.attributes
                0x00000250       0x10 build/default/production/_ext/252762716/sntp.o
 .gnu.attributes
                0x00000260       0x10 build/default/production/_ext/252762716/ssl.o
 .gnu.attributes
                0x00000270       0x10 build/default/production/_ext/252762716/random.o
 .gnu.attributes
                0x00000280       0x10 build/default/production/_ext/252762716/hashes.o
 .gnu.attributes
                0x00000290       0x10 build/default/production/_ext/252762716/rsa.o
 .gnu.attributes
                0x000002a0       0x10 build/default/production/_ext/252762716/big_int.o
 .gnu.attributes
                0x000002b0       0x10 build/default/production/_ext/252762716/custom_ssl_cert.o
 .gnu.attributes
                0x000002c0       0x10 build/default/production/_ext/252762716/arc4.o
 .gnu.attributes
                0x000002d0       0x10 build/default/production/_ext/1360937237/smtp.o
 .gnu.attributes
                0x000002e0       0x10 build/default/production/_ext/1360937237/smtp_demo.o
 .gnu.attributes
                0x000002f0       0x10 build/default/production/_ext/252762716/http2.o
 .gnu.attributes
                0x00000300       0x10 build/default/production/_ext/252762716/mpfs2.o
 .gnu.attributes
                0x00000310       0x10 build/default/production/_ext/252762716/custom_http_app.o
 .gnu.attributes
                0x00000320       0x10 build/default/production/_ext/252762716/mpfs_img2.o
 .gnu.attributes
                0x00000330       0x10 c:/program files (x86)/microchip/xc32/v2.30/bin/bin/../../lib/gcc/pic32mx/4.8.3/../../../../pic32mx/lib\libmchp_peripheral.a(read_core_timer_lib.o)
 .gnu.attributes
                0x00000340       0x10 c:/program files (x86)/microchip/xc32/v2.30/bin/bin/../../lib/gcc/pic32mx/4.8.3/../../../../pic32mx/lib\libmchp_peripheral.a(write_core_timer_lib.o)
 .gnu.attributes
                0x00000350       0x10 c:/program files (x86)/microchip/xc32/v2.30/bin/bin/../../lib/gcc/pic32mx/4.8.3/../../../../pic32mx/lib\libmchp_peripheral_32MX440F256H.a(pcache.o)
 .gnu.attributes
                0x00000360       0x10 c:/program files (x86)/microchip/xc32/v2.30/bin/bin/../../lib/gcc/pic32mx/4.8.3/../../../../pic32mx/lib\libmchp_peripheral_32MX440F256H.a(int_disable_interrupts_lib.o)
 .gnu.attributes
                0x00000370       0x10 c:/program files (x86)/microchip/xc32/v2.30/bin/bin/../../lib/gcc/pic32mx/4.8.3/../../../../pic32mx/lib\libmchp_peripheral_32MX440F256H.a(int_restore_interrupts_lib.o)
 .gnu.attributes
                0x00000380       0x10 c:/program files (x86)/microchip/xc32/v2.30/bin/bin/../../lib/gcc/pic32mx/4.8.3/../../../../pic32mx/lib\libmchp_peripheral_32MX440F256H.a(int_enable_mv_int_lib.o)
 .gnu.attributes
                0x00000390       0x10 c:/program files (x86)/microchip/xc32/v2.30/bin/bin/../../lib/gcc/pic32mx/4.8.3/../../../../pic32mx/lib\libmchp_peripheral_32MX440F256H.a(puts_uartx_lib_legacy.o)
 .gnu.attributes
                0x000003a0       0x10 c:/program files (x86)/microchip/xc32/v2.30/bin/bin/../../lib/gcc/pic32mx/4.8.3/../../../../pic32mx/lib\libmchp_peripheral_32MX440F256H.a(int_enable_interrupts_lib.o)
 .gnu.attributes
                0x000003b0       0x10 c:/program files (x86)/microchip/xc32/v2.30/bin/bin/../../lib/gcc/pic32mx/4.8.3\libgcc.a(_udivdi3.o)
 .gnu.attributes
                0x000003c0       0x10 c:/program files (x86)/microchip/xc32/v2.30/bin/bin/../../lib/gcc/pic32mx/4.8.3\libgcc.a(_umoddi3.o)
 .gnu.attributes
                0x000003d0       0x10 c:/program files (x86)/microchip/xc32/v2.30/bin/bin/../../lib/gcc/pic32mx/4.8.3/../../../../pic32mx/lib\libpic32.a(default-bootstrap-exception-handler.o)
 .gnu.attributes
                0x000003e0       0x10 c:/program files (x86)/microchip/xc32/v2.30/bin/bin/../../lib/gcc/pic32mx/4.8.3/../../../../pic32mx/lib\libpic32.a(default-on-reset.o)
 .gnu.attributes
                0x000003f0       0x10 c:/program files (x86)/microchip/xc32/v2.30/bin/bin/../../lib/gcc/pic32mx/4.8.3/../../../../pic32mx/lib\libpic32.a(default-on-bootstrap.o)
 .gnu.attributes
                0x00000400       0x10 c:/program files (x86)/microchip/xc32/v2.30/bin/bin/../../lib/gcc/pic32mx/4.8.3/../../../../pic32mx/lib\libpic32.a(default-general-exception-handler.o)
 .gnu.attributes
                0x00000410       0x10 c:/program files (x86)/microchip/xc32/v2.30/bin/bin/../../lib/gcc/pic32mx/4.8.3/../../../../pic32mx/lib\libpic32.a(defaultinterrupt.o)
 .gnu.attributes
                0x00000420       0x10 c:/program files (x86)/microchip/xc32/v2.30/bin/bin/../../lib/gcc/pic32mx/4.8.3/../../../../pic32mx/lib\libc.a(strncpy.o)
 .gnu.attributes
                0x00000430       0x10 c:/program files (x86)/microchip/xc32/v2.30/bin/bin/../../lib/gcc/pic32mx/4.8.3/../../../../pic32mx/lib\libc.a(sprintf_cdnopsuxX.eo)
 .gnu.attributes
                0x00000440       0x10 c:/program files (x86)/microchip/xc32/v2.30/bin/bin/../../lib/gcc/pic32mx/4.8.3/../../../../pic32mx/lib\libc.a(doprnt_cdnopsuxX.eo)
 .gnu.attributes
                0x00000450       0x10 c:/program files (x86)/microchip/xc32/v2.30/bin/bin/../../lib/gcc/pic32mx/4.8.3/../../../../pic32mx/lib\libc.a(_fputc_simple.o)
 .gnu.attributes
                0x00000460       0x10 c:/program files (x86)/microchip/xc32/v2.30/bin/bin/../../lib/gcc/pic32mx/4.8.3/../../../../pic32mx/lib\libc.a(ctype.o)
 .gnu.attributes
                0x00000470       0x10 c:/program files (x86)/microchip/xc32/v2.30/bin/bin/../../lib/gcc/pic32mx/4.8.3/../../../../pic32mx/lib\libc.a(_iob.o)
 .gnu.attributes
                0x00000480       0x10 c:/program files (x86)/microchip/xc32/v2.30/bin/bin/../../lib/gcc/pic32mx/4.8.3/../../../../pic32mx/lib\libc.a(_flsbuf_simple.o)
 .gnu.attributes
                0x00000490       0x10 c:/program files (x86)/microchip/xc32/v2.30/bin/bin/../../lib/gcc/pic32mx/4.8.3/../../../../pic32mx/lib\libpic32.a(write.o)
 .gnu.attributes
                0x000004a0       0x10 c:/program files (x86)/microchip/xc32/v2.30/bin/bin/../../lib/gcc/pic32mx/4.8.3/../../../../pic32mx/lib\libpic32.a(_mon_putc.o)
 .gnu.attributes
                0x000004b0       0x10 c:/program files (x86)/microchip/xc32/v2.30/bin/bin/../../lib/gcc/pic32mx/4.8.3/../../../../pic32mx/lib\libpic32.a(xc32_uart.o)
LOAD C:\Users\kyrk\AppData\Local\Temp\cciFSByj.o
LOAD C:\Users\kyrk\AppData\Local\Temp\ccz1PUY4.o
LOAD C:\Users\kyrk\AppData\Local\Temp\ccmCSEZY.o
LOAD c:/program files (x86)/microchip/xc32/v2.30/bin/bin/../../lib/gcc/pic32mx/4.8.3/../../../../pic32mx/lib/./proc/32MX440F256H\default_isr_vectors.o
LOAD c:/program files (x86)/microchip/xc32/v2.30/bin/bin/../../lib/gcc/pic32mx/4.8.3/../../../../pic32mx/lib\pic32_software_reset.o
LOAD c:/program files (x86)/microchip/xc32/v2.30/bin/bin/../../lib/gcc/pic32mx/4.8.3\libgcc.a
START GROUP
LOAD c:/program files (x86)/microchip/xc32/v2.30/bin/bin/../../lib/gcc/pic32mx/4.8.3/../../../../pic32mx/lib\libpic32.a
LOAD c:/program files (x86)/microchip/xc32/v2.30/bin/bin/../../lib/gcc/pic32mx/4.8.3/../../../../pic32mx/lib\libdebug.a
LOAD c:/program files (x86)/microchip/xc32/v2.30/bin/bin/../../lib/gcc/pic32mx/4.8.3/../../../../pic32mx/lib\libpic32.a
LOAD c:/program files (x86)/microchip/xc32/v2.30/bin/bin/../../lib/gcc/pic32mx/4.8.3/../../../../pic32mx/lib\libc.a
LOAD c:/program files (x86)/microchip/xc32/v2.30/bin/bin/../../lib/gcc/pic32mx/4.8.3/../../../../pic32mx/lib\libc.a
LOAD c:/program files (x86)/microchip/xc32/v2.30/bin/bin/../../lib/gcc/pic32mx/4.8.3/../../../../pic32mx/lib\libm.a
LOAD c:/program files (x86)/microchip/xc32/v2.30/bin/bin/../../lib/gcc/pic32mx/4.8.3/../../../../pic32mx/lib\libe.a
LOAD c:/program files (x86)/microchip/xc32/v2.30/bin/bin/../../lib/gcc/pic32mx/4.8.3/../../../../pic32mx/lib\libdsp.a
LOAD c:/program files (x86)/microchip/xc32/v2.30/bin/bin/../../lib/gcc/pic32mx/4.8.3\libgcc.a
LOAD c:/program files (x86)/microchip/xc32/v2.30/bin/bin/../../lib/gcc/pic32mx/4.8.3/../../../../pic32mx/lib\libpic32.a
END GROUP
LOAD c:/program files (x86)/microchip/xc32/v2.30/bin/bin/../../lib/gcc/pic32mx/4.8.3\libgcc.a
OUTPUT(dist/default/production/WiFiBootloader_MRF24WB.X.production.elf elf32-tradlittlemips)
LOAD stack
LOAD data_init

.reginfo        0x00000000       0x18
 .reginfo       0x00000000       0x18 c:/program files (x86)/microchip/xc32/v2.30/bin/bin/../../lib/gcc/pic32mx/4.8.3/../../../../pic32mx/lib\debug-exception-return.o

.stack          0xa0001200      0x400
 .stack         0xa0001200      0x400 stack

.bootloader_request_B.bootloader_request_B
                0x80007f10        0x4
 .bootloader_request_B.bootloader_request_B
                0x80007f10        0x4 build/default/production/_ext/1360937237/BootLoader.o
                0x80007f10                bootloader_request_B

.bootloader_request_A.bootloader_request_A
                0x80007f00        0x4
 .bootloader_request_A.bootloader_request_A
                0x80007f00        0x4 build/default/production/_ext/1360937237/BootLoader.o
                0x80007f00                bootloader_request_A

.bss            0xa00007a4      0x7f4
 .bss           0xa00007a4      0x7f4 build/default/production/_ext/1360937237/Framework.o

.data           0xa0000f98      0x168
 .data          0xa0000f98       0xc4 build/default/production/_ext/1360937237/drv_wifi_debug_strings.o
                0xa0000f98                moduleName
                0xa0000ff4                connectionLostStrings
                0xa000100c                connectionFailureStrings
 .data          0xa000105c       0xa4 c:/program files (x86)/microchip/xc32/v2.30/bin/bin/../../lib/gcc/pic32mx/4.8.3/../../../../pic32mx/lib\libc.a(_iob.o)
                0xa000105c                _Files
                0xa0001060                _iob

.bss            0xa0001100       0x78
 .bss           0xa0001100       0x44 c:/program files (x86)/microchip/xc32/v2.30/bin/bin/../../lib/gcc/pic32mx/4.8.3/../../../../pic32mx/lib\libc.a(_iob.o)
                0xa0001100                _sobuf
                0xa0001120                _sibuf
                0xa0001140                _outdone
 .bss           0xa0001144       0x34 build/default/production/_ext/1360937237/dhcp_client.o

.bss            0xa0001180       0x38
 .bss           0xa0001180       0x20 build/default/production/_ext/1360937237/big_int_helper_pic32.o
                0xa0001180                _iA
                0xa0001184                _xA
                0xa0001188                _iB
                0xa000118c                _xB
                0xa0001190                _iR
                0xa0001194                _wC
 .bss           0xa00011a0       0x18 build/default/production/_ext/1360937237/ARP.o

.data           0xa00011b8       0x10
 .data          0xa00011b8       0x10 build/default/production/_ext/659867239/rtc.o
                0xa00011b8                timeDate

.bss            0xa00011c8        0xc
 .bss           0xa00011c8        0xc build/default/production/_ext/1360937237/dns_client.o

.bss%z1         0x00000000        0x0
 .bss           0x00000000        0x0 c:/program files (x86)/microchip/xc32/v2.30/bin/bin/../../lib/gcc/pic32mx/4.8.3/../../../../pic32mx/lib\libpic32.a(xc32_uart.o)

.data%z2        0x00000000        0x0
 .data          0x00000000        0x0 c:/program files (x86)/microchip/xc32/v2.30/bin/bin/../../lib/gcc/pic32mx/4.8.3/../../../../pic32mx/lib\libpic32.a(xc32_uart.o)

.bss%z3         0x00000000        0x0
 .bss           0x00000000        0x0 c:/program files (x86)/microchip/xc32/v2.30/bin/bin/../../lib/gcc/pic32mx/4.8.3/../../../../pic32mx/lib\libpic32.a(_mon_putc.o)

.data%z4        0x00000000        0x0
 .data          0x00000000        0x0 c:/program files (x86)/microchip/xc32/v2.30/bin/bin/../../lib/gcc/pic32mx/4.8.3/../../../../pic32mx/lib\libpic32.a(_mon_putc.o)

.bss%z5         0x00000000        0x0
 .bss           0x00000000        0x0 c:/program files (x86)/microchip/xc32/v2.30/bin/bin/../../lib/gcc/pic32mx/4.8.3/../../../../pic32mx/lib\libpic32.a(write.o)

.data%z6        0x00000000        0x0
 .data          0x00000000        0x0 c:/program files (x86)/microchip/xc32/v2.30/bin/bin/../../lib/gcc/pic32mx/4.8.3/../../../../pic32mx/lib\libpic32.a(write.o)

.bss%z7         0x00000000        0x0
 .bss           0x00000000        0x0 c:/program files (x86)/microchip/xc32/v2.30/bin/bin/../../lib/gcc/pic32mx/4.8.3/../../../../pic32mx/lib\libc.a(_flsbuf_simple.o)

.data%z8        0x00000000        0x0
 .data          0x00000000        0x0 c:/program files (x86)/microchip/xc32/v2.30/bin/bin/../../lib/gcc/pic32mx/4.8.3/../../../../pic32mx/lib\libc.a(_flsbuf_simple.o)

.bss%z9         0x00000000        0x0
 .bss           0x00000000        0x0 c:/program files (x86)/microchip/xc32/v2.30/bin/bin/../../lib/gcc/pic32mx/4.8.3/../../../../pic32mx/lib\libc.a(ctype.o)

.data%z10       0x00000000        0x0
 .data          0x00000000        0x0 c:/program files (x86)/microchip/xc32/v2.30/bin/bin/../../lib/gcc/pic32mx/4.8.3/../../../../pic32mx/lib\libc.a(ctype.o)

.bss%z11        0x00000000        0x0
 .bss           0x00000000        0x0 c:/program files (x86)/microchip/xc32/v2.30/bin/bin/../../lib/gcc/pic32mx/4.8.3/../../../../pic32mx/lib\libc.a(_fputc_simple.o)

.data%z12       0x00000000        0x0
 .data          0x00000000        0x0 c:/program files (x86)/microchip/xc32/v2.30/bin/bin/../../lib/gcc/pic32mx/4.8.3/../../../../pic32mx/lib\libc.a(_fputc_simple.o)

.bss%z13        0x00000000        0x0
 .bss           0x00000000        0x0 c:/program files (x86)/microchip/xc32/v2.30/bin/bin/../../lib/gcc/pic32mx/4.8.3/../../../../pic32mx/lib\libc.a(doprnt_cdnopsuxX.eo)

.data%z14       0x00000000        0x0
 .data          0x00000000        0x0 c:/program files (x86)/microchip/xc32/v2.30/bin/bin/../../lib/gcc/pic32mx/4.8.3/../../../../pic32mx/lib\libc.a(doprnt_cdnopsuxX.eo)

.bss%z15        0x00000000        0x0
 .bss           0x00000000        0x0 c:/program files (x86)/microchip/xc32/v2.30/bin/bin/../../lib/gcc/pic32mx/4.8.3/../../../../pic32mx/lib\libc.a(sprintf_cdnopsuxX.eo)

.data%z16       0x00000000        0x0
 .data          0x00000000        0x0 c:/program files (x86)/microchip/xc32/v2.30/bin/bin/../../lib/gcc/pic32mx/4.8.3/../../../../pic32mx/lib\libc.a(sprintf_cdnopsuxX.eo)

.bss%z17        0x00000000        0x0
 .bss           0x00000000        0x0 c:/program files (x86)/microchip/xc32/v2.30/bin/bin/../../lib/gcc/pic32mx/4.8.3/../../../../pic32mx/lib\libc.a(strncpy.o)

.data%z18       0x00000000        0x0
 .data          0x00000000        0x0 c:/program files (x86)/microchip/xc32/v2.30/bin/bin/../../lib/gcc/pic32mx/4.8.3/../../../../pic32mx/lib\libc.a(strncpy.o)

.bss%z19        0x00000000        0x0
 .bss           0x00000000        0x0 c:/program files (x86)/microchip/xc32/v2.30/bin/bin/../../lib/gcc/pic32mx/4.8.3/../../../../pic32mx/lib\libpic32.a(defaultinterrupt.o)

.data%z20       0x00000000        0x0
 .data          0x00000000        0x0 c:/program files (x86)/microchip/xc32/v2.30/bin/bin/../../lib/gcc/pic32mx/4.8.3/../../../../pic32mx/lib\libpic32.a(defaultinterrupt.o)

.bss%z21        0x00000000        0x0
 .bss           0x00000000        0x0 c:/program files (x86)/microchip/xc32/v2.30/bin/bin/../../lib/gcc/pic32mx/4.8.3/../../../../pic32mx/lib\libpic32.a(default-general-exception-handler.o)

.data%z22       0x00000000        0x0
 .data          0x00000000        0x0 c:/program files (x86)/microchip/xc32/v2.30/bin/bin/../../lib/gcc/pic32mx/4.8.3/../../../../pic32mx/lib\libpic32.a(default-general-exception-handler.o)

.bss%z23        0x00000000        0x0
 .bss           0x00000000        0x0 c:/program files (x86)/microchip/xc32/v2.30/bin/bin/../../lib/gcc/pic32mx/4.8.3/../../../../pic32mx/lib\libpic32.a(vector45.o)

.data%z24       0x00000000        0x0
 .data          0x00000000        0x0 c:/program files (x86)/microchip/xc32/v2.30/bin/bin/../../lib/gcc/pic32mx/4.8.3/../../../../pic32mx/lib\libpic32.a(vector45.o)

.bss%z25        0x00000000        0x0
 .bss           0x00000000        0x0 c:/program files (x86)/microchip/xc32/v2.30/bin/bin/../../lib/gcc/pic32mx/4.8.3/../../../../pic32mx/lib\libpic32.a(vector44.o)

.data%z26       0x00000000        0x0
 .data          0x00000000        0x0 c:/program files (x86)/microchip/xc32/v2.30/bin/bin/../../lib/gcc/pic32mx/4.8.3/../../../../pic32mx/lib\libpic32.a(vector44.o)

.bss%z27        0x00000000        0x0
 .bss           0x00000000        0x0 c:/program files (x86)/microchip/xc32/v2.30/bin/bin/../../lib/gcc/pic32mx/4.8.3/../../../../pic32mx/lib\libpic32.a(vector43.o)

.data%z28       0x00000000        0x0
 .data          0x00000000        0x0 c:/program files (x86)/microchip/xc32/v2.30/bin/bin/../../lib/gcc/pic32mx/4.8.3/../../../../pic32mx/lib\libpic32.a(vector43.o)

.bss%z29        0x00000000        0x0
 .bss           0x00000000        0x0 c:/program files (x86)/microchip/xc32/v2.30/bin/bin/../../lib/gcc/pic32mx/4.8.3/../../../../pic32mx/lib\libpic32.a(vector42.o)

.data%z30       0x00000000        0x0
 .data          0x00000000        0x0 c:/program files (x86)/microchip/xc32/v2.30/bin/bin/../../lib/gcc/pic32mx/4.8.3/../../../../pic32mx/lib\libpic32.a(vector42.o)

.bss%z31        0x00000000        0x0
 .bss           0x00000000        0x0 c:/program files (x86)/microchip/xc32/v2.30/bin/bin/../../lib/gcc/pic32mx/4.8.3/../../../../pic32mx/lib\libpic32.a(vector41.o)

.data%z32       0x00000000        0x0
 .data          0x00000000        0x0 c:/program files (x86)/microchip/xc32/v2.30/bin/bin/../../lib/gcc/pic32mx/4.8.3/../../../../pic32mx/lib\libpic32.a(vector41.o)

.bss%z33        0x00000000        0x0
 .bss           0x00000000        0x0 c:/program files (x86)/microchip/xc32/v2.30/bin/bin/../../lib/gcc/pic32mx/4.8.3/../../../../pic32mx/lib\libpic32.a(vector40.o)

.data%z34       0x00000000        0x0
 .data          0x00000000        0x0 c:/program files (x86)/microchip/xc32/v2.30/bin/bin/../../lib/gcc/pic32mx/4.8.3/../../../../pic32mx/lib\libpic32.a(vector40.o)

.bss%z35        0x00000000        0x0
 .bss           0x00000000        0x0 c:/program files (x86)/microchip/xc32/v2.30/bin/bin/../../lib/gcc/pic32mx/4.8.3/../../../../pic32mx/lib\libpic32.a(vector39.o)

.data%z36       0x00000000        0x0
 .data          0x00000000        0x0 c:/program files (x86)/microchip/xc32/v2.30/bin/bin/../../lib/gcc/pic32mx/4.8.3/../../../../pic32mx/lib\libpic32.a(vector39.o)

.bss%z37        0x00000000        0x0
 .bss           0x00000000        0x0 c:/program files (x86)/microchip/xc32/v2.30/bin/bin/../../lib/gcc/pic32mx/4.8.3/../../../../pic32mx/lib\libpic32.a(vector38.o)

.data%z38       0x00000000        0x0
 .data          0x00000000        0x0 c:/program files (x86)/microchip/xc32/v2.30/bin/bin/../../lib/gcc/pic32mx/4.8.3/../../../../pic32mx/lib\libpic32.a(vector38.o)

.bss%z39        0x00000000        0x0
 .bss           0x00000000        0x0 c:/program files (x86)/microchip/xc32/v2.30/bin/bin/../../lib/gcc/pic32mx/4.8.3/../../../../pic32mx/lib\libpic32.a(vector37.o)

.data%z40       0x00000000        0x0
 .data          0x00000000        0x0 c:/program files (x86)/microchip/xc32/v2.30/bin/bin/../../lib/gcc/pic32mx/4.8.3/../../../../pic32mx/lib\libpic32.a(vector37.o)

.bss%z41        0x00000000        0x0
 .bss           0x00000000        0x0 c:/program files (x86)/microchip/xc32/v2.30/bin/bin/../../lib/gcc/pic32mx/4.8.3/../../../../pic32mx/lib\libpic32.a(vector36.o)

.data%z42       0x00000000        0x0
 .data          0x00000000        0x0 c:/program files (x86)/microchip/xc32/v2.30/bin/bin/../../lib/gcc/pic32mx/4.8.3/../../../../pic32mx/lib\libpic32.a(vector36.o)

.bss%z43        0x00000000        0x0
 .bss           0x00000000        0x0 c:/program files (x86)/microchip/xc32/v2.30/bin/bin/../../lib/gcc/pic32mx/4.8.3/../../../../pic32mx/lib\libpic32.a(vector35.o)

.data%z44       0x00000000        0x0
 .data          0x00000000        0x0 c:/program files (x86)/microchip/xc32/v2.30/bin/bin/../../lib/gcc/pic32mx/4.8.3/../../../../pic32mx/lib\libpic32.a(vector35.o)

.bss%z45        0x00000000        0x0
 .bss           0x00000000        0x0 c:/program files (x86)/microchip/xc32/v2.30/bin/bin/../../lib/gcc/pic32mx/4.8.3/../../../../pic32mx/lib\libpic32.a(vector34.o)

.data%z46       0x00000000        0x0
 .data          0x00000000        0x0 c:/program files (x86)/microchip/xc32/v2.30/bin/bin/../../lib/gcc/pic32mx/4.8.3/../../../../pic32mx/lib\libpic32.a(vector34.o)

.bss%z47        0x00000000        0x0
 .bss           0x00000000        0x0 c:/program files (x86)/microchip/xc32/v2.30/bin/bin/../../lib/gcc/pic32mx/4.8.3/../../../../pic32mx/lib\libpic32.a(vector33.o)

.data%z48       0x00000000        0x0
 .data          0x00000000        0x0 c:/program files (x86)/microchip/xc32/v2.30/bin/bin/../../lib/gcc/pic32mx/4.8.3/../../../../pic32mx/lib\libpic32.a(vector33.o)

.bss%z49        0x00000000        0x0
 .bss           0x00000000        0x0 c:/program files (x86)/microchip/xc32/v2.30/bin/bin/../../lib/gcc/pic32mx/4.8.3/../../../../pic32mx/lib\libpic32.a(vector32.o)

.data%z50       0x00000000        0x0
 .data          0x00000000        0x0 c:/program files (x86)/microchip/xc32/v2.30/bin/bin/../../lib/gcc/pic32mx/4.8.3/../../../../pic32mx/lib\libpic32.a(vector32.o)

.bss%z51        0x00000000        0x0
 .bss           0x00000000        0x0 c:/program files (x86)/microchip/xc32/v2.30/bin/bin/../../lib/gcc/pic32mx/4.8.3/../../../../pic32mx/lib\libpic32.a(vector31.o)

.data%z52       0x00000000        0x0
 .data          0x00000000        0x0 c:/program files (x86)/microchip/xc32/v2.30/bin/bin/../../lib/gcc/pic32mx/4.8.3/../../../../pic32mx/lib\libpic32.a(vector31.o)

.bss%z53        0x00000000        0x0
 .bss           0x00000000        0x0 c:/program files (x86)/microchip/xc32/v2.30/bin/bin/../../lib/gcc/pic32mx/4.8.3/../../../../pic32mx/lib\libpic32.a(vector30.o)

.data%z54       0x00000000        0x0
 .data          0x00000000        0x0 c:/program files (x86)/microchip/xc32/v2.30/bin/bin/../../lib/gcc/pic32mx/4.8.3/../../../../pic32mx/lib\libpic32.a(vector30.o)

.bss%z55        0x00000000        0x0
 .bss           0x00000000        0x0 c:/program files (x86)/microchip/xc32/v2.30/bin/bin/../../lib/gcc/pic32mx/4.8.3/../../../../pic32mx/lib\libpic32.a(vector29.o)

.data%z56       0x00000000        0x0
 .data          0x00000000        0x0 c:/program files (x86)/microchip/xc32/v2.30/bin/bin/../../lib/gcc/pic32mx/4.8.3/../../../../pic32mx/lib\libpic32.a(vector29.o)

.bss%z57        0x00000000        0x0
 .bss           0x00000000        0x0 c:/program files (x86)/microchip/xc32/v2.30/bin/bin/../../lib/gcc/pic32mx/4.8.3/../../../../pic32mx/lib\libpic32.a(vector28.o)

.data%z58       0x00000000        0x0
 .data          0x00000000        0x0 c:/program files (x86)/microchip/xc32/v2.30/bin/bin/../../lib/gcc/pic32mx/4.8.3/../../../../pic32mx/lib\libpic32.a(vector28.o)

.bss%z59        0x00000000        0x0
 .bss           0x00000000        0x0 c:/program files (x86)/microchip/xc32/v2.30/bin/bin/../../lib/gcc/pic32mx/4.8.3/../../../../pic32mx/lib\libpic32.a(vector27.o)

.data%z60       0x00000000        0x0
 .data          0x00000000        0x0 c:/program files (x86)/microchip/xc32/v2.30/bin/bin/../../lib/gcc/pic32mx/4.8.3/../../../../pic32mx/lib\libpic32.a(vector27.o)

.bss%z61        0x00000000        0x0
 .bss           0x00000000        0x0 c:/program files (x86)/microchip/xc32/v2.30/bin/bin/../../lib/gcc/pic32mx/4.8.3/../../../../pic32mx/lib\libpic32.a(vector26.o)

.data%z62       0x00000000        0x0
 .data          0x00000000        0x0 c:/program files (x86)/microchip/xc32/v2.30/bin/bin/../../lib/gcc/pic32mx/4.8.3/../../../../pic32mx/lib\libpic32.a(vector26.o)

.bss%z63        0x00000000        0x0
 .bss           0x00000000        0x0 c:/program files (x86)/microchip/xc32/v2.30/bin/bin/../../lib/gcc/pic32mx/4.8.3/../../../../pic32mx/lib\libpic32.a(vector25.o)

.data%z64       0x00000000        0x0
 .data          0x00000000        0x0 c:/program files (x86)/microchip/xc32/v2.30/bin/bin/../../lib/gcc/pic32mx/4.8.3/../../../../pic32mx/lib\libpic32.a(vector25.o)

.bss%z65        0x00000000        0x0
 .bss           0x00000000        0x0 c:/program files (x86)/microchip/xc32/v2.30/bin/bin/../../lib/gcc/pic32mx/4.8.3/../../../../pic32mx/lib\libpic32.a(vector24.o)

.data%z66       0x00000000        0x0
 .data          0x00000000        0x0 c:/program files (x86)/microchip/xc32/v2.30/bin/bin/../../lib/gcc/pic32mx/4.8.3/../../../../pic32mx/lib\libpic32.a(vector24.o)

.bss%z67        0x00000000        0x0
 .bss           0x00000000        0x0 c:/program files (x86)/microchip/xc32/v2.30/bin/bin/../../lib/gcc/pic32mx/4.8.3/../../../../pic32mx/lib\libpic32.a(vector23.o)

.data%z68       0x00000000        0x0
 .data          0x00000000        0x0 c:/program files (x86)/microchip/xc32/v2.30/bin/bin/../../lib/gcc/pic32mx/4.8.3/../../../../pic32mx/lib\libpic32.a(vector23.o)

.bss%z69        0x00000000        0x0
 .bss           0x00000000        0x0 c:/program files (x86)/microchip/xc32/v2.30/bin/bin/../../lib/gcc/pic32mx/4.8.3/../../../../pic32mx/lib\libpic32.a(vector22.o)

.data%z70       0x00000000        0x0
 .data          0x00000000        0x0 c:/program files (x86)/microchip/xc32/v2.30/bin/bin/../../lib/gcc/pic32mx/4.8.3/../../../../pic32mx/lib\libpic32.a(vector22.o)

.bss%z71        0x00000000        0x0
 .bss           0x00000000        0x0 c:/program files (x86)/microchip/xc32/v2.30/bin/bin/../../lib/gcc/pic32mx/4.8.3/../../../../pic32mx/lib\libpic32.a(vector21.o)

.data%z72       0x00000000        0x0
 .data          0x00000000        0x0 c:/program files (x86)/microchip/xc32/v2.30/bin/bin/../../lib/gcc/pic32mx/4.8.3/../../../../pic32mx/lib\libpic32.a(vector21.o)

.bss%z73        0x00000000        0x0
 .bss           0x00000000        0x0 c:/program files (x86)/microchip/xc32/v2.30/bin/bin/../../lib/gcc/pic32mx/4.8.3/../../../../pic32mx/lib\libpic32.a(vector20.o)

.data%z74       0x00000000        0x0
 .data          0x00000000        0x0 c:/program files (x86)/microchip/xc32/v2.30/bin/bin/../../lib/gcc/pic32mx/4.8.3/../../../../pic32mx/lib\libpic32.a(vector20.o)

.bss%z75        0x00000000        0x0
 .bss           0x00000000        0x0 c:/program files (x86)/microchip/xc32/v2.30/bin/bin/../../lib/gcc/pic32mx/4.8.3/../../../../pic32mx/lib\libpic32.a(vector19.o)

.data%z76       0x00000000        0x0
 .data          0x00000000        0x0 c:/program files (x86)/microchip/xc32/v2.30/bin/bin/../../lib/gcc/pic32mx/4.8.3/../../../../pic32mx/lib\libpic32.a(vector19.o)

.bss%z77        0x00000000        0x0
 .bss           0x00000000        0x0 c:/program files (x86)/microchip/xc32/v2.30/bin/bin/../../lib/gcc/pic32mx/4.8.3/../../../../pic32mx/lib\libpic32.a(vector18.o)

.data%z78       0x00000000        0x0
 .data          0x00000000        0x0 c:/program files (x86)/microchip/xc32/v2.30/bin/bin/../../lib/gcc/pic32mx/4.8.3/../../../../pic32mx/lib\libpic32.a(vector18.o)

.bss%z79        0x00000000        0x0
 .bss           0x00000000        0x0 c:/program files (x86)/microchip/xc32/v2.30/bin/bin/../../lib/gcc/pic32mx/4.8.3/../../../../pic32mx/lib\libpic32.a(vector17.o)

.data%z80       0x00000000        0x0
 .data          0x00000000        0x0 c:/program files (x86)/microchip/xc32/v2.30/bin/bin/../../lib/gcc/pic32mx/4.8.3/../../../../pic32mx/lib\libpic32.a(vector17.o)

.bss%z81        0x00000000        0x0
 .bss           0x00000000        0x0 c:/program files (x86)/microchip/xc32/v2.30/bin/bin/../../lib/gcc/pic32mx/4.8.3/../../../../pic32mx/lib\libpic32.a(vector16.o)

.data%z82       0x00000000        0x0
 .data          0x00000000        0x0 c:/program files (x86)/microchip/xc32/v2.30/bin/bin/../../lib/gcc/pic32mx/4.8.3/../../../../pic32mx/lib\libpic32.a(vector16.o)

.bss%z83        0x00000000        0x0
 .bss           0x00000000        0x0 c:/program files (x86)/microchip/xc32/v2.30/bin/bin/../../lib/gcc/pic32mx/4.8.3/../../../../pic32mx/lib\libpic32.a(vector14.o)

.data%z84       0x00000000        0x0
 .data          0x00000000        0x0 c:/program files (x86)/microchip/xc32/v2.30/bin/bin/../../lib/gcc/pic32mx/4.8.3/../../../../pic32mx/lib\libpic32.a(vector14.o)

.bss%z85        0x00000000        0x0
 .bss           0x00000000        0x0 c:/program files (x86)/microchip/xc32/v2.30/bin/bin/../../lib/gcc/pic32mx/4.8.3/../../../../pic32mx/lib\libpic32.a(vector13.o)

.data%z86       0x00000000        0x0
 .data          0x00000000        0x0 c:/program files (x86)/microchip/xc32/v2.30/bin/bin/../../lib/gcc/pic32mx/4.8.3/../../../../pic32mx/lib\libpic32.a(vector13.o)

.bss%z87        0x00000000        0x0
 .bss           0x00000000        0x0 c:/program files (x86)/microchip/xc32/v2.30/bin/bin/../../lib/gcc/pic32mx/4.8.3/../../../../pic32mx/lib\libpic32.a(vector12.o)

.data%z88       0x00000000        0x0
 .data          0x00000000        0x0 c:/program files (x86)/microchip/xc32/v2.30/bin/bin/../../lib/gcc/pic32mx/4.8.3/../../../../pic32mx/lib\libpic32.a(vector12.o)

.bss%z89        0x00000000        0x0
 .bss           0x00000000        0x0 c:/program files (x86)/microchip/xc32/v2.30/bin/bin/../../lib/gcc/pic32mx/4.8.3/../../../../pic32mx/lib\libpic32.a(vector11.o)

.data%z90       0x00000000        0x0
 .data          0x00000000        0x0 c:/program files (x86)/microchip/xc32/v2.30/bin/bin/../../lib/gcc/pic32mx/4.8.3/../../../../pic32mx/lib\libpic32.a(vector11.o)

.bss%z91        0x00000000        0x0
 .bss           0x00000000        0x0 c:/program files (x86)/microchip/xc32/v2.30/bin/bin/../../lib/gcc/pic32mx/4.8.3/../../../../pic32mx/lib\libpic32.a(vector10.o)

.data%z92       0x00000000        0x0
 .data          0x00000000        0x0 c:/program files (x86)/microchip/xc32/v2.30/bin/bin/../../lib/gcc/pic32mx/4.8.3/../../../../pic32mx/lib\libpic32.a(vector10.o)

.bss%z93        0x00000000        0x0
 .bss           0x00000000        0x0 c:/program files (x86)/microchip/xc32/v2.30/bin/bin/../../lib/gcc/pic32mx/4.8.3/../../../../pic32mx/lib\libpic32.a(vector9.o)

.data%z94       0x00000000        0x0
 .data          0x00000000        0x0 c:/program files (x86)/microchip/xc32/v2.30/bin/bin/../../lib/gcc/pic32mx/4.8.3/../../../../pic32mx/lib\libpic32.a(vector9.o)

.bss%z95        0x00000000        0x0
 .bss           0x00000000        0x0 c:/program files (x86)/microchip/xc32/v2.30/bin/bin/../../lib/gcc/pic32mx/4.8.3/../../../../pic32mx/lib\libpic32.a(vector8.o)

.data%z96       0x00000000        0x0
 .data          0x00000000        0x0 c:/program files (x86)/microchip/xc32/v2.30/bin/bin/../../lib/gcc/pic32mx/4.8.3/../../../../pic32mx/lib\libpic32.a(vector8.o)

.bss%z97        0x00000000        0x0
 .bss           0x00000000        0x0 c:/program files (x86)/microchip/xc32/v2.30/bin/bin/../../lib/gcc/pic32mx/4.8.3/../../../../pic32mx/lib\libpic32.a(vector7.o)

.data%z98       0x00000000        0x0
 .data          0x00000000        0x0 c:/program files (x86)/microchip/xc32/v2.30/bin/bin/../../lib/gcc/pic32mx/4.8.3/../../../../pic32mx/lib\libpic32.a(vector7.o)

.bss%z99        0x00000000        0x0
 .bss           0x00000000        0x0 c:/program files (x86)/microchip/xc32/v2.30/bin/bin/../../lib/gcc/pic32mx/4.8.3/../../../../pic32mx/lib\libpic32.a(vector6.o)

.data%z100      0x00000000        0x0
 .data          0x00000000        0x0 c:/program files (x86)/microchip/xc32/v2.30/bin/bin/../../lib/gcc/pic32mx/4.8.3/../../../../pic32mx/lib\libpic32.a(vector6.o)

.bss%z101       0x00000000        0x0
 .bss           0x00000000        0x0 c:/program files (x86)/microchip/xc32/v2.30/bin/bin/../../lib/gcc/pic32mx/4.8.3/../../../../pic32mx/lib\libpic32.a(vector5.o)

.data%z102      0x00000000        0x0
 .data          0x00000000        0x0 c:/program files (x86)/microchip/xc32/v2.30/bin/bin/../../lib/gcc/pic32mx/4.8.3/../../../../pic32mx/lib\libpic32.a(vector5.o)

.bss%z103       0x00000000        0x0
 .bss           0x00000000        0x0 c:/program files (x86)/microchip/xc32/v2.30/bin/bin/../../lib/gcc/pic32mx/4.8.3/../../../../pic32mx/lib\libpic32.a(vector3.o)

.data%z104      0x00000000        0x0
 .data          0x00000000        0x0 c:/program files (x86)/microchip/xc32/v2.30/bin/bin/../../lib/gcc/pic32mx/4.8.3/../../../../pic32mx/lib\libpic32.a(vector3.o)

.bss%z105       0x00000000        0x0
 .bss           0x00000000        0x0 c:/program files (x86)/microchip/xc32/v2.30/bin/bin/../../lib/gcc/pic32mx/4.8.3/../../../../pic32mx/lib\libpic32.a(vector2.o)

.data%z106      0x00000000        0x0
 .data          0x00000000        0x0 c:/program files (x86)/microchip/xc32/v2.30/bin/bin/../../lib/gcc/pic32mx/4.8.3/../../../../pic32mx/lib\libpic32.a(vector2.o)

.bss%z107       0x00000000        0x0
 .bss           0x00000000        0x0 c:/program files (x86)/microchip/xc32/v2.30/bin/bin/../../lib/gcc/pic32mx/4.8.3/../../../../pic32mx/lib\libpic32.a(vector1.o)

.data%z108      0x00000000        0x0
 .data          0x00000000        0x0 c:/program files (x86)/microchip/xc32/v2.30/bin/bin/../../lib/gcc/pic32mx/4.8.3/../../../../pic32mx/lib\libpic32.a(vector1.o)

.bss%z109       0x00000000        0x0
 .bss           0x00000000        0x0 c:/program files (x86)/microchip/xc32/v2.30/bin/bin/../../lib/gcc/pic32mx/4.8.3/../../../../pic32mx/lib\libpic32.a(vector0.o)

.data%z110      0x00000000        0x0
 .data          0x00000000        0x0 c:/program files (x86)/microchip/xc32/v2.30/bin/bin/../../lib/gcc/pic32mx/4.8.3/../../../../pic32mx/lib\libpic32.a(vector0.o)

.bss%z111       0x00000000        0x0
 .bss           0x00000000        0x0 c:/program files (x86)/microchip/xc32/v2.30/bin/bin/../../lib/gcc/pic32mx/4.8.3/../../../../pic32mx/lib\libpic32.a(general-exception.o)

.data%z112      0x00000000        0x0
 .data          0x00000000        0x0 c:/program files (x86)/microchip/xc32/v2.30/bin/bin/../../lib/gcc/pic32mx/4.8.3/../../../../pic32mx/lib\libpic32.a(general-exception.o)

.bss%z113       0x00000000        0x0
 .bss           0x00000000        0x0 c:/program files (x86)/microchip/xc32/v2.30/bin/bin/../../lib/gcc/pic32mx/4.8.3/../../../../pic32mx/lib\libpic32.a(pic32_data_init.o)

.data%z114      0x00000000        0x0
 .data          0x00000000        0x0 c:/program files (x86)/microchip/xc32/v2.30/bin/bin/../../lib/gcc/pic32mx/4.8.3/../../../../pic32mx/lib\libpic32.a(pic32_data_init.o)

.bss%z115       0x00000000        0x0
 .bss           0x00000000        0x0 c:/program files (x86)/microchip/xc32/v2.30/bin/bin/../../lib/gcc/pic32mx/4.8.3/../../../../pic32mx/lib\libpic32.a(default-nmi-handler.o)

.data%z116      0x00000000        0x0
 .data          0x00000000        0x0 c:/program files (x86)/microchip/xc32/v2.30/bin/bin/../../lib/gcc/pic32mx/4.8.3/../../../../pic32mx/lib\libpic32.a(default-nmi-handler.o)

.bss%z117       0x00000000        0x0
 .bss           0x00000000        0x0 c:/program files (x86)/microchip/xc32/v2.30/bin/bin/../../lib/gcc/pic32mx/4.8.3/../../../../pic32mx/lib\libpic32.a(default-on-bootstrap.o)

.data%z118      0x00000000        0x0
 .data          0x00000000        0x0 c:/program files (x86)/microchip/xc32/v2.30/bin/bin/../../lib/gcc/pic32mx/4.8.3/../../../../pic32mx/lib\libpic32.a(default-on-bootstrap.o)

.bss%z119       0x00000000        0x0
 .bss           0x00000000        0x0 c:/program files (x86)/microchip/xc32/v2.30/bin/bin/../../lib/gcc/pic32mx/4.8.3/../../../../pic32mx/lib\libpic32.a(default-on-reset.o)

.data%z120      0x00000000        0x0
 .data          0x00000000        0x0 c:/program files (x86)/microchip/xc32/v2.30/bin/bin/../../lib/gcc/pic32mx/4.8.3/../../../../pic32mx/lib\libpic32.a(default-on-reset.o)

.bss%z121       0x00000000        0x0
 .bss           0x00000000        0x0 c:/program files (x86)/microchip/xc32/v2.30/bin/bin/../../lib/gcc/pic32mx/4.8.3/../../../../pic32mx/lib\libpic32.a(default-bootstrap-exception-handler.o)

.data%z122      0x00000000        0x0
 .data          0x00000000        0x0 c:/program files (x86)/microchip/xc32/v2.30/bin/bin/../../lib/gcc/pic32mx/4.8.3/../../../../pic32mx/lib\libpic32.a(default-bootstrap-exception-handler.o)

.bss%z123       0x00000000        0x0
 .bss           0x00000000        0x0 c:/program files (x86)/microchip/xc32/v2.30/bin/bin/../../lib/gcc/pic32mx/4.8.3/../../../../pic32mx/lib\libpic32.a(strlen.o)

.data%z124      0x00000000        0x0
 .data          0x00000000        0x0 c:/program files (x86)/microchip/xc32/v2.30/bin/bin/../../lib/gcc/pic32mx/4.8.3/../../../../pic32mx/lib\libpic32.a(strlen.o)

.bss%z125       0x00000000        0x0
 .bss           0x00000000        0x0 c:/program files (x86)/microchip/xc32/v2.30/bin/bin/../../lib/gcc/pic32mx/4.8.3/../../../../pic32mx/lib\libpic32.a(strcpy.o)

.data%z126      0x00000000        0x0
 .data          0x00000000        0x0 c:/program files (x86)/microchip/xc32/v2.30/bin/bin/../../lib/gcc/pic32mx/4.8.3/../../../../pic32mx/lib\libpic32.a(strcpy.o)

.bss%z127       0x00000000        0x0
 .bss           0x00000000        0x0 c:/program files (x86)/microchip/xc32/v2.30/bin/bin/../../lib/gcc/pic32mx/4.8.3/../../../../pic32mx/lib\libpic32.a(memset.o)

.data%z128      0x00000000        0x0
 .data          0x00000000        0x0 c:/program files (x86)/microchip/xc32/v2.30/bin/bin/../../lib/gcc/pic32mx/4.8.3/../../../../pic32mx/lib\libpic32.a(memset.o)

.bss%z129       0x00000000        0x0
 .bss           0x00000000        0x0 c:/program files (x86)/microchip/xc32/v2.30/bin/bin/../../lib/gcc/pic32mx/4.8.3/../../../../pic32mx/lib\libpic32.a(memcpy.o)

.data%z130      0x00000000        0x0
 .data          0x00000000        0x0 c:/program files (x86)/microchip/xc32/v2.30/bin/bin/../../lib/gcc/pic32mx/4.8.3/../../../../pic32mx/lib\libpic32.a(memcpy.o)

.bss%z131       0x00000000        0x0
 .bss           0x00000000        0x0 c:/program files (x86)/microchip/xc32/v2.30/bin/bin/../../lib/gcc/pic32mx/4.8.3/../../../../pic32mx/lib\libpic32.a(memcmp.o)

.data%z132      0x00000000        0x0
 .data          0x00000000        0x0 c:/program files (x86)/microchip/xc32/v2.30/bin/bin/../../lib/gcc/pic32mx/4.8.3/../../../../pic32mx/lib\libpic32.a(memcmp.o)

.bss%z133       0x00000000        0x0
 .bss           0x00000000        0x0 c:/program files (x86)/microchip/xc32/v2.30/bin/bin/../../lib/gcc/pic32mx/4.8.3\libgcc.a(_umoddi3.o)

.data%z134      0x00000000        0x0
 .data          0x00000000        0x0 c:/program files (x86)/microchip/xc32/v2.30/bin/bin/../../lib/gcc/pic32mx/4.8.3\libgcc.a(_umoddi3.o)

.bss%z135       0x00000000        0x0
 .bss           0x00000000        0x0 c:/program files (x86)/microchip/xc32/v2.30/bin/bin/../../lib/gcc/pic32mx/4.8.3\libgcc.a(_udivdi3.o)

.data%z136      0x00000000        0x0
 .data          0x00000000        0x0 c:/program files (x86)/microchip/xc32/v2.30/bin/bin/../../lib/gcc/pic32mx/4.8.3\libgcc.a(_udivdi3.o)

.bss%z137       0x00000000        0x0
 .bss           0x00000000        0x0 c:/program files (x86)/microchip/xc32/v2.30/bin/bin/../../lib/gcc/pic32mx/4.8.3/../../../../pic32mx/lib\pic32_software_reset.o

.data%z138      0x00000000        0x0
 .data          0x00000000        0x0 c:/program files (x86)/microchip/xc32/v2.30/bin/bin/../../lib/gcc/pic32mx/4.8.3/../../../../pic32mx/lib\pic32_software_reset.o

.bss%z139       0x00000000        0x0
 .bss           0x00000000        0x0 c:/program files (x86)/microchip/xc32/v2.30/bin/bin/../../lib/gcc/pic32mx/4.8.3/../../../../pic32mx/lib/./proc/32MX440F256H\default_isr_vectors.o

.data%z140      0x00000000        0x0
 .data          0x00000000        0x0 c:/program files (x86)/microchip/xc32/v2.30/bin/bin/../../lib/gcc/pic32mx/4.8.3/../../../../pic32mx/lib/./proc/32MX440F256H\default_isr_vectors.o

.bss%z141       0x00000000        0x0
 .bss           0x00000000        0x0 C:\Users\kyrk\AppData\Local\Temp\ccmCSEZY.o

.data%z142      0x00000000        0x0
 .data          0x00000000        0x0 C:\Users\kyrk\AppData\Local\Temp\ccmCSEZY.o

.bss%z143       0x00000000        0x0
 .bss           0x00000000        0x0 C:\Users\kyrk\AppData\Local\Temp\ccz1PUY4.o

.data%z144      0x00000000        0x0
 .data          0x00000000        0x0 C:\Users\kyrk\AppData\Local\Temp\ccz1PUY4.o

.bss%z145       0x00000000        0x0
 .bss           0x00000000        0x0 C:\Users\kyrk\AppData\Local\Temp\cciFSByj.o

.data%z146      0x00000000        0x0
 .data          0x00000000        0x0 C:\Users\kyrk\AppData\Local\Temp\cciFSByj.o

.bss%z147       0x00000000        0x0
 .bss           0x00000000        0x0 c:/program files (x86)/microchip/xc32/v2.30/bin/bin/../../lib/gcc/pic32mx/4.8.3/../../../../pic32mx/lib\libmchp_peripheral_32MX440F256H.a(int_enable_interrupts_lib.o)

.data%z148      0x00000000        0x0
 .data          0x00000000        0x0 c:/program files (x86)/microchip/xc32/v2.30/bin/bin/../../lib/gcc/pic32mx/4.8.3/../../../../pic32mx/lib\libmchp_peripheral_32MX440F256H.a(int_enable_interrupts_lib.o)

.bss%z149       0x00000000        0x0
 .bss           0x00000000        0x0 c:/program files (x86)/microchip/xc32/v2.30/bin/bin/../../lib/gcc/pic32mx/4.8.3/../../../../pic32mx/lib\libmchp_peripheral_32MX440F256H.a(puts_uartx_lib_legacy.o)

.data%z150      0x00000000        0x0
 .data          0x00000000        0x0 c:/program files (x86)/microchip/xc32/v2.30/bin/bin/../../lib/gcc/pic32mx/4.8.3/../../../../pic32mx/lib\libmchp_peripheral_32MX440F256H.a(puts_uartx_lib_legacy.o)

.bss%z151       0x00000000        0x0
 .bss           0x00000000        0x0 c:/program files (x86)/microchip/xc32/v2.30/bin/bin/../../lib/gcc/pic32mx/4.8.3/../../../../pic32mx/lib\libmchp_peripheral_32MX440F256H.a(int_enable_mv_int_lib.o)

.data%z152      0x00000000        0x0
 .data          0x00000000        0x0 c:/program files (x86)/microchip/xc32/v2.30/bin/bin/../../lib/gcc/pic32mx/4.8.3/../../../../pic32mx/lib\libmchp_peripheral_32MX440F256H.a(int_enable_mv_int_lib.o)

.bss%z153       0x00000000        0x0
 .bss           0x00000000        0x0 c:/program files (x86)/microchip/xc32/v2.30/bin/bin/../../lib/gcc/pic32mx/4.8.3/../../../../pic32mx/lib\libmchp_peripheral_32MX440F256H.a(int_restore_interrupts_lib.o)

.data%z154      0x00000000        0x0
 .data          0x00000000        0x0 c:/program files (x86)/microchip/xc32/v2.30/bin/bin/../../lib/gcc/pic32mx/4.8.3/../../../../pic32mx/lib\libmchp_peripheral_32MX440F256H.a(int_restore_interrupts_lib.o)

.bss%z155       0x00000000        0x0
 .bss           0x00000000        0x0 c:/program files (x86)/microchip/xc32/v2.30/bin/bin/../../lib/gcc/pic32mx/4.8.3/../../../../pic32mx/lib\libmchp_peripheral_32MX440F256H.a(int_disable_interrupts_lib.o)

.data%z156      0x00000000        0x0
 .data          0x00000000        0x0 c:/program files (x86)/microchip/xc32/v2.30/bin/bin/../../lib/gcc/pic32mx/4.8.3/../../../../pic32mx/lib\libmchp_peripheral_32MX440F256H.a(int_disable_interrupts_lib.o)

.bss%z157       0x00000000        0x0
 .bss           0x00000000        0x0 c:/program files (x86)/microchip/xc32/v2.30/bin/bin/../../lib/gcc/pic32mx/4.8.3/../../../../pic32mx/lib\libmchp_peripheral_32MX440F256H.a(pcache.o)

.data%z158      0x00000000        0x0
 .data          0x00000000        0x0 c:/program files (x86)/microchip/xc32/v2.30/bin/bin/../../lib/gcc/pic32mx/4.8.3/../../../../pic32mx/lib\libmchp_peripheral_32MX440F256H.a(pcache.o)

.bss%z159       0x00000000        0x0
 .bss           0x00000000        0x0 c:/program files (x86)/microchip/xc32/v2.30/bin/bin/../../lib/gcc/pic32mx/4.8.3/../../../../pic32mx/lib\libmchp_peripheral.a(write_core_timer_lib.o)

.data%z160      0x00000000        0x0
 .data          0x00000000        0x0 c:/program files (x86)/microchip/xc32/v2.30/bin/bin/../../lib/gcc/pic32mx/4.8.3/../../../../pic32mx/lib\libmchp_peripheral.a(write_core_timer_lib.o)

.bss%z161       0x00000000        0x0
 .bss           0x00000000        0x0 c:/program files (x86)/microchip/xc32/v2.30/bin/bin/../../lib/gcc/pic32mx/4.8.3/../../../../pic32mx/lib\libmchp_peripheral.a(read_core_timer_lib.o)

.data%z162      0x00000000        0x0
 .data          0x00000000        0x0 c:/program files (x86)/microchip/xc32/v2.30/bin/bin/../../lib/gcc/pic32mx/4.8.3/../../../../pic32mx/lib\libmchp_peripheral.a(read_core_timer_lib.o)

.bss%z163       0x00000000        0x0
 .bss           0x00000000        0x0 c:/program files (x86)/microchip/xc32/v2.30/bin/bin/../../lib/gcc/pic32mx/4.8.3/../../../../pic32mx/lib/./proc/32MX440F256H\processor.o

.data%z164      0x00000000        0x0
 .data          0x00000000        0x0 c:/program files (x86)/microchip/xc32/v2.30/bin/bin/../../lib/gcc/pic32mx/4.8.3/../../../../pic32mx/lib/./proc/32MX440F256H\processor.o

.bss%z165       0x00000000        0x0
 .bss           0x00000000        0x0 build/default/production/_ext/252762716/mpfs_img2.o

.data%z166      0x00000000        0x0
 .data          0x00000000        0x0 build/default/production/_ext/252762716/mpfs_img2.o

.bss%z167       0x00000000        0x0
 .bss           0x00000000        0x0 build/default/production/_ext/252762716/custom_http_app.o

.data%z168      0x00000000        0x0
 .data          0x00000000        0x0 build/default/production/_ext/252762716/custom_http_app.o

.bss%z169       0x00000000        0x0
 .bss           0x00000000        0x0 build/default/production/_ext/252762716/mpfs2.o

.data%z170      0x00000000        0x0
 .data          0x00000000        0x0 build/default/production/_ext/252762716/mpfs2.o

.bss%z171       0x00000000        0x0
 .bss           0x00000000        0x0 build/default/production/_ext/252762716/http2.o

.data%z172      0x00000000        0x0
 .data          0x00000000        0x0 build/default/production/_ext/252762716/http2.o

.bss%z173       0x00000000        0x0
 .bss           0x00000000        0x0 build/default/production/_ext/1360937237/smtp_demo.o

.data%z174      0x00000000        0x0
 .data          0x00000000        0x0 build/default/production/_ext/1360937237/smtp_demo.o

.bss%z175       0x00000000        0x0
 .bss           0x00000000        0x0 build/default/production/_ext/1360937237/smtp.o

.data%z176      0x00000000        0x0
 .data          0x00000000        0x0 build/default/production/_ext/1360937237/smtp.o

.bss%z177       0x00000000        0x0
 .bss           0x00000000        0x0 build/default/production/_ext/252762716/arc4.o

.data%z178      0x00000000        0x0
 .data          0x00000000        0x0 build/default/production/_ext/252762716/arc4.o

.bss%z179       0x00000000        0x0
 .bss           0x00000000        0x0 build/default/production/_ext/252762716/custom_ssl_cert.o

.data%z180      0x00000000        0x0
 .data          0x00000000        0x0 build/default/production/_ext/252762716/custom_ssl_cert.o

.data%z181      0x00000000        0x0
 .data          0x00000000        0x0 build/default/production/_ext/1360937237/big_int_helper_pic32.o

.bss%z182       0x00000000        0x0
 .bss           0x00000000        0x0 build/default/production/_ext/252762716/big_int.o

.data%z183      0x00000000        0x0
 .data          0x00000000        0x0 build/default/production/_ext/252762716/big_int.o

.bss%z184       0x00000000        0x0
 .bss           0x00000000        0x0 build/default/production/_ext/252762716/rsa.o

.data%z185      0x00000000        0x0
 .data          0x00000000        0x0 build/default/production/_ext/252762716/rsa.o

.bss%z186       0x00000000        0x0
 .bss           0x00000000        0x0 build/default/production/_ext/252762716/hashes.o

.data%z187      0x00000000        0x0
 .data          0x00000000        0x0 build/default/production/_ext/252762716/hashes.o

.bss%z188       0x00000000        0x0
 .bss           0x00000000        0x0 build/default/production/_ext/252762716/random.o

.data%z189      0x00000000        0x0
 .data          0x00000000        0x0 build/default/production/_ext/252762716/random.o

.bss%z190       0x00000000        0x0
 .bss           0x00000000        0x0 build/default/production/_ext/252762716/ssl.o

.data%z191      0x00000000        0x0
 .data          0x00000000        0x0 build/default/production/_ext/252762716/ssl.o

.bss%z192       0x00000000        0x0
 .bss           0x00000000        0x0 build/default/production/_ext/252762716/sntp.o

.data%z193      0x00000000        0x0
 .data          0x00000000        0x0 build/default/production/_ext/252762716/sntp.o

.bss%z194       0x00000000        0x0
 .bss           0x00000000        0x0 build/default/production/_ext/1360937237/drv_wifi_connection_profile.o

.data%z195      0x00000000        0x0
 .data          0x00000000        0x0 build/default/production/_ext/1360937237/drv_wifi_connection_profile.o

.bss%z196       0x00000000        0x0
 .bss           0x00000000        0x0 build/default/production/_ext/1360937237/uart.o

.data%z197      0x00000000        0x0
 .data          0x00000000        0x0 build/default/production/_ext/1360937237/uart.o

.bss%z198       0x00000000        0x0
 .bss           0x00000000        0x0 build/default/production/_ext/1360937237/tcp.o

.data%z199      0x00000000        0x0
 .data          0x00000000        0x0 build/default/production/_ext/1360937237/tcp.o

.bss%z200       0x00000000        0x0
 .bss           0x00000000        0x0 build/default/production/_ext/1360937237/icmp.o

.data%z201      0x00000000        0x0
 .data          0x00000000        0x0 build/default/production/_ext/1360937237/icmp.o

.bss%z202       0x00000000        0x0
 .bss           0x00000000        0x0 build/default/production/_ext/1360937237/IP.o

.data%z203      0x00000000        0x0
 .data          0x00000000        0x0 build/default/production/_ext/1360937237/IP.o

.bss%z204       0x00000000        0x0
 .bss           0x00000000        0x0 build/default/production/_ext/1360937237/drv_wifi_param_msg.o

.data%z205      0x00000000        0x0
 .data          0x00000000        0x0 build/default/production/_ext/1360937237/drv_wifi_param_msg.o

.bss%z206       0x00000000        0x0
 .bss           0x00000000        0x0 build/default/production/_ext/1360937237/drv_wifi_init.o

.data%z207      0x00000000        0x0
 .data          0x00000000        0x0 build/default/production/_ext/1360937237/drv_wifi_init.o

.bss%z208       0x00000000        0x0
 .bss           0x00000000        0x0 build/default/production/_ext/1360937237/drv_wifi_pbkdf2.o

.data%z209      0x00000000        0x0
 .data          0x00000000        0x0 build/default/production/_ext/1360937237/drv_wifi_pbkdf2.o

.bss%z210       0x00000000        0x0
 .bss           0x00000000        0x0 build/default/production/_ext/1360937237/drv_wifi_connection_manager.o

.data%z211      0x00000000        0x0
 .data          0x00000000        0x0 build/default/production/_ext/1360937237/drv_wifi_connection_manager.o

.bss%z212       0x00000000        0x0
 .bss           0x00000000        0x0 build/default/production/_ext/1360937237/drv_wifi_connection_algorithm.o

.data%z213      0x00000000        0x0
 .data          0x00000000        0x0 build/default/production/_ext/1360937237/drv_wifi_connection_algorithm.o

.bss%z214       0x00000000        0x0
 .bss           0x00000000        0x0 build/default/production/_ext/1360937237/drv_wifi_config.o

.data%z215      0x00000000        0x0
 .data          0x00000000        0x0 build/default/production/_ext/1360937237/drv_wifi_config.o

.bss%z216       0x00000000        0x0
 .bss           0x00000000        0x0 build/default/production/_ext/1360937237/drv_wifi_event_handler.o

.data%z217      0x00000000        0x0
 .data          0x00000000        0x0 build/default/production/_ext/1360937237/drv_wifi_event_handler.o

.bss%z218       0x00000000        0x0
 .bss           0x00000000        0x0 build/default/production/_ext/1360937237/drv_wifi_mgmt_msg.o

.data%z219      0x00000000        0x0
 .data          0x00000000        0x0 build/default/production/_ext/1360937237/drv_wifi_mgmt_msg.o

.bss%z220       0x00000000        0x0
 .bss           0x00000000        0x0 build/default/production/_ext/1360937237/announce.o

.data%z221      0x00000000        0x0
 .data          0x00000000        0x0 build/default/production/_ext/1360937237/announce.o

.bss%z222       0x00000000        0x0
 .bss           0x00000000        0x0 build/default/production/_ext/1360937237/drv_wifi_power_save.o

.data%z223      0x00000000        0x0
 .data          0x00000000        0x0 build/default/production/_ext/1360937237/drv_wifi_power_save.o

.bss%z224       0x00000000        0x0
 .bss           0x00000000        0x0 build/default/production/_ext/1360937237/drv_wifi_spi.o

.data%z225      0x00000000        0x0
 .data          0x00000000        0x0 build/default/production/_ext/1360937237/drv_wifi_spi.o

.bss%z226       0x00000000        0x0
 .bss           0x00000000        0x0 build/default/production/_ext/1360937237/drv_wifi_debug_strings.o

.bss%z227       0x00000000        0x0
 .bss           0x00000000        0x0 build/default/production/_ext/1360937237/drv_wifi_eint.o

.data%z228      0x00000000        0x0
 .data          0x00000000        0x0 build/default/production/_ext/1360937237/drv_wifi_eint.o

.bss%z229       0x00000000        0x0
 .bss           0x00000000        0x0 build/default/production/_ext/1360937237/Delay.o

.data%z230      0x00000000        0x0
 .data          0x00000000        0x0 build/default/production/_ext/1360937237/Delay.o

.bss%z231       0x00000000        0x0
 .bss           0x00000000        0x0 build/default/production/_ext/1360937237/drv_wifi_com.o

.data%z232      0x00000000        0x0
 .data          0x00000000        0x0 build/default/production/_ext/1360937237/drv_wifi_com.o

.bss%z233       0x00000000        0x0
 .bss           0x00000000        0x0 build/default/production/_ext/1360937237/drv_wifi_raw.o

.data%z234      0x00000000        0x0
 .data          0x00000000        0x0 build/default/production/_ext/1360937237/drv_wifi_raw.o

.bss%z235       0x00000000        0x0
 .bss           0x00000000        0x0 build/default/production/_ext/1360937237/drv_wifi_mac.o

.data%z236      0x00000000        0x0
 .data          0x00000000        0x0 build/default/production/_ext/1360937237/drv_wifi_mac.o

.bss%z237       0x00000000        0x0
 .bss           0x00000000        0x0 build/default/production/_ext/1360937237/nbns.o

.data%z238      0x00000000        0x0
 .data          0x00000000        0x0 build/default/production/_ext/1360937237/nbns.o

.data%z239      0x00000000        0x0
 .data          0x00000000        0x0 build/default/production/_ext/1360937237/dns_client.o

.bss%z240       0x00000000        0x0
 .bss           0x00000000        0x0 build/default/production/_ext/1360937237/Helpers.o

.data%z241      0x00000000        0x0
 .data          0x00000000        0x0 build/default/production/_ext/1360937237/Helpers.o

.data%z242      0x00000000        0x0
 .data          0x00000000        0x0 build/default/production/_ext/1360937237/ARP.o

.data%z243      0x00000000        0x0
 .data          0x00000000        0x0 build/default/production/_ext/1360937237/dhcp_client.o

.bss%z244       0x00000000        0x0
 .bss           0x00000000        0x0 build/default/production/_ext/1360937237/UDP.o

.data%z245      0x00000000        0x0
 .data          0x00000000        0x0 build/default/production/_ext/1360937237/UDP.o

.bss%z246       0x00000000        0x0
 .bss           0x00000000        0x0 build/default/production/_ext/1360937237/stack_task.o

.data%z247      0x00000000        0x0
 .data          0x00000000        0x0 build/default/production/_ext/1360937237/stack_task.o

.bss%z248       0x00000000        0x0
 .bss           0x00000000        0x0 build/default/production/_ext/1360937237/Tick.o

.data%z249      0x00000000        0x0
 .data          0x00000000        0x0 build/default/production/_ext/1360937237/Tick.o

.bss%z250       0x00000000        0x0
 .bss           0x00000000        0x0 build/default/production/_ext/1360937237/EthernetTasks.o

.data%z251      0x00000000        0x0
 .data          0x00000000        0x0 build/default/production/_ext/1360937237/EthernetTasks.o

.bss%z252       0x00000000        0x0
 .bss           0x00000000        0x0 build/default/production/_ext/1360937237/NVMem.o

.data%z253      0x00000000        0x0
 .data          0x00000000        0x0 build/default/production/_ext/1360937237/NVMem.o

.data%z254      0x00000000        0x0
 .data          0x00000000        0x0 build/default/production/_ext/1360937237/Framework.o

.bss%z255       0x00000000        0x0
 .bss           0x00000000        0x0 build/default/production/_ext/1360937237/BootLoader.o

.data%z256      0x00000000        0x0
 .data          0x00000000        0x0 build/default/production/_ext/1360937237/BootLoader.o

.bss%z257       0x00000000        0x0
 .bss           0x00000000        0x0 build/default/production/_ext/659867239/rtcconverter.o

.data%z258      0x00000000        0x0
 .data          0x00000000        0x0 build/default/production/_ext/659867239/rtcconverter.o

.bss%z259       0x00000000        0x0
 .bss           0x00000000        0x0 build/default/production/_ext/659867239/rtc.o

.bss%z260       0x00000000        0x0
 .bss           0x00000000        0x0 build/default/production/_ext/659867239/daylight.o

.data%z261      0x00000000        0x0
 .data          0x00000000        0x0 build/default/production/_ext/659867239/daylight.o

.bss%z262       0x00000000        0x0
 .bss           0x00000000        0x0 c:/program files (x86)/microchip/xc32/v2.30/bin/bin/../../lib/gcc/pic32mx/4.8.3/../../../../pic32mx/lib\debug-exception-return.o

.data%z263      0x00000000        0x0
 .data          0x00000000        0x0 c:/program files (x86)/microchip/xc32/v2.30/bin/bin/../../lib/gcc/pic32mx/4.8.3/../../../../pic32mx/lib\debug-exception-return.o

._debug_exception
                0xbfc00480       0x2c
 ._debug_exception
                0xbfc00480       0x2c c:/program files (x86)/microchip/xc32/v2.30/bin/bin/../../lib/gcc/pic32mx/4.8.3/../../../../pic32mx/lib\debug-exception-return.o
                0xbfc00480                __DbgExecReturn

.text           0x9d000000     0x278c
 .text          0x9d000000     0x18cc build/default/production/_ext/1360937237/drv_wifi_pbkdf2.o
                0x9d001180                sha1_vector
                0x9d001314                hmac_sha1_vector
                0x9d001494                hmac_sha1
                0x9d0014cc                sha1_prf
                0x9d0015ec                sha1_t_prf
                0x9d00171c                pbkdf2_sha1
                0x9d0018c4                sha1_transform
 .text          0x9d0018cc      0xec0 build/default/production/_ext/1360937237/drv_wifi_mac.o
                0x9d001b18                MACProcess
                0x9d001b80                WFGetTCBSize
                0x9d001b88                MACInit
                0x9d001b90                RawInit
                0x9d001c00                MACIsLinked
                0x9d001c08                MACIsTxReady
                0x9d001c80                WFisTxMgmtReady
                0x9d001ce0                WFFreeMgmtTx
                0x9d001cec                SendRAWManagementFrame
                0x9d001d08                RawGetMgmtRxBuffer
                0x9d001d68                SetRawRxMgmtInProgress
                0x9d001d78                isRawRxMgmtInProgress
                0x9d001d80                MACDiscardRx
                0x9d001d8c                MACGetFreeRxSize
                0x9d001dbc                MACGetHeader
                0x9d001f68                MACFlush
                0x9d002020                MACSetReadPtrInRx
                0x9d002030                MACSetWritePtr
                0x9d002064                MACSetReadPtr
                0x9d002098                MACMemCopyAsync
                0x9d00241c                MACIsMemCopyDone
                0x9d002424                MACGet
                0x9d002470                MACGetArray
                0x9d002504                MACPut
                0x9d002550                MACPutArray
                0x9d0025ac                MACPutHeader
                0x9d002644                CalcIPBufferChecksum
                0x9d002718                MACCalcRxChecksum
                0x9d00277c                MACPowerDown
                0x9d002784                MACPowerUp

.text           0x9d00278c      0xda4
 .text          0x9d00278c      0xda4 build/default/production/_ext/1360937237/dhcp_client.o
                0x9d002e90                DHCPInit
                0x9d002f08                DHCPDisable
                0x9d002f50                DHCPEnable
                0x9d002f84                DHCPIsEnabled
                0x9d002f94                DHCPIsBound
                0x9d002fa4                DHCPStateChanged
                0x9d002fd4                DHCPIsServerDetected
                0x9d002fe4                DHCPTempIPAddr
                0x9d003000                DHCPTask

.text._vfprintf_cdnopsuxX
                0x9d003530      0xc8c
 .text._vfprintf_cdnopsuxX
                0x9d003530      0xc8c c:/program files (x86)/microchip/xc32/v2.30/bin/bin/../../lib/gcc/pic32mx/4.8.3/../../../../pic32mx/lib\libc.a(doprnt_cdnopsuxX.eo)
                0x9d003530                _vfprintf_cdnopsuxX
                0x9d003530                _vfprintf_cdnopuxX

.text           0x9d0041bc     0x1150
 .text          0x9d0041bc      0x8c8 build/default/production/_ext/1360937237/UDP.o
                0x9d0041bc                UDPOpenEx
                0x9d0042fc                UDPTask
                0x9d00448c                UDPIsOpened
                0x9d0044b0                UDPClose
                0x9d0044e4                UDPInit
                0x9d004524                UDPSetTxBuffer
                0x9d004550                UDPSetRxBuffer
                0x9d004580                UDPIsPutReady
                0x9d0045e0                UDPPut
                0x9d004630                UDPPutArray
                0x9d004698                UDPPutString
                0x9d0046cc                UDPFlush
                0x9d004774                UDPIsGetReady
                0x9d0047c8                UDPGet
                0x9d004828                UDPGetArray
                0x9d00488c                UDPDiscard
                0x9d0048d4                UDPProcess
 .text          0x9d004a84      0x888 build/default/production/_ext/1360937237/dns_client.o
                0x9d004bc0                DNSBeginUsage
                0x9d004bec                DNSEndUsage
                0x9d004c3c                DNSInit
                0x9d004c78                DNSResolve
                0x9d004ce8                DNSIsResolved

.text           0x9d00530c     0x1024
 .text          0x9d00530c      0x86c build/default/production/_ext/659867239/rtc.o
                0x9d00530c                isr_rtc_1ms
                0x9d005334                isr_rtc_1s
                0x9d005340                rtc_is_leap_year
                0x9d005380                rtc_get_day_in_year
                0x9d0053ac                rtc_get_day_in_month
                0x9d005418                rtc_GetTimeDate
                0x9d00544c                rtc_CalculateWeekAndDay
                0x9d005520                rtc_calendar
                0x9d0055b4                do_rtc
                0x9d0056b0                rtc_SetTimeDate
                0x9d005764                init_rtc
                0x9d0057ac                rtc_inc_year
                0x9d0057cc                rtc_dec_year
                0x9d0057ec                rtc_inc_month
                0x9d005828                rtc_dec_month
                0x9d005878                rtc_inc_day
                0x9d0058d8                rtc_inc_hour
                0x9d005910                rtc_inc_min
                0x9d005948                rtc_inc_sec
                0x9d005980                rtc_dec_day
                0x9d0059d8                rtc_dec_hour
                0x9d005a0c                rtc_dec_min
                0x9d005a40                rtc_dec_sec
                0x9d005a74                rtc_CalculateNtpToDate
 .text          0x9d005b78      0x7b8 build/default/production/_ext/1360937237/Framework.o
                0x9d005b78                WriteHexRecord2Flash
                0x9d005dc8                CalculateCrc
                0x9d005e38                BuildRxFrame
                0x9d005f74                GetTransmitFrame
                0x9d006058                CalculateCrc_WithoutEeprom
                0x9d006100                HandleCommand
                0x9d0062bc                FrameWorkTask
                0x9d006328                ExitFirmwareUpgradeMode

.rodata         0x9d006330      0x704
 .rodata        0x9d006330      0x704 build/default/production/_ext/1360937237/drv_wifi_debug_strings.o

.text           0x9d006a34      0xdac
 .text          0x9d006a34      0x6e0 build/default/production/_ext/1360937237/drv_wifi_connection_algorithm.o
                0x9d006b14                WF_CASetElements
                0x9d006c04                WF_CASetElementsN
                0x9d006c78                WF_CAGetElements
                0x9d006cdc                WF_CASetScanType
                0x9d006d04                WF_CAGetScanType
                0x9d006d18                WF_CASetMinChannelTime
                0x9d006d44                WF_CAGetMinChannelTime
                0x9d006d84                WF_CASetMaxChannelTime
                0x9d006db0                WF_CAGetMaxChannelTime
                0x9d006df0                WF_CASetProbeDelay
                0x9d006e1c                WF_CAGetProbeDelay
                0x9d006e5c                WF_CASetScanCount
                0x9d006e84                WF_CAGetScanCount
                0x9d006e98                WF_CASetRssi
                0x9d006ec0                WF_CAGetRssi
                0x9d006ed4                WF_CASetConnectionProfileList
                0x9d006ee0                WF_CAGetConnectionProfileList
                0x9d006eec                WF_CASetListRetryCount
                0x9d006f14                WF_CAGetListRetryCount
                0x9d006f28                WF_CASetEventNotificationAction
                0x9d006f30                WF_CAGetEventNotificationAction
                0x9d006f3c                WF_CASetBeaconTimeoutAction
                0x9d006f64                WF_CAGetBeaconTimeoutAction
                0x9d006f78                WF_CASetDeauthAction
                0x9d006fa0                WF_CAGetDeauthAction
                0x9d006fb4                WF_CASetChannelList
                0x9d006fc8                WF_CAGetChannelList
                0x9d00703c                WF_CASetListenInterval
                0x9d007068                WF_CAGetListenInterval
                0x9d0070a8                WF_CASetBeaconTimeout
                0x9d0070d0                WF_CAGetBeaconTimeout
                0x9d0070e4                GetEventNotificationMask
                0x9d0070ec                WF_DisableModuleConnectionManager
 .text          0x9d007114      0x6cc build/default/production/_ext/1360937237/drv_wifi_com.o
                0x9d007114                WiFiTask
                0x9d0071e0                SignalDHCPSuccessful
                0x9d0071f0                SetDhcpProgressState
                0x9d007220                SignalWiFiConnectionChanged
                0x9d007230                Read8BitWFRegister
                0x9d007270                Write8BitWFRegister
                0x9d0072a4                WFProcess
                0x9d0073ec                Read16BitWFRegister
                0x9d007438                Write16BitWFRegister
                0x9d007474                WriteWFArray
                0x9d0074d0                ReadWFArray
                0x9d00753c                WFEintHandler
                0x9d0075f4                ReenablePowerSaveMode
                0x9d007600                WFHardwareInit

.text           0x9d0077e0      0xc10
 .text          0x9d0077e0      0x658 build/default/production/_ext/1360937237/drv_wifi_connection_profile.o
                0x9d0078b0                WF_CPCreate
                0x9d007910                WF_CPDelete
                0x9d007958                WF_CPGetIds
                0x9d0079b0                WF_CPSetElements
                0x9d007a14                WF_CPGetElements
                0x9d007a40                WF_CPSetSsidType
                0x9d007a68                WF_CPGetSsidType
                0x9d007a94                WF_CPSetSsid
                0x9d007af0                WF_CPGetSsid
                0x9d007b64                WF_CPSetBssid
                0x9d007b74                WF_CPGetBssid
                0x9d007ba0                WF_CPSetNetworkType
                0x9d007bc8                WF_CPGetNetworkType
                0x9d007bf4                WF_CPSetWepKeyType
                0x9d007c1c                WF_CPGetWepKeyType
                0x9d007c48                WF_CPSetSecurity
                0x9d007ccc                WF_CPGetSecurity
                0x9d007d90                WF_CPSetDefaultWepKeyIndex
                0x9d007db8                WF_CPGetDefaultWepKeyIndex
                0x9d007de4                WF_CPSetAdHocBehavior
                0x9d007e0c                WF_CPGetAdHocBehavior
 .text          0x9d007e38      0x5b8 build/default/production/_ext/1360937237/Helpers.o
                0x9d007e38                LFSRRand
                0x9d007e74                LFSRSeedRand
                0x9d007eb0                GenerateRandomDWORD
                0x9d007ebc                StringToIPAddress
                0x9d008000                uitoa_my
                0x9d00808c                hexatob
                0x9d0080f0                btohexa_high
                0x9d008108                btohexa_low
                0x9d008120                stricmppgm2ram
                0x9d008198                swaps
                0x9d0081b0                swapl
                0x9d0081f0                CalcIPChecksum
                0x9d008258                strupr
                0x9d008294                FormatNetBIOSName
                0x9d008300                strnchr
                0x9d008338                strncpy_m

.text           0x9d0083f0      0xaec
 .text          0x9d0083f0      0x588 build/default/production/_ext/1360937237/drv_wifi_raw.o
                0x9d008510                AllocateMgmtTxBuffer
                0x9d00857c                DeallocateMgmtRxBuffer
                0x9d0085b0                AllocateDataTxBuffer
                0x9d008620                DeallocateDataTxBuffer
                0x9d008650                DeallocateDataRxBuffer
                0x9d008664                RawSendTxBuffer
                0x9d008694                RawMountRxBuffer
                0x9d0086cc                RawToRawCopy
                0x9d0086dc                PushRawWindow
                0x9d0086ec                PopRawWindow
                0x9d0086fc                ScratchMount
                0x9d008744                ScratchUnmount
                0x9d008780                RawSetIndex
                0x9d008800                RawGetIndex
                0x9d008814                RawGetByte
                0x9d008894                RawRead
                0x9d0088d4                RawSetByte
                0x9d0088e8                RawWrite
                0x9d008928                SendRAWDataFrame
 .text          0x9d008978      0x564 build/default/production/_ext/1360937237/EthernetTasks.o
                0x9d008978                ethernetClose
                0x9d008a4c                disableInterrupt
                0x9d008a64                WF_Connect
                0x9d008b7c                ethernetInit
                0x9d008d28                DisplayIPValue
                0x9d008db0                ethernetTasks

.text           0x9d008edc      0x8bc
 .text          0x9d008edc      0x464 c:/program files (x86)/microchip/xc32/v2.30/bin/bin/../../lib/gcc/pic32mx/4.8.3\libgcc.a(_umoddi3.o)
                0x9d008edc                __umoddi3
 .text          0x9d009340      0x458 build/default/production/_ext/1360937237/drv_wifi_debug_strings.o
                0x9d009340                WF_OutputConnectionDebugMsg
                0x9d009410                WF_AssertionFailed
                0x9d0094a4                WF_OutputConnectionInfo
                0x9d009754                ValidateConfig

.text           0x9d009798      0x898
 .text          0x9d009798      0x458 c:/program files (x86)/microchip/xc32/v2.30/bin/bin/../../lib/gcc/pic32mx/4.8.3\libgcc.a(_udivdi3.o)
                0x9d009798                __udivdi3
 .text          0x9d009bf0      0x440 build/default/production/_ext/1360937237/drv_wifi_param_msg.o
                0x9d009bf0                WF_GetMultiCastFilter
                0x9d009c98                SendSetParamMsg
                0x9d009ce8                WFEnableMRF24WB0MMode
                0x9d009d14                WF_SetLinkDownThreshold
                0x9d009d3c                WFEnableDeferredPowerSave
                0x9d009d68                WF_SetMacAddress
                0x9d009d78                WF_SetMultiCastFilter
                0x9d009e24                WF_SetTxDataConfirm
                0x9d009e4c                WF_SetRegionalDomain
                0x9d009e74                WF_SetRtsThreshold
                0x9d009ec0                SendGetParamMsg
                0x9d009f2c                WF_GetDeviceInfo
                0x9d009f74                WF_GetMacAddress
                0x9d009f84                WF_GetTxDataConfirm
                0x9d009f94                WF_GetRegionalDomain
                0x9d009fa4                WF_GetRtsThreshold
                0x9d009fe0                WF_GetMacStats

.text           0x9d00a030      0x7c8
 .text          0x9d00a030      0x400 build/default/production/_ext/1360937237/big_int_helper_pic32.o
                0x9d00a030                _addBI
                0x9d00a0c4                _subBI
                0x9d00a160                _zeroBI
                0x9d00a194                _msbBI
                0x9d00a1d0                _mulBI
                0x9d00a298                _sqrBI
                0x9d00a2cc                _masBI
                0x9d00a3bc                _copyBI
 .text          0x9d00a430      0x3c8 build/default/production/_ext/1360937237/nbns.o
                0x9d00a430                NBNSInit
                0x9d00a438                NBNSTask

.dinit          0x9d00a7f8      0x3a0
 .dinit         0x9d00a7f8      0x3a0 data_init

.text           0x9d00ab98      0x6d8
 .text          0x9d00ab98      0x39c build/default/production/_ext/1360937237/ARP.o
                0x9d00ab98                ARPInit
                0x9d00abc8                ARPIsResolved
                0x9d00ac40                SwapARPPacket
                0x9d00ad44                ARPSendPkt
                0x9d00ad8c                ARPResolve
                0x9d00ae04                ARPProcess
 .text          0x9d00af34      0x33c build/default/production/_ext/1360937237/drv_wifi_mgmt_msg.o
                0x9d00af34                SendMgmtMsg
                0x9d00b030                SignalMgmtConfirmReceivedEvent
                0x9d00b040                WaitForMgmtResponse
                0x9d00b178                WaitForMgmtResponseAndReadData
                0x9d00b24c                WFSetFuncState

.text           0x9d00b270      0x59c
 .text          0x9d00b270      0x30c build/default/production/_ext/1360937237/stack_task.o
                0x9d00b270                StackInit
                0x9d00b328                StackTask
                0x9d00b54c                StackApplications
                0x9d00b570                RenewDhcp
 .text          0x9d00b57c      0x290 build/default/production/_ext/1360937237/announce.o
                0x9d00b57c                AnnounceInit
                0x9d00b584                AnnounceIP
                0x9d00b67c                DiscoveryTask

.text           0x9d00b80c      0x4ec
 .text          0x9d00b80c      0x28c build/default/production/_ext/252762716/sntp.o
                0x9d00b80c                SNTPInit
                0x9d00b814                SNTPClient
                0x9d00ba38                SNTPGetUTCSeconds
 .text          0x9d00ba98      0x260 build/default/production/_ext/1360937237/Tick.o
                0x9d00bb24                TickInit
                0x9d00bb7c                TickGet
                0x9d00bbbc                TickGetDiv256
                0x9d00bbfc                TickGetDiv64K
                0x9d00bc3c                TickConvertToMilliseconds
                0x9d00bc68                _T1Interrupt

.text           0x9d00bcf8      0x4a0
 .text          0x9d00bcf8      0x260 build/default/production/_ext/1360937237/IP.o
                0x9d00bd3c                IPGetHeader
                0x9d00be80                IPPutHeader
                0x9d00bf48                IPSetRxBuffer
 .text          0x9d00bf58      0x240 build/default/production/_ext/1360937237/drv_wifi_event_handler.o
                0x9d00bf58                WFProcessMgmtIndicateMsg

.text           0x9d00c198      0x46c
 .text          0x9d00c198      0x238 build/default/production/_ext/1360937237/drv_wifi_power_save.o
                0x9d00c1dc                WFConfigureLowPowerMode
                0x9d00c244                WF_PsPollEnable
                0x9d00c2c4                isSleepNeeded
                0x9d00c2cc                ClearSleepNeeded
                0x9d00c2d4                SetSleepNeeded
                0x9d00c2e0                SetAppPowerSaveMode
                0x9d00c2e8                GetAppPowerSaveMode
                0x9d00c2f0                WF_PsPollDisable
                0x9d00c330                WF_GetPowerSaveState
                0x9d00c33c                WFisPsPollEnabled
                0x9d00c350                WFIsPsPollActive
                0x9d00c358                EnsureWFisAwake
                0x9d00c3a0                WF_HibernateEnable
                0x9d00c3c8                SetPowerSaveState
 .text          0x9d00c3d0      0x234 build/default/production/_ext/1360937237/drv_wifi_connection_manager.o
                0x9d00c3d0                WF_CMConnect
                0x9d00c41c                WF_CMGetConnectionState
                0x9d00c4b0                WFisConnected
                0x9d00c4b8                SetLogicalConnectionState
                0x9d00c4c0                WF_CMCheckConnectionState
                0x9d00c534                WF_CMDisconnect
                0x9d00c5a4                WF_ConvPassphraseToKey

.text           0x9d00c604      0x420
 .text          0x9d00c604      0x228 build/default/production/_ext/1360937237/drv_wifi_eint.o
                0x9d00c604                WF_EintIsDisabled
                0x9d00c618                WF_EintIsPending
                0x9d00c640                _WFInterrupt
                0x9d00c79c                WF_EintEnable
                0x9d00c7c4                WF_EintDisable
                0x9d00c7d8                WF_EintInit
 .text          0x9d00c82c      0x1f8 build/default/production/_ext/659867239/rtcconverter.o
                0x9d00c82c                rtc_UTCtoLocalTime
                0x9d00c928                rtc_LocalTimeToUTC

.text           0x9d00ca24      0x358
 .text          0x9d00ca24      0x1b8 build/default/production/_ext/1360937237/NVMem.o
                0x9d00ca24                delay_us
                0x9d00ca7c                NVMemOperation
                0x9d00cb8c                NVMemErasePage
                0x9d00cba0                NVMemWriteWord
                0x9d00cbb8                NVMemWriteRow
                0x9d00cbd4                NVMemClearError
 .text          0x9d00cbdc      0x1a0 c:/program files (x86)/microchip/xc32/v2.30/bin/bin/../../lib/gcc/pic32mx/4.8.3/../../../../pic32mx/lib\libpic32.a(strcpy.o)
                0x9d00cbdc                strcpy

.text           0x9d00cd7c      0x2e8
 .text          0x9d00cd7c      0x180 build/default/production/_ext/1360937237/drv_wifi_spi.o
                0x9d00cd7c                WF_SpiInit
                0x9d00cdc8                WF_SpiEnableChipSelect
                0x9d00cde0                WF_SpiDisableChipSelect
                0x9d00ce04                WFSpiTxRx
 .text          0x9d00cefc      0x168 c:/program files (x86)/microchip/xc32/v2.30/bin/bin/../../lib/gcc/pic32mx/4.8.3/../../../../pic32mx/lib\libpic32.a(memcpy.o)
                0x9d00cefc                memcpy

.text           0x9d00d064      0x2ac
 .text          0x9d00d064      0x168 c:/program files (x86)/microchip/xc32/v2.30/bin/bin/../../lib/gcc/pic32mx/4.8.3/../../../../pic32mx/lib\libpic32.a(strlen.o)
                0x9d00d064                strlen
 .text          0x9d00d1cc      0x144 build/default/production/_ext/1360937237/drv_wifi_config.o
                0x9d00d1cc                WF_ProcessEvent

.text.fputc     0x9d00d310      0x144
 .text.fputc    0x9d00d310      0x144 c:/program files (x86)/microchip/xc32/v2.30/bin/bin/../../lib/gcc/pic32mx/4.8.3/../../../../pic32mx/lib\libc.a(_fputc_simple.o)
                0x9d00d310                fputc

.text           0x9d00d454      0x140
 .text          0x9d00d454      0x140 build/default/production/_ext/1360937237/BootLoader.o
                0x9d00d454                CheckTrigger
                0x9d00d474                JumpToApp
                0x9d00d4a0                ValidAppPresent
                0x9d00d4b4                main

.text._flsbuf   0x9d00d594      0x12c
 .text._flsbuf  0x9d00d594      0x12c c:/program files (x86)/microchip/xc32/v2.30/bin/bin/../../lib/gcc/pic32mx/4.8.3/../../../../pic32mx/lib\libc.a(_flsbuf_simple.o)
                0x9d00d594                _flsbuf

.rodata         0x9d00d6c0      0x104
 .rodata        0x9d00d6c0      0x104 c:/program files (x86)/microchip/xc32/v2.30/bin/bin/../../lib/gcc/pic32mx/4.8.3/../../../../pic32mx/lib\libc.a(ctype.o)
                0x9d00d6c0                _ctype

.text           0x9d00d7c4      0x1dc
 .text          0x9d00d7c4       0xf4 build/default/production/_ext/1360937237/icmp.o
                0x9d00d7c4                ICMPProcess
 .text          0x9d00d8b8       0xe8 build/default/production/_ext/1360937237/drv_wifi_init.o
                0x9d00d8b8                WF_Init

.text.general_exception
                0x9d00d9a0       0xdc
 .text.general_exception
                0x9d00d9a0       0xdc c:/program files (x86)/microchip/xc32/v2.30/bin/bin/../../lib/gcc/pic32mx/4.8.3/../../../../pic32mx/lib\libpic32.a(general-exception.o)
                0x9d00d9a0                _general_exception_context

.text._mon_putc
                0x9d00da7c       0xd4
 .text._mon_putc
                0x9d00da7c       0xd4 c:/program files (x86)/microchip/xc32/v2.30/bin/bin/../../lib/gcc/pic32mx/4.8.3/../../../../pic32mx/lib\libpic32.a(_mon_putc.o)
                0x9d00da7c                _mon_putc

.rodata         0x9d00db50       0xd0
 .rodata        0x9d00db50       0xd0 c:/program files (x86)/microchip/xc32/v2.30/bin/bin/../../lib/gcc/pic32mx/4.8.3/../../../../pic32mx/lib\libc.a(doprnt_cdnopsuxX.eo)

.text           0x9d00dc20      0x174
 .text          0x9d00dc20       0xcc build/default/production/_ext/659867239/daylight.o
                0x9d00dc20                daylight_SavingsBegin
                0x9d00dc4c                daylight_SavingsEnd
                0x9d00dc78                daylight_isDaylightSavings
 .text          0x9d00dcec       0xa8 c:/program files (x86)/microchip/xc32/v2.30/bin/bin/../../lib/gcc/pic32mx/4.8.3/../../../../pic32mx/lib\libpic32.a(memset.o)
                0x9d00dcec                memset

.text.write     0x9d00dd94       0x9c
 .text.write    0x9d00dd94       0x9c c:/program files (x86)/microchip/xc32/v2.30/bin/bin/../../lib/gcc/pic32mx/4.8.3/../../../../pic32mx/lib\libpic32.a(write.o)
                0x9d00dd94                write

.text           0x9d00de30       0x98
 .text          0x9d00de30       0x98 c:/program files (x86)/microchip/xc32/v2.30/bin/bin/../../lib/gcc/pic32mx/4.8.3/../../../../pic32mx/lib\libpic32.a(memcmp.o)
                0x9d00de30                memcmp

.rodata         0x9d00dec8       0x90
 .rodata        0x9d00dec8       0x90 build/default/production/_ext/1360937237/drv_wifi_config.o

.text           0x9d00df58      0x108
 .text          0x9d00df58       0x84 build/default/production/_ext/1360937237/Delay.o
                0x9d00df58                Delay10us
                0x9d00df94                DelayMs
 .text          0x9d00dfdc       0x84 c:/program files (x86)/microchip/xc32/v2.30/bin/bin/../../lib/gcc/pic32mx/4.8.3/../../../../pic32mx/lib\libpic32.a(pic32_data_init.o)
                0x9d00dfdc                __pic32_data_init

.text.strncpy   0x9d00e060       0x74
 .text.strncpy  0x9d00e060       0x74 c:/program files (x86)/microchip/xc32/v2.30/bin/bin/../../lib/gcc/pic32mx/4.8.3/../../../../pic32mx/lib\libc.a(strncpy.o)
                0x9d00e060                strncpy

.rodata         0x9d00e0d4       0x70
 .rodata        0x9d00e0d4       0x70 build/default/production/_ext/1360937237/drv_wifi_mgmt_msg.o

.text._sprintf_cdnopsuxX
                0x9d00e144       0x68
 .text._sprintf_cdnopsuxX
                0x9d00e144       0x68 c:/program files (x86)/microchip/xc32/v2.30/bin/bin/../../lib/gcc/pic32mx/4.8.3/../../../../pic32mx/lib\libc.a(sprintf_cdnopsuxX.eo)
                0x9d00e144                _sprintf_cdnopsuxX
                0x9d00e144                _sprintf_cdnopuxX

.text           0x9d00e1ac       0x5c
 .text          0x9d00e1ac       0x5c build/default/production/_ext/1360937237/uart.o
                0x9d00e1ac                ReadStringUART

.rodata         0x9d00e208       0x54
 .rodata        0x9d00e208       0x54 build/default/production/_ext/1360937237/EthernetTasks.o

.text.main_entry
                0x9d00e25c       0x54
 .text.main_entry
                0x9d00e25c       0x54 C:\Users\kyrk\AppData\Local\Temp\cciFSByj.o
                0x9d00e290                __crt0_exit

.text.putsUART1
                0x9d00e2b0       0x4c
 .text.putsUART1
                0x9d00e2b0       0x4c c:/program files (x86)/microchip/xc32/v2.30/bin/bin/../../lib/gcc/pic32mx/4.8.3/../../../../pic32mx/lib\libmchp_peripheral_32MX440F256H.a(puts_uartx_lib_legacy.o)
                0x9d00e2b0                putsUART1

.text.putsUART2
                0x9d00e2fc       0x4c
 .text.putsUART2
                0x9d00e2fc       0x4c c:/program files (x86)/microchip/xc32/v2.30/bin/bin/../../lib/gcc/pic32mx/4.8.3/../../../../pic32mx/lib\libmchp_peripheral_32MX440F256H.a(puts_uartx_lib_legacy.o)
                0x9d00e2fc                putsUART2

.text._bootstrap_exception_handler
                0x9d00e348       0x48
 .text._bootstrap_exception_handler
                0x9d00e348       0x48 c:/program files (x86)/microchip/xc32/v2.30/bin/bin/../../lib/gcc/pic32mx/4.8.3/../../../../pic32mx/lib\libpic32.a(default-bootstrap-exception-handler.o)
                0x9d00e348                _bootstrap_exception_handler

.text._general_exception_handler
                0x9d00e390       0x48
 .text._general_exception_handler
                0x9d00e390       0x48 c:/program files (x86)/microchip/xc32/v2.30/bin/bin/../../lib/gcc/pic32mx/4.8.3/../../../../pic32mx/lib\libpic32.a(default-general-exception-handler.o)
                0x9d00e390                _general_exception_handler

.vector_default
                0x9d00e3d8       0x48
 .vector_default
                0x9d00e3d8       0x48 c:/program files (x86)/microchip/xc32/v2.30/bin/bin/../../lib/gcc/pic32mx/4.8.3/../../../../pic32mx/lib\libpic32.a(defaultinterrupt.o)
                0x9d00e3d8                _DefaultInterrupt

.text           0x9d00e420       0x44
 .text          0x9d00e420       0x44 c:/program files (x86)/microchip/xc32/v2.30/bin/bin/../../lib/gcc/pic32mx/4.8.3/../../../../pic32mx/lib\pic32_software_reset.o
                0x9d00e420                __pic32_software_reset

.text.INTEnableSystemMultiVectoredInt
                0x9d00e464       0x34
 .text.INTEnableSystemMultiVectoredInt
                0x9d00e464       0x34 c:/program files (x86)/microchip/xc32/v2.30/bin/bin/../../lib/gcc/pic32mx/4.8.3/../../../../pic32mx/lib\libmchp_peripheral_32MX440F256H.a(int_enable_mv_int_lib.o)
                0x9d00e464                INTEnableSystemMultiVectoredInt

.rodata         0x9d00e498       0x40
 .rodata        0x9d00e498       0x24 build/default/production/_ext/1360937237/Framework.o
 .rodata        0x9d00e4bc       0x1c build/default/production/_ext/1360937237/announce.o

.text.INTRestoreInterrupts
                0x9d00e4d8       0x1c
 .text.INTRestoreInterrupts
                0x9d00e4d8       0x1c c:/program files (x86)/microchip/xc32/v2.30/bin/bin/../../lib/gcc/pic32mx/4.8.3/../../../../pic32mx/lib\libmchp_peripheral_32MX440F256H.a(int_restore_interrupts_lib.o)
                0x9d00e4d8                INTRestoreInterrupts

.rodata         0x9d00e4f4       0x18
 .rodata        0x9d00e4f4       0x18 build/default/production/_ext/1360937237/dhcp_client.o

.text.CheKseg0CacheOff
                0x9d00e50c       0x18
 .text.CheKseg0CacheOff
                0x9d00e50c       0x18 c:/program files (x86)/microchip/xc32/v2.30/bin/bin/../../lib/gcc/pic32mx/4.8.3/../../../../pic32mx/lib\libmchp_peripheral_32MX440F256H.a(pcache.o)
                0x9d00e50c                CheKseg0CacheOff

.text.CheKseg0CacheOn
                0x9d00e524       0x18
 .text.CheKseg0CacheOn
                0x9d00e524       0x18 c:/program files (x86)/microchip/xc32/v2.30/bin/bin/../../lib/gcc/pic32mx/4.8.3/../../../../pic32mx/lib\libmchp_peripheral_32MX440F256H.a(pcache.o)
                0x9d00e524                CheKseg0CacheOn

.text           0x9d00e53c       0x18
 .text          0x9d00e53c       0x18 c:/program files (x86)/microchip/xc32/v2.30/bin/bin/../../lib/gcc/pic32mx/4.8.3/../../../../pic32mx/lib\libpic32.a(default-nmi-handler.o)
                0x9d00e53c                _nmi_handler

.rodata         0x9d00e554       0x20
 .rodata        0x9d00e554       0x10 build/default/production/_ext/659867239/rtc.o
                0x9d00e554                day_in_month
 .rodata        0x9d00e564       0x10 build/default/production/_ext/252762716/sntp.o

.rodata         0x9d00e574       0x10
 .rodata        0x9d00e574        0x8 build/default/production/_ext/1360937237/drv_wifi_pbkdf2.o
 .rodata        0x9d00e57c        0x8 build/default/production/_ext/1360937237/drv_wifi_init.o

.text.ReadCoreTimer
                0x9d00e584        0x8
 .text.ReadCoreTimer
                0x9d00e584        0x8 c:/program files (x86)/microchip/xc32/v2.30/bin/bin/../../lib/gcc/pic32mx/4.8.3/../../../../pic32mx/lib\libmchp_peripheral.a(read_core_timer_lib.o)
                0x9d00e584                ReadCoreTimer

.text.WriteCoreTimer
                0x9d00e58c        0x8
 .text.WriteCoreTimer
                0x9d00e58c        0x8 c:/program files (x86)/microchip/xc32/v2.30/bin/bin/../../lib/gcc/pic32mx/4.8.3/../../../../pic32mx/lib\libmchp_peripheral.a(write_core_timer_lib.o)
                0x9d00e58c                WriteCoreTimer

.text.INTDisableInterrupts
                0x9d00e594        0x8
 .text.INTDisableInterrupts
                0x9d00e594        0x8 c:/program files (x86)/microchip/xc32/v2.30/bin/bin/../../lib/gcc/pic32mx/4.8.3/../../../../pic32mx/lib\libmchp_peripheral_32MX440F256H.a(int_disable_interrupts_lib.o)
                0x9d00e594                INTDisableInterrupts

.text.INTEnableInterrupts
                0x9d00e59c        0x8
 .text.INTEnableInterrupts
                0x9d00e59c        0x8 c:/program files (x86)/microchip/xc32/v2.30/bin/bin/../../lib/gcc/pic32mx/4.8.3/../../../../pic32mx/lib\libmchp_peripheral_32MX440F256H.a(int_enable_interrupts_lib.o)
                0x9d00e59c                INTEnableInterrupts

.text._on_reset
                0x9d00e5a4        0x8
 .text._on_reset
                0x9d00e5a4        0x8 c:/program files (x86)/microchip/xc32/v2.30/bin/bin/../../lib/gcc/pic32mx/4.8.3/../../../../pic32mx/lib\libpic32.a(default-on-reset.o)
                0x9d00e5a4                _on_reset

.text._on_bootstrap
                0x9d00e5ac        0x8
 .text._on_bootstrap
                0x9d00e5ac        0x8 c:/program files (x86)/microchip/xc32/v2.30/bin/bin/../../lib/gcc/pic32mx/4.8.3/../../../../pic32mx/lib\libpic32.a(default-on-bootstrap.o)
                0x9d00e5ac                _on_bootstrap

.rodata         0x9d00e5b4        0x8
 .rodata        0x9d00e5b4        0x4 build/default/production/_ext/1360937237/NVMem.o
                0x9d00e5b4                countPerMicroSec
 .rodata        0x9d00e5b8        0x4 build/default/production/_ext/1360937237/drv_wifi_raw.o

.text%z264      0x00000000        0x0
 .text          0x00000000        0x0 c:/program files (x86)/microchip/xc32/v2.30/bin/bin/../../lib/gcc/pic32mx/4.8.3/../../../../pic32mx/lib\libpic32.a(xc32_uart.o)

.text%z265      0x00000000        0x0
 .text          0x00000000        0x0 c:/program files (x86)/microchip/xc32/v2.30/bin/bin/../../lib/gcc/pic32mx/4.8.3/../../../../pic32mx/lib\libpic32.a(_mon_putc.o)

.text%z266      0x00000000        0x0
 .text          0x00000000        0x0 c:/program files (x86)/microchip/xc32/v2.30/bin/bin/../../lib/gcc/pic32mx/4.8.3/../../../../pic32mx/lib\libpic32.a(write.o)

.text%z267      0x00000000        0x0
 .text          0x00000000        0x0 c:/program files (x86)/microchip/xc32/v2.30/bin/bin/../../lib/gcc/pic32mx/4.8.3/../../../../pic32mx/lib\libc.a(_flsbuf_simple.o)

.text%z268      0x00000000        0x0
 .text          0x00000000        0x0 c:/program files (x86)/microchip/xc32/v2.30/bin/bin/../../lib/gcc/pic32mx/4.8.3/../../../../pic32mx/lib\libc.a(_iob.o)

.text%z269      0x00000000        0x0
 .text          0x00000000        0x0 c:/program files (x86)/microchip/xc32/v2.30/bin/bin/../../lib/gcc/pic32mx/4.8.3/../../../../pic32mx/lib\libc.a(ctype.o)

.text%z270      0x00000000        0x0
 .text          0x00000000        0x0 c:/program files (x86)/microchip/xc32/v2.30/bin/bin/../../lib/gcc/pic32mx/4.8.3/../../../../pic32mx/lib\libc.a(_fputc_simple.o)

.text%z271      0x00000000        0x0
 .text          0x00000000        0x0 c:/program files (x86)/microchip/xc32/v2.30/bin/bin/../../lib/gcc/pic32mx/4.8.3/../../../../pic32mx/lib\libc.a(doprnt_cdnopsuxX.eo)

.text%z272      0x00000000        0x0
 .text          0x00000000        0x0 c:/program files (x86)/microchip/xc32/v2.30/bin/bin/../../lib/gcc/pic32mx/4.8.3/../../../../pic32mx/lib\libc.a(sprintf_cdnopsuxX.eo)

.text%z273      0x00000000        0x0
 .text          0x00000000        0x0 c:/program files (x86)/microchip/xc32/v2.30/bin/bin/../../lib/gcc/pic32mx/4.8.3/../../../../pic32mx/lib\libc.a(strncpy.o)

.text%z274      0x00000000        0x0
 .text          0x00000000        0x0 c:/program files (x86)/microchip/xc32/v2.30/bin/bin/../../lib/gcc/pic32mx/4.8.3/../../../../pic32mx/lib\libpic32.a(defaultinterrupt.o)

.text%z275      0x00000000        0x0
 .text          0x00000000        0x0 c:/program files (x86)/microchip/xc32/v2.30/bin/bin/../../lib/gcc/pic32mx/4.8.3/../../../../pic32mx/lib\libpic32.a(default-general-exception-handler.o)

.text%z276      0x00000000        0x0
 .text          0x00000000        0x0 c:/program files (x86)/microchip/xc32/v2.30/bin/bin/../../lib/gcc/pic32mx/4.8.3/../../../../pic32mx/lib\libpic32.a(vector45.o)

.text%z277      0x00000000        0x0
 .text          0x00000000        0x0 c:/program files (x86)/microchip/xc32/v2.30/bin/bin/../../lib/gcc/pic32mx/4.8.3/../../../../pic32mx/lib\libpic32.a(vector44.o)

.text%z278      0x00000000        0x0
 .text          0x00000000        0x0 c:/program files (x86)/microchip/xc32/v2.30/bin/bin/../../lib/gcc/pic32mx/4.8.3/../../../../pic32mx/lib\libpic32.a(vector43.o)

.text%z279      0x00000000        0x0
 .text          0x00000000        0x0 c:/program files (x86)/microchip/xc32/v2.30/bin/bin/../../lib/gcc/pic32mx/4.8.3/../../../../pic32mx/lib\libpic32.a(vector42.o)

.text%z280      0x00000000        0x0
 .text          0x00000000        0x0 c:/program files (x86)/microchip/xc32/v2.30/bin/bin/../../lib/gcc/pic32mx/4.8.3/../../../../pic32mx/lib\libpic32.a(vector41.o)

.text%z281      0x00000000        0x0
 .text          0x00000000        0x0 c:/program files (x86)/microchip/xc32/v2.30/bin/bin/../../lib/gcc/pic32mx/4.8.3/../../../../pic32mx/lib\libpic32.a(vector40.o)

.text%z282      0x00000000        0x0
 .text          0x00000000        0x0 c:/program files (x86)/microchip/xc32/v2.30/bin/bin/../../lib/gcc/pic32mx/4.8.3/../../../../pic32mx/lib\libpic32.a(vector39.o)

.text%z283      0x00000000        0x0
 .text          0x00000000        0x0 c:/program files (x86)/microchip/xc32/v2.30/bin/bin/../../lib/gcc/pic32mx/4.8.3/../../../../pic32mx/lib\libpic32.a(vector38.o)

.text%z284      0x00000000        0x0
 .text          0x00000000        0x0 c:/program files (x86)/microchip/xc32/v2.30/bin/bin/../../lib/gcc/pic32mx/4.8.3/../../../../pic32mx/lib\libpic32.a(vector37.o)

.text%z285      0x00000000        0x0
 .text          0x00000000        0x0 c:/program files (x86)/microchip/xc32/v2.30/bin/bin/../../lib/gcc/pic32mx/4.8.3/../../../../pic32mx/lib\libpic32.a(vector36.o)

.text%z286      0x00000000        0x0
 .text          0x00000000        0x0 c:/program files (x86)/microchip/xc32/v2.30/bin/bin/../../lib/gcc/pic32mx/4.8.3/../../../../pic32mx/lib\libpic32.a(vector35.o)

.text%z287      0x00000000        0x0
 .text          0x00000000        0x0 c:/program files (x86)/microchip/xc32/v2.30/bin/bin/../../lib/gcc/pic32mx/4.8.3/../../../../pic32mx/lib\libpic32.a(vector34.o)

.text%z288      0x00000000        0x0
 .text          0x00000000        0x0 c:/program files (x86)/microchip/xc32/v2.30/bin/bin/../../lib/gcc/pic32mx/4.8.3/../../../../pic32mx/lib\libpic32.a(vector33.o)

.text%z289      0x00000000        0x0
 .text          0x00000000        0x0 c:/program files (x86)/microchip/xc32/v2.30/bin/bin/../../lib/gcc/pic32mx/4.8.3/../../../../pic32mx/lib\libpic32.a(vector32.o)

.text%z290      0x00000000        0x0
 .text          0x00000000        0x0 c:/program files (x86)/microchip/xc32/v2.30/bin/bin/../../lib/gcc/pic32mx/4.8.3/../../../../pic32mx/lib\libpic32.a(vector31.o)

.text%z291      0x00000000        0x0
 .text          0x00000000        0x0 c:/program files (x86)/microchip/xc32/v2.30/bin/bin/../../lib/gcc/pic32mx/4.8.3/../../../../pic32mx/lib\libpic32.a(vector30.o)

.text%z292      0x00000000        0x0
 .text          0x00000000        0x0 c:/program files (x86)/microchip/xc32/v2.30/bin/bin/../../lib/gcc/pic32mx/4.8.3/../../../../pic32mx/lib\libpic32.a(vector29.o)

.text%z293      0x00000000        0x0
 .text          0x00000000        0x0 c:/program files (x86)/microchip/xc32/v2.30/bin/bin/../../lib/gcc/pic32mx/4.8.3/../../../../pic32mx/lib\libpic32.a(vector28.o)

.text%z294      0x00000000        0x0
 .text          0x00000000        0x0 c:/program files (x86)/microchip/xc32/v2.30/bin/bin/../../lib/gcc/pic32mx/4.8.3/../../../../pic32mx/lib\libpic32.a(vector27.o)

.text%z295      0x00000000        0x0
 .text          0x00000000        0x0 c:/program files (x86)/microchip/xc32/v2.30/bin/bin/../../lib/gcc/pic32mx/4.8.3/../../../../pic32mx/lib\libpic32.a(vector26.o)

.text%z296      0x00000000        0x0
 .text          0x00000000        0x0 c:/program files (x86)/microchip/xc32/v2.30/bin/bin/../../lib/gcc/pic32mx/4.8.3/../../../../pic32mx/lib\libpic32.a(vector25.o)

.text%z297      0x00000000        0x0
 .text          0x00000000        0x0 c:/program files (x86)/microchip/xc32/v2.30/bin/bin/../../lib/gcc/pic32mx/4.8.3/../../../../pic32mx/lib\libpic32.a(vector24.o)

.text%z298      0x00000000        0x0
 .text          0x00000000        0x0 c:/program files (x86)/microchip/xc32/v2.30/bin/bin/../../lib/gcc/pic32mx/4.8.3/../../../../pic32mx/lib\libpic32.a(vector23.o)

.text%z299      0x00000000        0x0
 .text          0x00000000        0x0 c:/program files (x86)/microchip/xc32/v2.30/bin/bin/../../lib/gcc/pic32mx/4.8.3/../../../../pic32mx/lib\libpic32.a(vector22.o)

.text%z300      0x00000000        0x0
 .text          0x00000000        0x0 c:/program files (x86)/microchip/xc32/v2.30/bin/bin/../../lib/gcc/pic32mx/4.8.3/../../../../pic32mx/lib\libpic32.a(vector21.o)

.text%z301      0x00000000        0x0
 .text          0x00000000        0x0 c:/program files (x86)/microchip/xc32/v2.30/bin/bin/../../lib/gcc/pic32mx/4.8.3/../../../../pic32mx/lib\libpic32.a(vector20.o)

.text%z302      0x00000000        0x0
 .text          0x00000000        0x0 c:/program files (x86)/microchip/xc32/v2.30/bin/bin/../../lib/gcc/pic32mx/4.8.3/../../../../pic32mx/lib\libpic32.a(vector19.o)

.text%z303      0x00000000        0x0
 .text          0x00000000        0x0 c:/program files (x86)/microchip/xc32/v2.30/bin/bin/../../lib/gcc/pic32mx/4.8.3/../../../../pic32mx/lib\libpic32.a(vector18.o)

.text%z304      0x00000000        0x0
 .text          0x00000000        0x0 c:/program files (x86)/microchip/xc32/v2.30/bin/bin/../../lib/gcc/pic32mx/4.8.3/../../../../pic32mx/lib\libpic32.a(vector17.o)

.text%z305      0x00000000        0x0
 .text          0x00000000        0x0 c:/program files (x86)/microchip/xc32/v2.30/bin/bin/../../lib/gcc/pic32mx/4.8.3/../../../../pic32mx/lib\libpic32.a(vector16.o)

.text%z306      0x00000000        0x0
 .text          0x00000000        0x0 c:/program files (x86)/microchip/xc32/v2.30/bin/bin/../../lib/gcc/pic32mx/4.8.3/../../../../pic32mx/lib\libpic32.a(vector14.o)

.text%z307      0x00000000        0x0
 .text          0x00000000        0x0 c:/program files (x86)/microchip/xc32/v2.30/bin/bin/../../lib/gcc/pic32mx/4.8.3/../../../../pic32mx/lib\libpic32.a(vector13.o)

.text%z308      0x00000000        0x0
 .text          0x00000000        0x0 c:/program files (x86)/microchip/xc32/v2.30/bin/bin/../../lib/gcc/pic32mx/4.8.3/../../../../pic32mx/lib\libpic32.a(vector12.o)

.text%z309      0x00000000        0x0
 .text          0x00000000        0x0 c:/program files (x86)/microchip/xc32/v2.30/bin/bin/../../lib/gcc/pic32mx/4.8.3/../../../../pic32mx/lib\libpic32.a(vector11.o)

.text%z310      0x00000000        0x0
 .text          0x00000000        0x0 c:/program files (x86)/microchip/xc32/v2.30/bin/bin/../../lib/gcc/pic32mx/4.8.3/../../../../pic32mx/lib\libpic32.a(vector10.o)

.text%z311      0x00000000        0x0
 .text          0x00000000        0x0 c:/program files (x86)/microchip/xc32/v2.30/bin/bin/../../lib/gcc/pic32mx/4.8.3/../../../../pic32mx/lib\libpic32.a(vector9.o)

.text%z312      0x00000000        0x0
 .text          0x00000000        0x0 c:/program files (x86)/microchip/xc32/v2.30/bin/bin/../../lib/gcc/pic32mx/4.8.3/../../../../pic32mx/lib\libpic32.a(vector8.o)

.text%z313      0x00000000        0x0
 .text          0x00000000        0x0 c:/program files (x86)/microchip/xc32/v2.30/bin/bin/../../lib/gcc/pic32mx/4.8.3/../../../../pic32mx/lib\libpic32.a(vector7.o)

.text%z314      0x00000000        0x0
 .text          0x00000000        0x0 c:/program files (x86)/microchip/xc32/v2.30/bin/bin/../../lib/gcc/pic32mx/4.8.3/../../../../pic32mx/lib\libpic32.a(vector6.o)

.text%z315      0x00000000        0x0
 .text          0x00000000        0x0 c:/program files (x86)/microchip/xc32/v2.30/bin/bin/../../lib/gcc/pic32mx/4.8.3/../../../../pic32mx/lib\libpic32.a(vector5.o)

.text%z316      0x00000000        0x0
 .text          0x00000000        0x0 c:/program files (x86)/microchip/xc32/v2.30/bin/bin/../../lib/gcc/pic32mx/4.8.3/../../../../pic32mx/lib\libpic32.a(vector3.o)

.text%z317      0x00000000        0x0
 .text          0x00000000        0x0 c:/program files (x86)/microchip/xc32/v2.30/bin/bin/../../lib/gcc/pic32mx/4.8.3/../../../../pic32mx/lib\libpic32.a(vector2.o)

.text%z318      0x00000000        0x0
 .text          0x00000000        0x0 c:/program files (x86)/microchip/xc32/v2.30/bin/bin/../../lib/gcc/pic32mx/4.8.3/../../../../pic32mx/lib\libpic32.a(vector1.o)

.text%z319      0x00000000        0x0
 .text          0x00000000        0x0 c:/program files (x86)/microchip/xc32/v2.30/bin/bin/../../lib/gcc/pic32mx/4.8.3/../../../../pic32mx/lib\libpic32.a(vector0.o)

.text%z320      0x00000000        0x0
 .text          0x00000000        0x0 c:/program files (x86)/microchip/xc32/v2.30/bin/bin/../../lib/gcc/pic32mx/4.8.3/../../../../pic32mx/lib\libpic32.a(general-exception.o)

.text%z321      0x00000000        0x0
 .text          0x00000000        0x0 c:/program files (x86)/microchip/xc32/v2.30/bin/bin/../../lib/gcc/pic32mx/4.8.3/../../../../pic32mx/lib\libpic32.a(default-on-bootstrap.o)

.text%z322      0x00000000        0x0
 .text          0x00000000        0x0 c:/program files (x86)/microchip/xc32/v2.30/bin/bin/../../lib/gcc/pic32mx/4.8.3/../../../../pic32mx/lib\libpic32.a(default-on-reset.o)

.text%z323      0x00000000        0x0
 .text          0x00000000        0x0 c:/program files (x86)/microchip/xc32/v2.30/bin/bin/../../lib/gcc/pic32mx/4.8.3/../../../../pic32mx/lib\libpic32.a(default-bootstrap-exception-handler.o)

.text%z324      0x00000000        0x0
 .text          0x00000000        0x0 c:/program files (x86)/microchip/xc32/v2.30/bin/bin/../../lib/gcc/pic32mx/4.8.3/../../../../pic32mx/lib/./proc/32MX440F256H\default_isr_vectors.o

.text%z325      0x00000000        0x0
 .text          0x00000000        0x0 C:\Users\kyrk\AppData\Local\Temp\ccmCSEZY.o

.text%z326      0x00000000        0x0
 .text          0x00000000        0x0 C:\Users\kyrk\AppData\Local\Temp\ccz1PUY4.o

.text%z327      0x00000000        0x0
 .text          0x00000000        0x0 C:\Users\kyrk\AppData\Local\Temp\cciFSByj.o

.text%z328      0x00000000        0x0
 .text          0x00000000        0x0 c:/program files (x86)/microchip/xc32/v2.30/bin/bin/../../lib/gcc/pic32mx/4.8.3/../../../../pic32mx/lib\libmchp_peripheral_32MX440F256H.a(int_enable_interrupts_lib.o)

.text%z329      0x00000000        0x0
 .text          0x00000000        0x0 c:/program files (x86)/microchip/xc32/v2.30/bin/bin/../../lib/gcc/pic32mx/4.8.3/../../../../pic32mx/lib\libmchp_peripheral_32MX440F256H.a(puts_uartx_lib_legacy.o)

.text%z330      0x00000000        0x0
 .text          0x00000000        0x0 c:/program files (x86)/microchip/xc32/v2.30/bin/bin/../../lib/gcc/pic32mx/4.8.3/../../../../pic32mx/lib\libmchp_peripheral_32MX440F256H.a(int_enable_mv_int_lib.o)

.text%z331      0x00000000        0x0
 .text          0x00000000        0x0 c:/program files (x86)/microchip/xc32/v2.30/bin/bin/../../lib/gcc/pic32mx/4.8.3/../../../../pic32mx/lib\libmchp_peripheral_32MX440F256H.a(int_restore_interrupts_lib.o)

.text%z332      0x00000000        0x0
 .text          0x00000000        0x0 c:/program files (x86)/microchip/xc32/v2.30/bin/bin/../../lib/gcc/pic32mx/4.8.3/../../../../pic32mx/lib\libmchp_peripheral_32MX440F256H.a(int_disable_interrupts_lib.o)

.text%z333      0x00000000        0x0
 .text          0x00000000        0x0 c:/program files (x86)/microchip/xc32/v2.30/bin/bin/../../lib/gcc/pic32mx/4.8.3/../../../../pic32mx/lib\libmchp_peripheral_32MX440F256H.a(pcache.o)

.text%z334      0x00000000        0x0
 .text          0x00000000        0x0 c:/program files (x86)/microchip/xc32/v2.30/bin/bin/../../lib/gcc/pic32mx/4.8.3/../../../../pic32mx/lib\libmchp_peripheral.a(write_core_timer_lib.o)

.text%z335      0x00000000        0x0
 .text          0x00000000        0x0 c:/program files (x86)/microchip/xc32/v2.30/bin/bin/../../lib/gcc/pic32mx/4.8.3/../../../../pic32mx/lib\libmchp_peripheral.a(read_core_timer_lib.o)

.text%z336      0x00000000        0x0
 .text          0x00000000        0x0 c:/program files (x86)/microchip/xc32/v2.30/bin/bin/../../lib/gcc/pic32mx/4.8.3/../../../../pic32mx/lib/./proc/32MX440F256H\processor.o

.text%z337      0x00000000        0x0
 .text          0x00000000        0x0 build/default/production/_ext/252762716/mpfs_img2.o

.text%z338      0x00000000        0x0
 .text          0x00000000        0x0 build/default/production/_ext/252762716/custom_http_app.o

.text%z339      0x00000000        0x0
 .text          0x00000000        0x0 build/default/production/_ext/252762716/mpfs2.o

.text%z340      0x00000000        0x0
 .text          0x00000000        0x0 build/default/production/_ext/252762716/http2.o

.text%z341      0x00000000        0x0
 .text          0x00000000        0x0 build/default/production/_ext/1360937237/smtp_demo.o

.text%z342      0x00000000        0x0
 .text          0x00000000        0x0 build/default/production/_ext/1360937237/smtp.o

.text%z343      0x00000000        0x0
 .text          0x00000000        0x0 build/default/production/_ext/252762716/arc4.o

.text%z344      0x00000000        0x0
 .text          0x00000000        0x0 build/default/production/_ext/252762716/custom_ssl_cert.o

.text%z345      0x00000000        0x0
 .text          0x00000000        0x0 build/default/production/_ext/252762716/big_int.o

.text%z346      0x00000000        0x0
 .text          0x00000000        0x0 build/default/production/_ext/252762716/rsa.o

.text%z347      0x00000000        0x0
 .text          0x00000000        0x0 build/default/production/_ext/252762716/hashes.o

.text%z348      0x00000000        0x0
 .text          0x00000000        0x0 build/default/production/_ext/252762716/random.o

.text%z349      0x00000000        0x0
 .text          0x00000000        0x0 build/default/production/_ext/252762716/ssl.o

.rodata%z350    0x00000000        0x0
 .rodata        0x00000000        0x0 build/default/production/_ext/1360937237/tcp.o
                0x00000000                TCPSocketInitializer

.text%z351      0x00000000        0x0
 .text          0x00000000        0x0 build/default/production/_ext/1360937237/tcp.o

.text%z352      0x00000000        0x0
 .text          0x00000000        0x0 c:/program files (x86)/microchip/xc32/v2.30/bin/bin/../../lib/gcc/pic32mx/4.8.3/../../../../pic32mx/lib\debug-exception-return.o
